 PhysXCommon_64

 Timestamp is 653b6e10 (Fri Oct 27 17:00:16 2023)

 Preferred load address is 0000000180000000

 Start         Length     Name                   Class
 0001:00000000 00003530H .text$di                CODE
 0001:00003530 001d1f20H .text$mn                CODE
 0001:001d5450 00000040H .text$mn$00             CODE
 0001:001d5490 00000680H .text$x                 CODE
 0001:001d5b10 0000000fH .text$yd                CODE
 0002:00000000 00000288H .idata$5                DATA
 0002:00000288 00000038H .00cfg                  DATA
 0002:000002c0 00000008H .CRT$XCA                DATA
 0002:000002c8 000019d0H .CRT$XCU                DATA
 0002:00001c98 00000008H .CRT$XCZ                DATA
 0002:00001ca0 00000008H .CRT$XIA                DATA
 0002:00001ca8 00000018H .CRT$XIC                DATA
 0002:00001cc0 00000008H .CRT$XIZ                DATA
 0002:00001cc8 00000008H .CRT$XPA                DATA
 0002:00001cd0 00000010H .CRT$XPX                DATA
 0002:00001ce0 00000008H .CRT$XPXA               DATA
 0002:00001ce8 00000008H .CRT$XPZ                DATA
 0002:00001cf0 00000008H .CRT$XTA                DATA
 0002:00001cf8 00000008H .CRT$XTZ                DATA
 0002:00001d00 00000000H .gehcont$y              DATA
 0002:00001d00 00000000H .gfids$y                DATA
 0002:00001d00 00011880H .rdata                  DATA
 0002:00013580 00000000H .rdata$CastGuardVftablesA DATA
 0002:00013580 00000000H .rdata$CastGuardVftablesC DATA
 0002:00013580 0000043cH .rdata$r                DATA
 0002:000139bc 0000022cH .rdata$voltmd           DATA
 0002:00013be8 00000430H .rdata$zzzdbg           DATA
 0002:00014018 00000008H .rtc$IAA                DATA
 0002:00014020 00000008H .rtc$IZZ                DATA
 0002:00014028 00000008H .rtc$TAA                DATA
 0002:00014030 00000008H .rtc$TZZ                DATA
 0002:00014038 00014bd0H .xdata                  DATA
 0002:00028c08 00000084H .xdata$x                DATA
 0002:00028c8c 00000020H .didat$2                DATA
 0002:00028cac 00000024H .didat$3                DATA
 0002:00028cd0 000000c8H .didat$4                DATA
 0002:00028d98 00000418H .didat$6                DATA
 0002:000291b0 000000d0H .didat$7                DATA
 0002:00029280 0000c614H .edata                  DATA
 0002:00035894 00000014H .idata$2                DATA
 0002:000358a8 00000018H .idata$3                DATA
 0002:000358c0 00000288H .idata$4                DATA
 0002:00035b48 000005caH .idata$6                DATA
 0003:00000000 00001c40H .data                   DATA
 0003:00001c40 00001158H .data$r                 DATA
 0003:00002d98 000000f0H .data$rs                DATA
 0003:00002e88 000000c8H .didat$5                DATA
 0003:00002f50 0000461cH .bss                    DATA
 0004:00000000 0000c39cH .pdata                  DATA
 0005:00000000 0000236cH _RDATA                  DATA
 0006:00000000 000000a0H .rsrc$01                DATA
 0006:000000a0 000004b0H .rsrc$02                DATA

  Address         Publics by Value              Rva+Base               Lib:Object

 0000:00000000       __AbsoluteZero             0000000000000000     <absolute>
 0000:00000000       ___safe_se_handler_count   0000000000000000     <absolute>
 0000:00000000       ___safe_se_handler_table   0000000000000000     <absolute>
 0000:00000000       __arm64x_extra_rfe_table   0000000000000000     <absolute>
 0000:00000000       __arm64x_extra_rfe_table_size 0000000000000000     <absolute>
 0000:00000000       __arm64x_native_entrypoint 0000000000000000     <absolute>
 0000:00000000       __arm64x_redirection_metadata 0000000000000000     <absolute>
 0000:00000000       __arm64x_redirection_metadata_count 0000000000000000     <absolute>
 0000:00000000       __dynamic_value_reloc_table 0000000000000000     <absolute>
 0000:00000000       __enclave_config           0000000000000000     <absolute>
 0000:00000000       __guard_check_icall_a64n_fptr 0000000000000000     <absolute>
 0000:00000000       __guard_eh_cont_count      0000000000000000     <absolute>
 0000:00000000       __guard_eh_cont_table      0000000000000000     <absolute>
 0000:00000000       __guard_fids_count         0000000000000000     <absolute>
 0000:00000000       __guard_fids_table         0000000000000000     <absolute>
 0000:00000000       __guard_iat_count          0000000000000000     <absolute>
 0000:00000000       __guard_iat_table          0000000000000000     <absolute>
 0000:00000000       __guard_longjmp_count      0000000000000000     <absolute>
 0000:00000000       __guard_longjmp_table      0000000000000000     <absolute>
 0000:00000000       __hybrid_auxiliary_delayload_iat 0000000000000000     <absolute>
 0000:00000000       __hybrid_auxiliary_delayload_iat_copy 0000000000000000     <absolute>
 0000:00000000       __hybrid_auxiliary_iat     0000000000000000     <absolute>
 0000:00000000       __hybrid_auxiliary_iat_copy 0000000000000000     <absolute>
 0000:00000000       __hybrid_code_map          0000000000000000     <absolute>
 0000:00000000       __hybrid_code_map_count    0000000000000000     <absolute>
 0000:00000000       __x64_code_ranges_to_entry_points 0000000000000000     <absolute>
 0000:00000000       __x64_code_ranges_to_entry_points_count 0000000000000000     <absolute>
 0000:00000100       __guard_flags              0000000000000100     <absolute>
 0000:00000000       __ImageBase                0000000180000000     <linker-defined>
 0001:00003530       ??0PtrTable@Cm@physx@@QEAA@W4PxEMPTY@2@@Z 0000000180004530 f i CmPtrTable.obj
 0001:00003550       ??0PtrTable@Cm@physx@@QEAA@XZ 0000000180004550 f   CmPtrTable.obj
 0001:00003560       ??1AABBTreeBuildNode@Gu@physx@@QEAA@XZ 0000000180004560 f   GuMeshFactory.obj
 0001:00003560       ??1BigConvexDataBuilder@physx@@QEAA@XZ 0000000180004560 f   GuCookingBigConvexDataBuilder.obj
 0001:00003560       ??1Box@Gu@physx@@QEAA@XZ   0000000180004560 f   GuBox.obj
 0001:00003560       ??1HeightFieldData@Gu@physx@@QEAA@XZ 0000000180004560 f   GuCCTSweepTests.obj
 0001:00003560       ??1PtrTable@Cm@physx@@QEAA@XZ 0000000180004560 f   CmPtrTable.obj
 0001:00003560       ?build@CompanionPrunerIncremental@@UEAAXXZ 0000000180004560 f   GuSecondaryPruner.obj
 0001:00003560       ?checkTreeLeaf@IncrementalAABBTree@Gu@physx@@QEAAXPEAVIncrementalAABBTreeNode@23@I@Z 0000000180004560 f   GuIncrementalAABBTree.obj
 0001:00003560       ?execute@?$PxThreadT@V?$PxReflectionAllocator@VPxThreadImpl@physx@@@physx@@@physx@@UEAAXXZ 0000000180004560 f   GuSDF.obj
 0001:00003560       ?execute@PxRunnable@physx@@UEAAXXZ 0000000180004560 f   GuSDF.obj
 0001:00003560       ?merge@BucketPruner@Gu@physx@@UEAAXPEBX@Z 0000000180004560 f   GuBucketPruner.obj
 0001:00003560       ?merge@IncrementalAABBPruner@Gu@physx@@UEAAXPEBX@Z 0000000180004560 f   GuIncrementalAABBPruner.obj
 0001:00003560       ?onMeshIndexFormatChange@TriangleMeshBuilder@physx@@UEAAXXZ 0000000180004560 f   GuCookingTriangleMesh.obj
 0001:00003560       ?profile@Callback@RTree@Gu@physx@@UEAAXXZ 0000000180004560 f   GuMidphaseRTree.obj
 0001:00003560       ?purge@BucketPruner@Gu@physx@@UEAAXXZ 0000000180004560 f   GuBucketPruner.obj
 0001:00003560       ?requiresObjects@ConvexMesh@Gu@physx@@UEAAXAEAVPxProcessPxBaseCallback@3@@Z 0000000180004560 f   GuConvexMesh.obj
 0001:00003560       ?requiresObjects@HeightField@Gu@physx@@UEAAXAEAVPxProcessPxBaseCallback@3@@Z 0000000180004560 f   GuHeightField.obj
 0001:00003560       ?requiresObjects@SoftBodyMesh@Gu@physx@@UEAAXAEAVPxProcessPxBaseCallback@3@@Z 0000000180004560 f   GuTetrahedronMesh.obj
 0001:00003560       ?requiresObjects@TriangleMesh@Gu@physx@@UEAAXAEAVPxProcessPxBaseCallback@3@@Z 0000000180004560 f   GuTriangleMesh.obj
 0001:00003560       ?swapIndex@CompanionPrunerAABBTree@@UEAAXII@Z 0000000180004560 f   GuSecondaryPruner.obj
 0001:00003560       ?swapIndex@CompanionPrunerBucket@@UEAAXII@Z 0000000180004560 f   GuSecondaryPruner.obj
 0001:00003560       ?timeStampChange@CompanionPrunerAABBTree@@UEAAXXZ 0000000180004560 f   GuSecondaryPruner.obj
 0001:00003560       ?timeStampChange@CompanionPrunerBucket@@UEAAXXZ 0000000180004560 f   GuSecondaryPruner.obj
 0001:00003560       ?visualize@BasePruner@Gu@physx@@UEBAXAEAVPxRenderOutput@3@II@Z 0000000180004560 f   GuIncrementalAABBPruner.obj
 0001:00003560       _guard_check_icall_nop     0000000180004560 f   LIBCMT:guard_support.obj
 0001:00003570       ??4AABBTreeBounds@Gu@physx@@QEAAAEAV012@AEBV012@@Z 0000000180004570 f i GuMeshFactory.obj
 0001:00003570       ??4CmModuleUpdateLoader@Cm@physx@@QEAAAEAV012@AEBV012@@Z 0000000180004570 f i CmWindowsModuleUpdateLoader.obj
 0001:00003570       ??4PtrTable@Cm@physx@@QEAAAEAU012@AEBU012@@Z 0000000180004570 f i CmPtrTable.obj
 0001:00003580       ?add@PtrTable@Cm@physx@@QEAAXPEAXAEAVPtrTableStorageManager@23@@Z 0000000180004580 f   CmPtrTable.obj
 0001:00003690       ?clear@PtrTable@Cm@physx@@QEAAXAEAVPtrTableStorageManager@23@@Z 0000000180004690 f   CmPtrTable.obj
 0001:00003700       ?exportExtraData@PtrTable@Cm@physx@@QEAAXAEAVPxSerializationContext@3@@Z 0000000180004700 f   CmPtrTable.obj
 0001:00003750       ?find@PtrTable@Cm@physx@@QEBAIPEBX@Z 0000000180004750 f   CmPtrTable.obj
 0001:00003780       ?getBinaryMetaData@PtrTable@Cm@physx@@SAXAEAVPxOutputStream@3@@Z 0000000180004780 f   CmPtrTable.obj
 0001:00003970       ?getCount@PtrTable@Cm@physx@@QEBAIXZ 0000000180004970 f i CmPtrTable.obj
 0001:00003980       ?getPtrs@PtrTable@Cm@physx@@QEAAPEAPEAXXZ 0000000180004980 f i CmPtrTable.obj
 0001:00003980       ?getPtrs@PtrTable@Cm@physx@@QEBAPEBQEAXXZ 0000000180004980 f i CmPtrTable.obj
 0001:00003990       ?importExtraData@PtrTable@Cm@physx@@QEAAXAEAVPxDeserializationContext@3@@Z 0000000180004990 f   CmPtrTable.obj
 0001:000039c0       ?realloc@PtrTable@Cm@physx@@AEAAXIIAEAVPtrTableStorageManager@23@@Z 00000001800049c0 f   CmPtrTable.obj
 0001:00003a50       ?replaceWithLast@PtrTable@Cm@physx@@QEAAXIAEAVPtrTableStorageManager@23@@Z 0000000180004a50 f   CmPtrTable.obj
 0001:00003b50       ??_ECollection@Cm@physx@@UEAAPEAXI@Z 0000000180004b50 f i CmCollection.obj
 0001:00003b50       ??_GCollection@Cm@physx@@UEAAPEAXI@Z 0000000180004b50 f i CmCollection.obj
 0001:00003c00       ??_EPxCollection@physx@@MEAAPEAXI@Z 0000000180004c00 f i CmCollection.obj
 0001:00003c00       ??_GPxCollection@physx@@MEAAPEAXI@Z 0000000180004c00 f i CmCollection.obj
 0001:00003c30       ?add@Collection@Cm@physx@@UEAAXAEAVPxBase@3@_K@Z 0000000180004c30 f   CmCollection.obj
 0001:00003d20       ?add@Collection@Cm@physx@@UEAAXAEAVPxCollection@3@@Z 0000000180004d20 f   CmCollection.obj
 0001:00003ec0       ?addId@Collection@Cm@physx@@UEAAXAEAVPxBase@3@_K@Z 0000000180004ec0 f   CmCollection.obj
 0001:00003ff0       ?contains@Collection@Cm@physx@@UEBA_NAEAVPxBase@3@@Z 0000000180004ff0 f   CmCollection.obj
 0001:000040a0       ?create@?$PxHashBase@V?$PxPair@$$CB_KPEAVPxBase@physx@@@physx@@_KU?$PxHash@_K@2@UGetKey@?$PxHashMapBase@_KPEAVPxBase@physx@@U?$PxHash@_K@2@VPxAllocator@2@@2@VPxAllocator@2@$00@physx@@QEAAPEAV?$PxPair@$$CB_KPEAVPxBase@physx@@@2@AEB_KAEA_N@Z 00000001800050a0 f i CmCollection.obj
 0001:000040a0       ?create@?$PxHashBase@V?$PxPair@QEAVPxBase@physx@@_K@physx@@PEAVPxBase@2@U?$PxHash@PEAVPxBase@physx@@@2@UGetKey@?$PxHashMapBase@PEAVPxBase@physx@@_KU?$PxHash@PEAVPxBase@physx@@@2@VPxAllocator@2@@2@VPxAllocator@2@$00@physx@@QEAAPEAV?$PxPair@QEAVPxBase@physx@@_K@2@AEBQEAVPxBase@2@AEA_N@Z 00000001800050a0 f i CmCollection.obj
 0001:00004230       ?erase@?$PxHashBase@V?$PxPair@$$CB_KPEAVPxBase@physx@@@physx@@_KU?$PxHash@_K@2@UGetKey@?$PxHashMapBase@_KPEAVPxBase@physx@@U?$PxHash@_K@2@VPxAllocator@2@@2@VPxAllocator@2@$00@physx@@QEAA_NAEB_K@Z 0000000180005230 f i CmCollection.obj
 0001:00004230       ?erase@?$PxHashBase@V?$PxPair@QEAVPxBase@physx@@_K@physx@@PEAVPxBase@2@U?$PxHash@PEAVPxBase@physx@@@2@UGetKey@?$PxHashMapBase@PEAVPxBase@physx@@_KU?$PxHash@PEAVPxBase@physx@@@2@VPxAllocator@2@@2@VPxAllocator@2@$00@physx@@QEAA_NAEBQEAVPxBase@2@@Z 0000000180005230 f i CmCollection.obj
 0001:000043e0       ?find@?$PxHashMapBase@_KPEAVPxBase@physx@@U?$PxHash@_K@2@VPxAllocator@2@@physx@@QEBAPEBV?$PxPair@$$CB_KPEAVPxBase@physx@@@2@AEB_K@Z 00000001800053e0 f i CmCollection.obj
 0001:00004480       ?find@Collection@Cm@physx@@UEBAPEAVPxBase@3@_K@Z 0000000180005480 f   CmCollection.obj
 0001:000044b0       ?getId@Collection@Cm@physx@@UEBA_KAEBVPxBase@3@@Z 00000001800054b0 f   CmCollection.obj
 0001:00004560       ?getIds@Collection@Cm@physx@@UEBAIPEA_KII@Z 0000000180005560 f   CmCollection.obj
 0001:00004630       ?getNbIds@Collection@Cm@physx@@UEBAIXZ 0000000180005630 f   CmCollection.obj
 0001:00004640       ?getNbObjects@Collection@Cm@physx@@UEBAIXZ 0000000180005640 f   CmCollection.obj
 0001:00004650       ?getObject@Collection@Cm@physx@@UEBAAEAVPxBase@3@I@Z 0000000180005650 f   CmCollection.obj
 0001:00004660       ?getObjects@Collection@Cm@physx@@UEBAIPEAPEAVPxBase@3@II@Z 0000000180005660 f   CmCollection.obj
 0001:000046a0       ?release@Collection@Cm@physx@@UEAAXXZ 00000001800056a0 f i CmCollection.obj
 0001:000046c0       ?remove@Collection@Cm@physx@@UEAAXAEAVPxBase@3@@Z 00000001800056c0 f   CmCollection.obj
 0001:000047b0       ?remove@Collection@Cm@physx@@UEAAXAEAVPxCollection@3@@Z 00000001800057b0 f   CmCollection.obj
 0001:000048c0       ?removeId@Collection@Cm@physx@@UEAAX_K@Z 00000001800058c0 f   CmCollection.obj
 0001:00004940       ?reserveInternal@?$PxHashBase@V?$PxPair@$$CB_KPEAVPxBase@physx@@@physx@@_KU?$PxHash@_K@2@UGetKey@?$PxHashMapBase@_KPEAVPxBase@physx@@U?$PxHash@_K@2@VPxAllocator@2@@2@VPxAllocator@2@$00@physx@@AEAAXI@Z 0000000180005940 f i CmCollection.obj
 0001:00004940       ?reserveInternal@?$PxHashBase@V?$PxPair@QEAVPxBase@physx@@_K@physx@@PEAVPxBase@2@U?$PxHash@PEAVPxBase@physx@@@2@UGetKey@?$PxHashMapBase@PEAVPxBase@physx@@_KU?$PxHash@PEAVPxBase@physx@@@2@VPxAllocator@2@@2@VPxAllocator@2@$00@physx@@AEAAXI@Z 0000000180005940 f i CmCollection.obj
 0001:00004b20       PxCreateCollection         0000000180005b20 f   CmCollection.obj
 0001:00004c10       ??0RadixSort@Cm@physx@@QEAA@XZ 0000000180005c10 f   CmRadixSort.obj
 0001:00004c40       ??0RadixSortBuffered@Cm@physx@@QEAA@XZ 0000000180005c40 f   CmRadixSort.obj
 0001:00004c70       ??1RadixSort@Cm@physx@@UEAA@XZ 0000000180005c70 f   CmRadixSort.obj
 0001:00004c80       ??1RadixSortBuffered@Cm@physx@@UEAA@XZ 0000000180005c80 f   CmRadixSort.obj
 0001:00004cb0       ??_ERadixSort@Cm@physx@@UEAAPEAXI@Z 0000000180005cb0 f i CmRadixSort.obj
 0001:00004d40       ??_ERadixSortBuffered@Cm@physx@@UEAAPEAXI@Z 0000000180005d40 f i CmRadixSort.obj
 0001:00004e30       ?CheckResize@RadixSortBuffered@Cm@physx@@AEAAXI@Z 0000000180005e30 f i CmRadixSort.obj
 0001:00004e70       ?GetNbHits@RadixSort@Cm@physx@@QEBAIXZ 0000000180005e70 f i CmRadixSort.obj
 0001:00004e80       ?GetNbTotalCalls@RadixSort@Cm@physx@@QEBAIXZ 0000000180005e80 f i CmRadixSort.obj
 0001:00004e90       ?GetRanks@RadixSort@Cm@physx@@QEBAPEBIXZ 0000000180005e90 f i CmRadixSort.obj
 0001:00004e90       ?getGridModelInvMass@SoftBodyAuxData@Gu@physx@@UEAAPEAMXZ 0000000180005e90 f i GuTetrahedronMesh.obj
 0001:00004e90       ?getHeightField@HeightFieldUtil@Gu@physx@@QEBAAEBVHeightField@23@XZ 0000000180005e90 f i GuCCTSweepTests.obj
 0001:00004e90       ?getSimulationMesh@SoftBodyMesh@Gu@physx@@UEAAPEAVPxTetrahedronMesh@3@XZ 0000000180005e90 f i GuTetrahedronMesh.obj
 0001:00004e90       ?getSimulationMesh@SoftBodyMesh@Gu@physx@@UEBAPEBVPxTetrahedronMesh@3@XZ 0000000180005e90 f i GuTetrahedronMesh.obj
 0001:00004ea0       ?GetRecyclable@RadixSort@Cm@physx@@QEBAPEAIXZ 0000000180005ea0 f i CmRadixSort.obj
 0001:00004ea0       ?GetValencies@BigConvexData@physx@@QEBAPEBUValency@Gu@2@XZ 0000000180005ea0 f i GuMetaData.obj
 0001:00004ea0       ?getCollisionMesh@SoftBodyMesh@Gu@physx@@UEAAPEAVPxTetrahedronMesh@3@XZ 0000000180005ea0 f i GuTetrahedronMesh.obj
 0001:00004ea0       ?getCollisionMesh@SoftBodyMesh@Gu@physx@@UEBAPEBVPxTetrahedronMesh@3@XZ 0000000180005ea0 f i GuTetrahedronMesh.obj
 0001:00004ea0       ?getHeightFieldGeometry@HeightFieldUtil@Gu@physx@@QEBAAEBVPxHeightFieldGeometry@3@XZ 0000000180005ea0 f i GuCCTSweepTests.obj
 0001:00004ea0       ?getObjects@PruningPool@Gu@physx@@QEBAPEAUPrunerPayload@23@XZ 0000000180005ea0 f i GuIncrementalAABBPrunerCore.obj
 0001:00004ea0       ?getPos@AABBTreeBuildNode@Gu@physx@@QEBAPEBV123@XZ 0000000180005ea0 f i GuMeshFactory.obj
 0001:00004ea0       ?getVertices@TetrahedronMesh@Gu@physx@@UEBAPEBV?$PxVec3T@M@3@XZ 0000000180005ea0 f i GuTetrahedronMesh.obj
 0001:00004ea0       ?getVertices@TriangleMesh@Gu@physx@@UEBAPEBV?$PxVec3T@M@3@XZ 0000000180005ea0 f i GuTriangleMesh.obj
 0001:00004eb0       ?Resize@RadixSortBuffered@Cm@physx@@AEAA_NI@Z 0000000180005eb0 f   CmRadixSort.obj
 0001:00004fb0       ?SetBuffers@RadixSort@Cm@physx@@QEAA_NPEAI00PEAPEAI@Z 0000000180005fb0 f   CmRadixSort.obj
 0001:00004ff0       ?Sort@RadixSort@Cm@physx@@QEAAAEAV123@PEBIIW4RadixHint@23@@Z 0000000180005ff0 f   CmRadixSort.obj
 0001:000056a0       ?Sort@RadixSort@Cm@physx@@QEAAAEAV123@PEBMI@Z 00000001800066a0 f   CmRadixSort.obj
 0001:00005e40       ?Sort@RadixSortBuffered@Cm@physx@@QEAAAEAV123@PEBIIW4RadixHint@23@@Z 0000000180006e40 f   CmRadixSort.obj
 0001:00005ee0       ?Sort@RadixSortBuffered@Cm@physx@@QEAAAEAV123@PEBMI@Z 0000000180006ee0 f   CmRadixSort.obj
 0001:00005f70       ?invalidateRanks@RadixSort@Cm@physx@@QEAAXXZ 0000000180006f70 f i CmRadixSort.obj
 0001:00005f80       ?reset@RadixSortBuffered@Cm@physx@@QEAAXXZ 0000000180006f80 f   CmRadixSort.obj
 0001:00006000       ?ReadHeader@Cm@physx@@YA_NEEEEAEAIAEA_NAEAVPxInputStream@2@@Z 0000000180007000 f   CmSerialize.obj
 0001:00006160       ?ReadIndices@Cm@physx@@YAXGIPEAGAEAVPxInputStream@2@_N@Z 0000000180007160 f   CmSerialize.obj
 0001:000062f0       ?StoreIndices@Cm@physx@@YAXGIPEBGAEAVPxOutputStream@2@_N@Z 00000001800072f0 f   CmSerialize.obj
 0001:000063e0       ?WriteHeader@Cm@physx@@YA_NEEEEI_NAEAVPxOutputStream@2@@Z 00000001800073e0 f   CmSerialize.obj
 0001:00006510       ?computeMaxIndex@physx@@YAGPEBGI@Z 0000000180007510 f   CmSerialize.obj
 0001:00006540       ?computeMaxIndex@physx@@YAIPEBII@Z 0000000180007540 f   CmSerialize.obj
 0001:00006570       ?readByteBuffer@physx@@YAXPEAEIAEAVPxInputStream@1@@Z 0000000180007570 f   CmSerialize.obj
 0001:00006570       ?writeByteBuffer@physx@@YAXPEBEIAEAVPxOutputStream@1@@Z 0000000180007570 f   CmSerialize.obj
 0001:00006590       ?readChunk@physx@@YAXAEAC000AEAVPxInputStream@1@@Z 0000000180007590 f   CmSerialize.obj
 0001:00006610       ?readDword@physx@@YAI_NAEAVPxInputStream@1@@Z 0000000180007610 f   CmSerialize.obj
 0001:00006670       ?readFloat@physx@@YAM_NAEAVPxInputStream@1@@Z 0000000180007670 f   CmSerialize.obj
 0001:000066d0       ?readFloatBuffer@physx@@YA_NPEAMI_NAEAVPxInputStream@1@@Z 00000001800076d0 f   CmSerialize.obj
 0001:00006750       ?readHeader@physx@@YA_NCCCCAEAIAEA_NAEAVPxInputStream@1@@Z 0000000180007750 f   CmSerialize.obj
 0001:000068a0       ?readIndices@physx@@YAXIIPEAIAEAVPxInputStream@1@_N@Z 00000001800078a0 f   CmSerialize.obj
 0001:000069d0       ?readWord@physx@@YAG_NAEAVPxInputStream@1@@Z 00000001800079d0 f   CmSerialize.obj
 0001:00006a10       ?readWordBuffer@physx@@YAXPEAGI_NAEAVPxInputStream@1@@Z 0000000180007a10 f   CmSerialize.obj
 0001:00006a80       ?storeIndices@physx@@YAXIIPEBIAEAVPxOutputStream@1@_N@Z 0000000180007a80 f   CmSerialize.obj
 0001:00006c10       ?writeDword@physx@@YAXI_NAEAVPxOutputStream@1@@Z 0000000180007c10 f   CmSerialize.obj
 0001:00006c60       ?writeFloat@physx@@YAXM_NAEAVPxOutputStream@1@@Z 0000000180007c60 f   CmSerialize.obj
 0001:00006cb0       ?writeFloatBuffer@physx@@YAXPEBMI_NAEAVPxOutputStream@1@@Z 0000000180007cb0 f   CmSerialize.obj
 0001:00006d50       ?writeHeader@physx@@YA_NCCCCI_NAEAVPxOutputStream@1@@Z 0000000180007d50 f   CmSerialize.obj
 0001:00006e80       ?writeWord@physx@@YAXG_NAEAVPxOutputStream@1@@Z 0000000180007e80 f   CmSerialize.obj
 0001:00006ec0       ?writeWordBuffer@physx@@YAXPEBGI_NAEAVPxOutputStream@1@@Z 0000000180007ec0 f   CmSerialize.obj
 0001:00006f40       ??6PxRenderOutput@physx@@QEAAAEAV01@AEBV?$PxTransformT@M@1@@Z 0000000180007f40 f i CmVisualization.obj
 0001:000070c0       ??6PxRenderOutput@physx@@QEAAAEAV01@AEBV?$PxVec3T@M@1@@Z 00000001800080c0 f i CmVisualization.obj
 0001:000073b0       ?renderOutputDebugArrow@Cm@physx@@YAXAEAVPxRenderOutput@2@AEBUPxDebugArrow@2@@Z 00000001800083b0 f   CmVisualization.obj
 0001:00007750       ?renderOutputDebugBasis@Cm@physx@@YAXAEAVPxRenderOutput@2@AEBUPxDebugBasis@2@@Z 0000000180008750 f   CmVisualization.obj
 0001:00007ce0       ?renderOutputDebugBox@Cm@physx@@YAXAEAVPxRenderOutput@2@AEBVPxBounds3@2@@Z 0000000180008ce0 f   CmVisualization.obj
 0001:00007f50       ?renderOutputDebugCircle@Cm@physx@@YAXAEAVPxRenderOutput@2@IM@Z 0000000180008f50 f   CmVisualization.obj
 0001:00008030       ?visualizeAngularLimit@Cm@physx@@YAXAEAVPxRenderOutput@2@MAEBV?$PxTransformT@M@2@MM@Z 0000000180009030 f   CmVisualization.obj
 0001:000081c0       ?visualizeDoubleCone@Cm@physx@@YAXAEAVPxRenderOutput@2@MAEBV?$PxTransformT@M@2@M@Z 00000001800091c0 f   CmVisualization.obj
 0001:000083e0       ?visualizeJointFrames@Cm@physx@@YAXAEAVPxRenderOutput@2@MAEBV?$PxTransformT@M@2@1@Z 00000001800093e0 f   CmVisualization.obj
 0001:00008ee0       ?visualizeLimitCone@Cm@physx@@YAXAEAVPxRenderOutput@2@MAEBV?$PxTransformT@M@2@MM@Z 0000000180009ee0 f   CmVisualization.obj
 0001:00009110       ?visualizeLinearLimit@Cm@physx@@YAXAEAVPxRenderOutput@2@MAEBV?$PxTransformT@M@2@1M@Z 000000018000a110 f   CmVisualization.obj
 0001:00009700       ??0CmModuleUpdateLoader@Cm@physx@@QEAA@PEBD@Z 000000018000a700 f   CmWindowsModuleUpdateLoader.obj
 0001:00009740       ??1CmModuleUpdateLoader@Cm@physx@@QEAA@XZ 000000018000a740 f   CmWindowsModuleUpdateLoader.obj
 0001:00009770       ?LoadModule@CmModuleUpdateLoader@Cm@physx@@QEAAPEAUHINSTANCE__@@PEBD0@Z 000000018000a770 f   CmWindowsModuleUpdateLoader.obj
 0001:000097e0       __local_stdio_printf_options 000000018000a7e0 f i CmWindowsModuleUpdateLoader.obj
 0001:000097f0       printf                     000000018000a7f0 f i CmWindowsModuleUpdateLoader.obj
 0001:00009850       ?commonDelayHook@@YAP6A_JXZIPEAUDelayLoadInfo@@@Z 000000018000a850 f   CmWindowsDelayLoadHook.obj
 0001:00009930       PxSetPhysXCommonDelayLoadHook 000000018000a930 f   CmWindowsDelayLoadHook.obj
 0001:00009940       ??0?$PxQuatT@M@physx@@QEAA@AEBV?$PxMat33T@M@1@@Z 000000018000a940 f i GuBox.obj
 0001:00009b40       ??0Box@Gu@physx@@QEAA@AEBV012@@Z 000000018000ab40 f i GuBox.obj
 0001:00009b40       ??4Box@Gu@physx@@QEAAAEBV012@AEBV012@@Z 000000018000ab40 f i GuBox.obj
 0001:00009ba0       ??0Box@Gu@physx@@QEAA@AEBV?$PxVec3T@M@2@0AEBV?$PxMat33T@M@2@@Z 000000018000aba0 f i GuBox.obj
 0001:00009c10       ??0AABBTreeBuildNode@Gu@physx@@QEAA@XZ 000000018000ac10 f i GuMeshFactory.obj
 0001:00009c10       ??0BigConvexData@physx@@QEAA@W4PxEMPTY@1@@Z 000000018000ac10 f i GuMetaData.obj
 0001:00009c10       ??0Box@Gu@physx@@QEAA@XZ   000000018000ac10 f i GuBox.obj
 0001:00009c10       ??0HeightFieldData@Gu@physx@@QEAA@W4PxEMPTY@2@@Z 000000018000ac10 f i GuCCTSweepTests.obj
 0001:00009c10       ?getAABB@AABBTreeBuildNode@Gu@physx@@QEBAAEBVPxBounds3@3@XZ 000000018000ac10 f i GuMeshFactory.obj
 0001:00009c10       ?getPaddedBounds@HeightFieldData@Gu@physx@@QEBAAEBVCenterExtentsPadded@23@XZ 000000018000ac10 f i GuCCTSweepTests.obj
 0001:00009c20       ?computeAABBExtent@Box@Gu@physx@@QEBA?AV?$PxVec3T@M@3@XZ 000000018000ac20 f i GuBox.obj
 0001:00009ce0       ?computeBoxPoints@Box@Gu@physx@@QEBAXPEIAV?$PxVec3T@M@3@@Z 000000018000ace0 f i GuBox.obj
 0001:00009d20       ?computeOBBPoints@Gu@physx@@YAXPEIAV?$PxVec3T@M@2@AEBV32@1111@Z 000000018000ad20 f   GuBox.obj
 0001:00009fa0       ?create@Box@Gu@physx@@QEAAXAEBVCapsule@23@@Z 000000018000afa0 f   GuBox.obj
 0001:0000a1d0       ?getBoxEdges@Gu@physx@@YAPEBEXZ 000000018000b1d0 f   GuBox.obj
 0001:0000a1e0       ?getTransform@Box@Gu@physx@@QEBA?AV?$PxTransformT@M@3@XZ 000000018000b1e0 f i GuBox.obj
 0001:0000a240       ?isValid@Box@Gu@physx@@QEBA_NXZ 000000018000b240 f i GuBox.obj
 0001:0000a260       ?rotate@Box@Gu@physx@@QEBA?AV?$PxVec3T@M@3@AEBV43@@Z 000000018000b260 f i GuBox.obj
 0001:0000a2f0       ?rotateInv@Box@Gu@physx@@QEBA?AV?$PxVec3T@M@3@AEBV43@@Z 000000018000b2f0 f i GuBox.obj
 0001:0000a380       ?setAxes@Box@Gu@physx@@QEAAXAEBV?$PxVec3T@M@3@00@Z 000000018000b380 f i GuBox.obj
 0001:0000a3c0       ?setEmpty@Box@Gu@physx@@QEAAXXZ 000000018000b3c0 f i GuBox.obj
 0001:0000a400       ?transform@Box@Gu@physx@@QEBA?AV?$PxVec3T@M@3@AEBV43@@Z 000000018000b400 f i GuBox.obj
 0001:0000a4a0       ?PxComputeBasisVectors@physx@@YAXAEBV?$PxVec3T@M@1@0AEAV21@11@Z 000000018000b4a0 f i GuCapsule.obj
 0001:0000a640       ?computeBoxAroundCapsule@Gu@physx@@YAXAEBVCapsule@12@AEAVBox@12@@Z 000000018000b640 f   GuCapsule.obj
 0001:0000a790       ??0HeightFieldData@Gu@physx@@QEAA@$$QEAU012@@Z 000000018000b790 f i GuCCTSweepTests.obj
 0001:0000a790       ??0HeightFieldData@Gu@physx@@QEAA@AEBU012@@Z 000000018000b790 f i GuCCTSweepTests.obj
 0001:0000a790       ??4HeightFieldData@Gu@physx@@QEAAAEAU012@$$QEAU012@@Z 000000018000b790 f i GuCCTSweepTests.obj
 0001:0000a790       ??4HeightFieldData@Gu@physx@@QEAAAEAU012@AEBU012@@Z 000000018000b790 f i GuCCTSweepTests.obj
 0001:0000a7f0       ??0HeightFieldData@Gu@physx@@QEAA@XZ 000000018000b7f0 f i GuCCTSweepTests.obj
 0001:0000a800       ??0HeightFieldTraceUtil@Gu@physx@@QEAA@AEBVPxHeightFieldGeometry@2@@Z 000000018000b800 f i GuCCTSweepTests.obj
 0001:0000a800       ??0HeightFieldUtil@Gu@physx@@QEAA@AEBVPxHeightFieldGeometry@2@@Z 000000018000b800 f i GuCCTSweepTests.obj
 0001:0000a840       ??4AABBTreeBuildParams@Gu@physx@@QEAAAEAV012@AEBV012@@Z 000000018000b840 f i GuMeshFactory.obj
 0001:0000a840       ??4HeightFieldTraceUtil@Gu@physx@@QEAAAEAV012@$$QEAV012@@Z 000000018000b840 f i GuCCTSweepTests.obj
 0001:0000a840       ??4HeightFieldTraceUtil@Gu@physx@@QEAAAEAV012@AEBV012@@Z 000000018000b840 f i GuCCTSweepTests.obj
 0001:0000a840       ??4HeightFieldUtil@Gu@physx@@QEAAAEAV012@AEBV012@@Z 000000018000b840 f i GuCCTSweepTests.obj
 0001:0000a860       ??4HeightFieldUtil@Gu@physx@@QEAAAEAV012@$$QEAV012@@Z 000000018000b860 f i GuCCTSweepTests.obj
 0001:0000a8c0       ??_EEntityReport@Gu@physx@@UEAAPEAXI@Z 000000018000b8c0 f i GuSweepsHF.obj
 0001:0000a8c0       ??_EOverlapCallback@PxBVH@physx@@UEAAPEAXI@Z 000000018000b8c0 f i GuQuerySystem.obj
 0001:0000a8c0       ??_EOverlapReport@Gu@physx@@UEAAPEAXI@Z 000000018000b8c0 f i GuCCTSweepTests.obj
 0001:0000a8c0       ??_ERaycastCallback@PxBVH@physx@@UEAAPEAXI@Z 000000018000b8c0 f i GuQuerySystem.obj
 0001:0000a8c0       ??_ERemapCallback@RTreeCooker@physx@@UEAAPEAXI@Z 000000018000b8c0 f i GuCookingTriangleMesh.obj
 0001:0000a8c0       ??_GEntityReport@Gu@physx@@UEAAPEAXI@Z 000000018000b8c0 f i GuSweepsHF.obj
 0001:0000a8c0       ??_GOverlapCallback@PxBVH@physx@@UEAAPEAXI@Z 000000018000b8c0 f i GuQuerySystem.obj
 0001:0000a8c0       ??_GOverlapReport@Gu@physx@@UEAAPEAXI@Z 000000018000b8c0 f i GuCCTSweepTests.obj
 0001:0000a8c0       ??_GRaycastCallback@PxBVH@physx@@UEAAPEAXI@Z 000000018000b8c0 f i GuQuerySystem.obj
 0001:0000a8c0       ??_GRemapCallback@RTreeCooker@physx@@UEAAPEAXI@Z 000000018000b8c0 f i GuCookingTriangleMesh.obj
 0001:0000a8f0       ??_H@YAXPEAX_K1P6APEAX0@Z@Z 000000018000b8f0 f i GuCCTSweepTests.obj
 0001:0000a940       ?ceilUp@HeightFieldTraceUtil@Gu@physx@@SAMM@Z 000000018000b940 f i GuCCTSweepTests.obj
 0001:0000a980       ?floorDown@HeightFieldTraceUtil@Gu@physx@@SAMM@Z 000000018000b980 f i GuCCTSweepTests.obj
 0001:0000a9c0       ?getHeightAtShapePoint@HeightFieldUtil@Gu@physx@@QEBAMMM@Z 000000018000b9c0 f i GuCCTSweepTests.obj
 0001:0000aa20       ?getHeightInternal2@HeightField@Gu@physx@@QEBAMIMM@Z 000000018000ba20 f i GuCCTSweepTests.obj
 0001:0000ab90       ?getNormalAtShapePoint@HeightFieldUtil@Gu@physx@@QEBA?AV?$PxVec3T@M@3@MM@Z 000000018000bb90 f i GuCCTSweepTests.obj
 0001:0000ac50       ?getNormal_2@HeightField@Gu@physx@@QEBA?AV?$PxVec3T@M@3@IMMMMM@Z 000000018000bc50 f i GuCCTSweepTests.obj
 0001:0000ad70       ?getOneOverColumnScale@HeightFieldUtil@Gu@physx@@QEBAMXZ 000000018000bd70 f i GuCCTSweepTests.obj
 0001:0000ad80       ?getOneOverHeightScale@HeightFieldUtil@Gu@physx@@QEBAMXZ 000000018000bd80 f i GuCCTSweepTests.obj
 0001:0000ad90       ?getOneOverRowScale@HeightFieldUtil@Gu@physx@@QEBAMXZ 000000018000bd90 f i GuCCTSweepTests.obj
 0001:0000ada0       ?hf2shapen@HeightFieldUtil@Gu@physx@@QEBA?AV?$PxVec3T@M@3@AEBV43@@Z 000000018000bda0 f i GuCCTSweepTests.obj
 0001:0000ada0       ?shape2hfp@HeightFieldUtil@Gu@physx@@QEBA?AV?$PxVec3T@M@3@AEBV43@@Z 000000018000bda0 f i GuCCTSweepTests.obj
 0001:0000ade0       ?hf2shapep@HeightFieldUtil@Gu@physx@@QEBA?AV?$PxVec3T@M@3@AEBV43@@Z 000000018000bde0 f i GuCCTSweepTests.obj
 0001:0000ae20       ?hf2worldn@HeightFieldUtil@Gu@physx@@QEBA?AV?$PxVec3T@M@3@AEBV?$PxTransformT@M@3@AEBV43@@Z 000000018000be20 f i GuCCTSweepTests.obj
 0001:0000af90       ?hf2worldp@HeightFieldUtil@Gu@physx@@QEBA?AV?$PxVec3T@M@3@AEBV?$PxTransformT@M@3@AEBV43@@Z 000000018000bf90 f i GuCCTSweepTests.obj
 0001:0000b110       ?overlapAABBTriangles0to1@HeightFieldUtil@Gu@physx@@QEBAXAEBV?$PxTransformT@M@3@AEBVPxBounds3@3@AEAVOverlapReport@23@I@Z 000000018000c110 f i GuCCTSweepTests.obj
 0001:0000b4b0       ?overlapAABBTriangles@HeightFieldUtil@Gu@physx@@QEBAXAEBV?$PxTransformT@M@3@0AEBVPxBounds3@3@AEAVOverlapReport@23@I@Z 000000018000c4b0 f i GuCCTSweepTests.obj
 0001:0000bad0       ?overlapAABBTriangles@HeightFieldUtil@Gu@physx@@QEBAXAEBV?$PxTransformT@M@3@AEBVPxBounds3@3@AEAVOverlapReport@23@I@Z 000000018000cad0 f i GuCCTSweepTests.obj
 0001:0000c1b0       ?sweepBoxTriangles_Precise@Gu@physx@@YA_NIPEBVPxTriangle@2@_NAEBVPxBoxGeometry@2@AEBV?$PxTransformT@M@2@AEBV?$PxVec3T@M@2@MAEAUPxGeomSweepHit@2@PEBIMV?$PxFlags@W4Enum@PxHitFlag@physx@@G@2@@Z 000000018000d1b0 f   GuCCTSweepTests.obj
 0001:0000cf30       ?sweepBox_BoxGeom_Precise@@YA_NAEBVPxGeometry@physx@@AEBV?$PxTransformT@M@2@AEBVPxBoxGeometry@2@1AEBVBox@Gu@2@AEBV?$PxVec3T@M@2@MAEAUPxGeomSweepHit@2@V?$PxFlags@W4Enum@PxHitFlag@physx@@G@2@MPEAUPxQueryThreadContext@2@@Z 000000018000df30 f   GuCCTSweepTests.obj
 0001:0000d0f0       ?sweepBox_CapsuleGeom_Precise@@YA_NAEBVPxGeometry@physx@@AEBV?$PxTransformT@M@2@AEBVPxBoxGeometry@2@1AEBVBox@Gu@2@AEBV?$PxVec3T@M@2@MAEAUPxGeomSweepHit@2@V?$PxFlags@W4Enum@PxHitFlag@physx@@G@2@MPEAUPxQueryThreadContext@2@@Z 000000018000e0f0 f   GuCCTSweepTests.obj
 0001:0000d4c0       ?sweepBox_HeightFieldGeom_Precise@@YA_NAEBVPxGeometry@physx@@AEBV?$PxTransformT@M@2@AEBVPxBoxGeometry@2@1AEBVBox@Gu@2@AEBV?$PxVec3T@M@2@MAEAUPxGeomSweepHit@2@V?$PxFlags@W4Enum@PxHitFlag@physx@@G@2@MPEAUPxQueryThreadContext@2@@Z 000000018000e4c0 f   GuCCTSweepTests.obj
 0001:0000dce0       ?sweepBox_SphereGeom_Precise@@YA_NAEBVPxGeometry@physx@@AEBV?$PxTransformT@M@2@AEBVPxBoxGeometry@2@1AEBVBox@Gu@2@AEBV?$PxVec3T@M@2@MAEAUPxGeomSweepHit@2@V?$PxFlags@W4Enum@PxHitFlag@physx@@G@2@MPEAUPxQueryThreadContext@2@@Z 000000018000ece0 f   GuCCTSweepTests.obj
 0001:0000dfc0       ?sweepCapsule_BoxGeom_Precise@@YA_NAEBVPxGeometry@physx@@AEBV?$PxTransformT@M@2@AEBVPxCapsuleGeometry@2@1AEBVCapsule@Gu@2@AEBV?$PxVec3T@M@2@MAEAUPxGeomSweepHit@2@V?$PxFlags@W4Enum@PxHitFlag@physx@@G@2@MPEAUPxQueryThreadContext@2@@Z 000000018000efc0 f   GuCCTSweepTests.obj
 0001:0000e650       ??0?$CacheMap@UCachedEdge@Gu@physx@@$0IA@@Gu@physx@@QEAA@XZ 000000018000f650 f i GuGeometryQuery.obj
 0001:0000e710       ??0?$CacheMap@UCachedVertex@Gu@physx@@$0IA@@Gu@physx@@QEAA@XZ 000000018000f710 f i GuGeometryQuery.obj
 0001:0000e7d0       ??0MultiplePersistentContactManifold@Gu@physx@@QEAA@XZ 000000018000f7d0 f i GuGeometryQuery.obj
 0001:0000e830       ??0PCMMeshContactGeneration@Gu@physx@@QEAA@AEBT__m128@@0AEBVPxTransformV@aos@2@1AEAVMultiplePersistentContactManifold@12@AEAVPxContactBuffer@2@PEAV?$PxInlineArray@I$0DMA@V?$PxReflectionAllocator@I@physx@@@2@PEAVPxRenderOutput@2@@Z 000000018000f830 f i GuGeometryQuery.obj
 0001:0000f160       ??0PolygonalBox@Gu@physx@@QEAA@AEBV012@@Z 0000000180010160 f i GuGeometryQuery.obj
 0001:0000f3e0       ??4MultiplePersistentContactManifold@Gu@physx@@QEAAAEAV012@$$QEAV012@@Z 00000001800103e0 f i GuGeometryQuery.obj
 0001:0000f6f0       ??4MultiplePersistentContactManifold@Gu@physx@@QEAAAEAV012@AEBV012@@Z 00000001800106f0 f i GuGeometryQuery.obj
 0001:0000f710       ??_E?$SupportLocalImpl@VBoxV@Gu@physx@@@Gu@physx@@UEAAPEAXI@Z 0000000180010710 f i GuGeometryQuery.obj
 0001:0000f710       ??_E?$SupportLocalImpl@VConvexHullNoScaleV@Gu@physx@@@Gu@physx@@UEAAPEAXI@Z 0000000180010710 f i GuMTD.obj
 0001:0000f710       ??_E?$SupportLocalImpl@VConvexHullV@Gu@physx@@@Gu@physx@@UEAAPEAXI@Z 0000000180010710 f i GuGeometryQuery.obj
 0001:0000f710       ??_E?$SupportLocalImpl@VTriangleV@Gu@physx@@@Gu@physx@@UEAAPEAXI@Z 0000000180010710 f i GuPCMContactConvexCommon.obj
 0001:0000f710       ??_G?$SupportLocalImpl@VBoxV@Gu@physx@@@Gu@physx@@UEAAPEAXI@Z 0000000180010710 f i GuGeometryQuery.obj
 0001:0000f710       ??_G?$SupportLocalImpl@VConvexHullNoScaleV@Gu@physx@@@Gu@physx@@UEAAPEAXI@Z 0000000180010710 f i GuMTD.obj
 0001:0000f710       ??_G?$SupportLocalImpl@VConvexHullV@Gu@physx@@@Gu@physx@@UEAAPEAXI@Z 0000000180010710 f i GuGeometryQuery.obj
 0001:0000f710       ??_G?$SupportLocalImpl@VTriangleV@Gu@physx@@@Gu@physx@@UEAAPEAXI@Z 0000000180010710 f i GuPCMContactConvexCommon.obj
 0001:0000f740       ??_ESupportLocal@Gu@physx@@UEAAPEAXI@Z 0000000180010740 f i GuGeometryQuery.obj
 0001:0000f740       ??_GSupportLocal@Gu@physx@@UEAAPEAXI@Z 0000000180010740 f i GuGeometryQuery.obj
 0001:0000f770       ?clearManifold@MultiplePersistentContactManifold@Gu@physx@@QEAAXXZ 0000000180010770 f i GuGeometryQuery.obj
 0001:0000f7d0       ?computeGeomBounds@PxGeometryQuery@physx@@SAXAEAVPxBounds3@2@AEBVPxGeometry@2@AEBV?$PxTransformT@M@2@MMV?$PxFlags@W4Enum@PxGeometryQueryFlag@physx@@I@2@@Z 00000001800107d0 f   GuGeometryQuery.obj
 0001:0000f850       ?computePenetration@PxGeometryQuery@physx@@SA_NAEAV?$PxVec3T@M@2@AEAMAEBVPxGeometry@2@AEBV?$PxTransformT@M@2@23V?$PxFlags@W4Enum@PxGeometryQueryFlag@physx@@I@2@@Z 0000000180010850 f   GuGeometryQuery.obj
 0001:0000f9d0       ?doSupport@?$SupportLocalImpl@VBoxV@Gu@physx@@@Gu@physx@@UEBA?AT__m128@@AEBT4@@Z 00000001800109d0 f i GuGeometryQuery.obj
 0001:0000fa00       ?doSupport@?$SupportLocalImpl@VBoxV@Gu@physx@@@Gu@physx@@UEBAXAEBT__m128@@AEAT4@1@Z 0000000180010a00 f i GuGeometryQuery.obj
 0001:0000fa50       ?doSupport@?$SupportLocalImpl@VConvexHullV@Gu@physx@@@Gu@physx@@UEBA?AT__m128@@AEBT4@@Z 0000000180010a50 f i GuGeometryQuery.obj
 0001:0000fb30       ?doSupport@?$SupportLocalImpl@VConvexHullV@Gu@physx@@@Gu@physx@@UEBAXAEBT__m128@@AEAT4@1@Z 0000000180010b30 f i GuGeometryQuery.obj
 0001:0000fe90       ?generateTriangleContacts@PxGeometryQuery@physx@@SA_NAEBVPxGeometry@2@AEBV?$PxTransformT@M@2@QEBV?$PxVec3T@M@2@IMMMAEAVPxContactBuffer@2@@Z 0000000180010e90 f   GuGeometryQuery.obj
 0001:00011830       ?getEmptyManifold@MultiplePersistentContactManifold@Gu@physx@@QEAAPEAVSinglePersistentContactManifold@23@XZ 0000000180012830 f i GuGeometryQuery.obj
 0001:00011850       ?getManifold@MultiplePersistentContactManifold@Gu@physx@@QEAAPEAVSinglePersistentContactManifold@23@I@Z 0000000180012850 f i GuGeometryQuery.obj
 0001:00011850       ?getManifold@MultiplePersistentContactManifold@Gu@physx@@QEBAPEBVSinglePersistentContactManifold@23@I@Z 0000000180012850 f i GuGeometryQuery.obj
 0001:00011870       ?getUniqueID@PxCustomGeometry@physx@@SAIXZ 0000000180012870 f   GuGeometryQuery.obj
 0001:00011890       ?hillClimbing@ConvexHullV@Gu@physx@@QEBAIAEBT__m128@@@Z 0000000180012890 f i GuGeometryQuery.obj
 0001:00011ac0       ?initialize@MultiplePersistentContactManifold@Gu@physx@@QEAAXXZ 0000000180012ac0 f i GuGeometryQuery.obj
 0001:00011b20       ?invalidate@MultiplePersistentContactManifold@Gu@physx@@QEBAIAEBVPxTransformV@aos@3@AEBT__m128@@1@Z 0000000180012b20 f i GuGeometryQuery.obj
 0001:00011b90       ?invalidate@MultiplePersistentContactManifold@Gu@physx@@QEBAIAEBVPxTransformV@aos@3@AEBT__m128@@@Z 0000000180012b90 f i GuGeometryQuery.obj
 0001:00011c00       ?isUnit@?$PxQuatT@M@physx@@QEBA_NXZ 0000000180012c00 f i GuGeometryQuery.obj
 0001:00011cc0       ?isValid@PxGeometryQuery@physx@@SA_NAEBVPxGeometry@2@@Z 0000000180012cc0 f   GuGeometryQuery.obj
 0001:00011fb0       ?maxTransformPositionDelta@MultiplePersistentContactManifold@Gu@physx@@QEBA?AT__m128@@AEBT4@@Z 0000000180012fb0 f i GuGeometryQuery.obj
 0001:00011ff0       ?maxTransformQuatDelta@MultiplePersistentContactManifold@Gu@physx@@QEBA?AT__m128@@AEBT4@@Z 0000000180012ff0 f i GuGeometryQuery.obj
 0001:00012030       ?overlap@PxGeometryQuery@physx@@SA_NAEBVPxGeometry@2@AEBV?$PxTransformT@M@2@01V?$PxFlags@W4Enum@PxGeometryQueryFlag@physx@@I@2@PEAUPxQueryThreadContext@2@@Z 0000000180013030 f   GuGeometryQuery.obj
 0001:00012100       ?pointDistance@PxGeometryQuery@physx@@SAMAEBV?$PxVec3T@M@2@AEBVPxGeometry@2@AEBV?$PxTransformT@M@2@PEAV32@PEAIV?$PxFlags@W4Enum@PxGeometryQueryFlag@physx@@I@2@@Z 0000000180013100 f   GuGeometryQuery.obj
 0001:00012890       ?populateVerts@?$SupportLocalImpl@VBoxV@Gu@physx@@@Gu@physx@@UEBAXPEBEIPEBV?$PxVec3T@M@3@PEAT__m128@@@Z 0000000180013890 f i GuGeometryQuery.obj
 0001:000128d0       ?populateVerts@?$SupportLocalImpl@VConvexHullV@Gu@physx@@@Gu@physx@@UEBAXPEBEIPEBV?$PxVec3T@M@3@PEAT__m128@@@Z 00000001800138d0 f i GuGeometryQuery.obj
 0001:00012930       ?raycast@PxGeometryQuery@physx@@SAIAEBV?$PxVec3T@M@2@0AEBVPxGeometry@2@AEBV?$PxTransformT@M@2@MV?$PxFlags@W4Enum@PxHitFlag@physx@@G@2@IPEIAUPxGeomRaycastHit@2@IV?$PxFlags@W4Enum@PxGeometryQueryFlag@physx@@I@2@PEAUPxQueryThreadContext@2@@Z 0000000180013930 f   GuGeometryQuery.obj
 0001:00012a30       ?reduceManifoldContactsInDifferentPatches@MultiplePersistentContactManifold@Gu@physx@@QEBAIPEAPEAUPCMContactPatch@23@IPEAVMeshPersistentContact@23@IAEBT__m128@@@Z 0000000180013a30 f i GuGeometryQuery.obj
 0001:00012ba0       ?refineContactPatchConnective@MultiplePersistentContactManifold@Gu@physx@@QEBAXPEAPEAUPCMContactPatch@23@IPEAVMeshPersistentContact@23@AEBT__m128@@@Z 0000000180013ba0 f i GuGeometryQuery.obj
 0001:00012c90       ?refreshManifold@MultiplePersistentContactManifold@Gu@physx@@QEAAXAEBVPxMatTransformV@aos@3@AEBT__m128@@1@Z 0000000180013c90 f i GuGeometryQuery.obj
 0001:00012d90       ?setRelativeTransform@MultiplePersistentContactManifold@Gu@physx@@QEAAXAEBVPxTransformV@aos@3@@Z 0000000180013d90 f i GuGeometryQuery.obj
 0001:00012da0       ?supportVertexIndex@ConvexHullV@Gu@physx@@QEBAIAEBT__m128@@@Z 0000000180013da0 f i GuGeometryQuery.obj
 0001:00013020       ?sweep@PxGeometryQuery@physx@@SA_NAEBV?$PxVec3T@M@2@MAEBVPxGeometry@2@AEBV?$PxTransformT@M@2@12AEAUPxGeomSweepHit@2@V?$PxFlags@W4Enum@PxHitFlag@physx@@G@2@MV?$PxFlags@W4Enum@PxGeometryQueryFlag@physx@@I@2@PEAUPxQueryThreadContext@2@@Z 0000000180014020 f   GuGeometryQuery.obj
 0001:000134b0       ?computeBoxPoints@Gu@physx@@YAXAEBVPxBounds3@2@PEIAV?$PxVec3T@M@2@@Z 00000001800144b0 f   GuInternal.obj
 0001:00013550       ?computeSweptBox@Gu@physx@@YAXAEAVBox@12@AEBV?$PxVec3T@M@2@1AEBV?$PxMat33T@M@2@1M@Z 0000000180014550 f   GuInternal.obj
 0001:00013a90       ?getPlane@Gu@physx@@YA?AVPxPlane@2@AEBV?$PxTransformT@M@2@@Z 0000000180014a90 f   GuInternal.obj
 0001:00013ee0       ??_ECallbackRaycast@RTree@Gu@physx@@UEAAPEAXI@Z 0000000180014ee0 f i GuMidphaseRTree.obj
 0001:00013ee0       ??_ECallbackRefit@RTree@Gu@physx@@UEAAPEAXI@Z 0000000180014ee0 f i GuTriangleMeshRTree.obj
 0001:00013ee0       ??_EPxInsertionCallback@physx@@MEAAPEAXI@Z 0000000180014ee0 f i GuMeshFactory.obj
 0001:00013ee0       ??_GCallbackRaycast@RTree@Gu@physx@@UEAAPEAXI@Z 0000000180014ee0 f i GuMidphaseRTree.obj
 0001:00013ee0       ??_GCallbackRefit@RTree@Gu@physx@@UEAAPEAXI@Z 0000000180014ee0 f i GuTriangleMeshRTree.obj
 0001:00013ee0       ??_GPxInsertionCallback@physx@@MEAAPEAXI@Z 0000000180014ee0 f i GuMeshFactory.obj
 0001:00013f10       ??$copy@V?$PxReflectionAllocator@USlab@NodeAllocator@Gu@physx@@@physx@@@?$PxArray@USlab@NodeAllocator@Gu@physx@@V?$PxReflectionAllocator@USlab@NodeAllocator@Gu@physx@@@4@@physx@@IEAAXAEBV01@@Z 0000000180014f10 f i GuMeshFactory.obj
 0001:00013fd0       ??0AABBTreeBounds@Gu@physx@@QEAA@XZ 0000000180014fd0 f i GuMeshFactory.obj
 0001:00013fe0       ??0AABBTreeBuildNode@Gu@physx@@QEAA@AEBV012@@Z 0000000180014fe0 f i GuMeshFactory.obj
 0001:00013fe0       ??4AABBTreeBuildNode@Gu@physx@@QEAAAEAV012@AEBV012@@Z 0000000180014fe0 f i GuMeshFactory.obj
 0001:00014020       ??0AABBTreeBuildParams@Gu@physx@@QEAA@IIPEBVAABBTreeBounds@12@W4BVHBuildStrategy@12@@Z 0000000180015020 f i GuMeshFactory.obj
 0001:00014040       ??0MeshFactory@Gu@physx@@QEAA@XZ 0000000180015040 f   GuMeshFactory.obj
 0001:00014240       ??0NodeAllocator@Gu@physx@@QEAA@AEBV012@@Z 0000000180015240 f i GuMeshFactory.obj
 0001:00014280       ??0TriangleMeshData@Gu@physx@@QEAA@XZ 0000000180015280 f i GuMeshFactory.obj
 0001:00014390       ??1AABBTreeBounds@Gu@physx@@QEAA@XZ 0000000180015390 f i GuMeshFactory.obj
 0001:000143a0       ??1AABBTreeBuildParams@Gu@physx@@QEAA@XZ 00000001800153a0 f i GuMeshFactory.obj
 0001:000143a0       ?reset@AABBTreeBuildParams@Gu@physx@@QEAAXXZ 00000001800153a0 f i GuMeshFactory.obj
 0001:000143f0       ??1CollisionMeshMappingData@Gu@physx@@UEAA@XZ 00000001800153f0 f i GuMeshFactory.obj
 0001:00014540       ??1MeshDataBase@Gu@physx@@UEAA@XZ 0000000180015540 f i GuMeshFactory.obj
 0001:00014680       ??1MeshFactory@Gu@physx@@MEAA@XZ 0000000180015680 f   GuMeshFactory.obj
 0001:000147c0       ??1RTreeTriangleData@Gu@physx@@UEAA@XZ 00000001800157c0 f i GuMeshFactory.obj
 0001:00014830       ??1SoftBodyCollisionData@Gu@physx@@UEAA@XZ 0000000180015830 f i GuMeshFactory.obj
 0001:00014970       ??1SoftBodySimulationData@Gu@physx@@UEAA@XZ 0000000180015970 f i GuMeshFactory.obj
 0001:00014a90       ??1TetrahedronMeshData@Gu@physx@@QEAA@XZ 0000000180015a90 f i GuMeshFactory.obj
 0001:00014b20       ??1TriangleMeshData@Gu@physx@@UEAA@XZ 0000000180015b20 f i GuMeshFactory.obj
 0001:00014c50       ??4NodeAllocator@Gu@physx@@QEAAAEAV012@AEBV012@@Z 0000000180015c50 f i GuMeshFactory.obj
 0001:00014d00       ??_EMeshFactory@Gu@physx@@MEAAPEAXI@Z 0000000180015d00 f i GuMeshFactory.obj
 0001:00014e20       ??_FAABBTreeBuildParams@Gu@physx@@QEAAXXZ 0000000180015e20 f i GuMeshFactory.obj
 0001:00014e40       ??_EBV4TriangleData@Gu@physx@@UEAAPEAXI@Z 0000000180015e40 f i GuMeshFactory.obj
 0001:00014e40       ??_GBV4TriangleData@Gu@physx@@UEAAPEAXI@Z 0000000180015e40 f i GuMeshFactory.obj
 0001:00014ed0       ??_ECollisionMeshMappingData@Gu@physx@@UEAAPEAXI@Z 0000000180015ed0 f i GuMeshFactory.obj
 0001:00014ed0       ??_GCollisionMeshMappingData@Gu@physx@@UEAAPEAXI@Z 0000000180015ed0 f i GuMeshFactory.obj
 0001:00014f40       ??_EMeshDataBase@Gu@physx@@UEAAPEAXI@Z 0000000180015f40 f i GuMeshFactory.obj
 0001:00014f40       ??_GMeshDataBase@Gu@physx@@UEAAPEAXI@Z 0000000180015f40 f i GuMeshFactory.obj
 0001:00014fb0       ??_EPxCollisionMeshMappingData@physx@@UEAAPEAXI@Z 0000000180015fb0 f i GuMeshFactory.obj
 0001:00014fb0       ??_GPxCollisionMeshMappingData@physx@@UEAAPEAXI@Z 0000000180015fb0 f i GuMeshFactory.obj
 0001:00015000       ??_ERTreeTriangleData@Gu@physx@@UEAAPEAXI@Z 0000000180016000 f i GuMeshFactory.obj
 0001:00015000       ??_GRTreeTriangleData@Gu@physx@@UEAAPEAXI@Z 0000000180016000 f i GuMeshFactory.obj
 0001:000150b0       ??_ESoftBodyCollisionData@Gu@physx@@UEAAPEAXI@Z 00000001800160b0 f i GuMeshFactory.obj
 0001:000150b0       ??_GSoftBodyCollisionData@Gu@physx@@UEAAPEAXI@Z 00000001800160b0 f i GuMeshFactory.obj
 0001:00015120       ??_ESoftBodySimulationData@Gu@physx@@UEAAPEAXI@Z 0000000180016120 f i GuMeshFactory.obj
 0001:00015120       ??_GSoftBodySimulationData@Gu@physx@@UEAAPEAXI@Z 0000000180016120 f i GuMeshFactory.obj
 0001:00015190       ??_ETriangleMeshData@Gu@physx@@UEAAPEAXI@Z 0000000180016190 f i GuMeshFactory.obj
 0001:00015190       ??_GTriangleMeshData@Gu@physx@@UEAAPEAXI@Z 0000000180016190 f i GuMeshFactory.obj
 0001:00015200       ??_V@YAXPEAX_K@Z           0000000180016200 f i LIBCMT:delete_array_size.obj
 0001:00015200       ?__global_delete@@YAXPEAX_K@Z 0000000180016200 f i GuMeshFactory.obj
 0001:00015210       ?addBVH@MeshFactory@Gu@physx@@QEAAXPEAVBVH@23@_N@Z 0000000180016210 f   GuMeshFactory.obj
 0001:00015290       ?addConvexMesh@MeshFactory@Gu@physx@@QEAAXPEAVConvexMesh@23@_N@Z 0000000180016290 f   GuMeshFactory.obj
 0001:00015310       ?addFactoryListener@MeshFactory@Gu@physx@@QEAAXAEAVMeshFactoryListener@23@@Z 0000000180016310 f   GuMeshFactory.obj
 0001:00015380       ?addHeightField@MeshFactory@Gu@physx@@QEAAXPEAVHeightField@23@_N@Z 0000000180016380 f   GuMeshFactory.obj
 0001:00015400       ?addSoftBodyMesh@MeshFactory@Gu@physx@@QEAAXPEAVSoftBodyMesh@23@_N@Z 0000000180016400 f   GuMeshFactory.obj
 0001:00015480       ?addTetrahedronMesh@MeshFactory@Gu@physx@@QEAAXPEAVTetrahedronMesh@23@_N@Z 0000000180016480 f   GuMeshFactory.obj
 0001:00015500       ?addTriangleMesh@MeshFactory@Gu@physx@@QEAAXPEAVTriangleMesh@23@_N@Z 0000000180016500 f   GuMeshFactory.obj
 0001:00015580       ?allocate@?$PxArray@USlab@NodeAllocator@Gu@physx@@V?$PxReflectionAllocator@USlab@NodeAllocator@Gu@physx@@@4@@physx@@IEAAPEAUSlab@NodeAllocator@Gu@2@I@Z 0000000180016580 f i GuMeshFactory.obj
 0001:00015610       ?allocateAdjacencies@TriangleMeshData@Gu@physx@@QEAAPEAIXZ 0000000180016610 f i GuMeshFactory.obj
 0001:00015680       ?allocateExtraTrigData@TriangleMeshData@Gu@physx@@QEAAPEAEXZ 0000000180016680 f i GuMeshFactory.obj
 0001:000156f0       ?allocateFaceRemap@TriangleMeshData@Gu@physx@@QEAAPEAIXZ 00000001800166f0 f i GuMeshFactory.obj
 0001:00015760       ?allocateGridModelData@SoftBodySimulationData@Gu@physx@@QEAAXIIIIIII@Z 0000000180016760 f i GuMeshFactory.obj
 0001:000159e0       ?allocateMaterials@TetrahedronMeshData@Gu@physx@@QEAAPEAGXZ 00000001800169e0 f i GuMeshFactory.obj
 0001:00015a50       ?allocateMaterials@TriangleMeshData@Gu@physx@@QEAAPEAGXZ 0000000180016a50 f i GuMeshFactory.obj
 0001:00015ac0       ?allocateTetrahedrons@TetrahedronMeshData@Gu@physx@@QEAAXII@Z 0000000180016ac0 f i GuMeshFactory.obj
 0001:00015b50       ?allocateTriangles@TriangleMeshData@Gu@physx@@QEAAPEAXI_NI@Z 0000000180016b50 f i GuMeshFactory.obj
 0001:00015c40       ?allocateVertices@MeshDataBase@Gu@physx@@QEAAPEAV?$PxVec3T@M@3@I@Z 0000000180016c40 f i GuMeshFactory.obj
 0001:00015cb0       ?allocateVertices@TetrahedronMeshData@Gu@physx@@QEAAPEAV?$PxVec3T@M@3@II@Z 0000000180016cb0 f i GuMeshFactory.obj
 0001:00015d50       ?allocatemappingData@CollisionMeshMappingData@Gu@physx@@QEAAXIIII@Z 0000000180016d50 f i GuMeshFactory.obj
 0001:00015f30       ?create@?$PxHashBase@PEAVBVH@Gu@physx@@PEAV123@U?$PxHash@PEAVBVH@Gu@physx@@@3@UGetKey@?$PxHashSetBase@PEAVBVH@Gu@physx@@U?$PxHash@PEAVBVH@Gu@physx@@@3@VPxAllocator@3@$00@3@VPxAllocator@3@$00@physx@@QEAAPEAPEAVBVH@Gu@2@AEBQEAV342@AEA_N@Z 0000000180016f30 f i GuMeshFactory.obj
 0001:00015f30       ?create@?$PxHashBase@PEAVConvexMesh@Gu@physx@@PEAV123@U?$PxHash@PEAVConvexMesh@Gu@physx@@@3@UGetKey@?$PxHashSetBase@PEAVConvexMesh@Gu@physx@@U?$PxHash@PEAVConvexMesh@Gu@physx@@@3@VPxAllocator@3@$00@3@VPxAllocator@3@$00@physx@@QEAAPEAPEAVConvexMesh@Gu@2@AEBQEAV342@AEA_N@Z 0000000180016f30 f i GuMeshFactory.obj
 0001:00015f30       ?create@?$PxHashBase@PEAVHeightField@Gu@physx@@PEAV123@U?$PxHash@PEAVHeightField@Gu@physx@@@3@UGetKey@?$PxHashSetBase@PEAVHeightField@Gu@physx@@U?$PxHash@PEAVHeightField@Gu@physx@@@3@VPxAllocator@3@$00@3@VPxAllocator@3@$00@physx@@QEAAPEAPEAVHeightField@Gu@2@AEBQEAV342@AEA_N@Z 0000000180016f30 f i GuMeshFactory.obj
 0001:00015f30       ?create@?$PxHashBase@PEAVSoftBodyMesh@Gu@physx@@PEAV123@U?$PxHash@PEAVSoftBodyMesh@Gu@physx@@@3@UGetKey@?$PxHashSetBase@PEAVSoftBodyMesh@Gu@physx@@U?$PxHash@PEAVSoftBodyMesh@Gu@physx@@@3@VPxAllocator@3@$00@3@VPxAllocator@3@$00@physx@@QEAAPEAPEAVSoftBodyMesh@Gu@2@AEBQEAV342@AEA_N@Z 0000000180016f30 f i GuMeshFactory.obj
 0001:00015f30       ?create@?$PxHashBase@PEAVTetrahedronMesh@Gu@physx@@PEAV123@U?$PxHash@PEAVTetrahedronMesh@Gu@physx@@@3@UGetKey@?$PxHashSetBase@PEAVTetrahedronMesh@Gu@physx@@U?$PxHash@PEAVTetrahedronMesh@Gu@physx@@@3@VPxAllocator@3@$00@3@VPxAllocator@3@$00@physx@@QEAAPEAPEAVTetrahedronMesh@Gu@2@AEBQEAV342@AEA_N@Z 0000000180016f30 f i GuMeshFactory.obj
 0001:00015f30       ?create@?$PxHashBase@PEAVTriangleMesh@Gu@physx@@PEAV123@U?$PxHash@PEAVTriangleMesh@Gu@physx@@@3@UGetKey@?$PxHashSetBase@PEAVTriangleMesh@Gu@physx@@U?$PxHash@PEAVTriangleMesh@Gu@physx@@@3@VPxAllocator@3@$00@3@VPxAllocator@3@$00@physx@@QEAAPEAPEAVTriangleMesh@Gu@2@AEBQEAV342@AEA_N@Z 0000000180016f30 f i GuMeshFactory.obj
 0001:000160c0       ?createBVH@MeshFactory@Gu@physx@@IEAAPEAVPxBVH@3@AEAVBVHData@23@@Z 00000001800170c0 f   GuMeshFactory.obj
 0001:000161b0       ?createBVH@MeshFactory@Gu@physx@@QEAAPEAVPxBVH@3@AEAVPxInputStream@3@@Z 00000001800171b0 f   GuMeshFactory.obj
 0001:000162d0       ?createBVH@MeshFactory@Gu@physx@@QEAAPEAVPxBVH@3@PEAX@Z 00000001800172d0 f   GuMeshFactory.obj
 0001:000162e0       ?createConvexMesh@MeshFactory@Gu@physx@@IEAAPEAVPxConvexMesh@3@AEAUConvexHullInitData@23@@Z 00000001800172e0 f   GuMeshFactory.obj
 0001:000163d0       ?createConvexMesh@MeshFactory@Gu@physx@@QEAAPEAVPxConvexMesh@3@AEAVPxInputStream@3@@Z 00000001800173d0 f   GuMeshFactory.obj
 0001:000164e0       ?createConvexMesh@MeshFactory@Gu@physx@@QEAAPEAVPxConvexMesh@3@PEAX@Z 00000001800174e0 f   GuMeshFactory.obj
 0001:000164f0       ?createHeightField@MeshFactory@Gu@physx@@QEAAPEAVPxHeightField@3@AEAVPxInputStream@3@@Z 00000001800174f0 f   GuMeshFactory.obj
 0001:00016600       ?createHeightField@MeshFactory@Gu@physx@@QEAAPEAVPxHeightField@3@PEAX@Z 0000000180017600 f   GuMeshFactory.obj
 0001:000166f0       ?createSoftBodyMesh@MeshFactory@Gu@physx@@IEAAPEAVPxSoftBodyMesh@3@AEAVSoftBodyMeshData@23@@Z 00000001800176f0 f   GuMeshFactory.obj
 0001:000167e0       ?createSoftBodyMesh@MeshFactory@Gu@physx@@QEAAPEAVPxSoftBodyMesh@3@AEAVPxInputStream@3@@Z 00000001800177e0 f   GuMeshFactory.obj
 0001:00016de0       ?createSoftBodyMesh@MeshFactory@Gu@physx@@QEAAPEAVPxSoftBodyMesh@3@PEAX@Z 0000000180017de0 f   GuMeshFactory.obj
 0001:00016df0       ?createTetrahedronMesh@MeshFactory@Gu@physx@@IEAAPEAVPxTetrahedronMesh@3@AEAVTetrahedronMeshData@23@@Z 0000000180017df0 f   GuMeshFactory.obj
 0001:00016ee0       ?createTetrahedronMesh@MeshFactory@Gu@physx@@QEAAPEAVPxTetrahedronMesh@3@AEAVPxInputStream@3@@Z 0000000180017ee0 f   GuMeshFactory.obj
 0001:00016f50       ?createTetrahedronMesh@MeshFactory@Gu@physx@@QEAAPEAVPxTetrahedronMesh@3@PEAX@Z 0000000180017f50 f   GuMeshFactory.obj
 0001:00016f60       ?createTriangleMesh@MeshFactory@Gu@physx@@IEAAPEAVPxTriangleMesh@3@AEAVTriangleMeshData@23@@Z 0000000180017f60 f   GuMeshFactory.obj
 0001:000170e0       ?createTriangleMesh@MeshFactory@Gu@physx@@QEAAPEAVPxTriangleMesh@3@AEAVPxInputStream@3@@Z 00000001800180e0 f   GuMeshFactory.obj
 0001:00017140       ?createTriangleMesh@MeshFactory@Gu@physx@@QEAAPEAVPxTriangleMesh@3@PEAX@Z 0000000180018140 f   GuMeshFactory.obj
 0001:00017150       ?erase@?$PxHashBase@PEAVBVH@Gu@physx@@PEAV123@U?$PxHash@PEAVBVH@Gu@physx@@@3@UGetKey@?$PxHashSetBase@PEAVBVH@Gu@physx@@U?$PxHash@PEAVBVH@Gu@physx@@@3@VPxAllocator@3@$00@3@VPxAllocator@3@$00@physx@@QEAA_NAEBQEAVBVH@Gu@2@@Z 0000000180018150 f i GuMeshFactory.obj
 0001:00017150       ?erase@?$PxHashBase@PEAVConvexMesh@Gu@physx@@PEAV123@U?$PxHash@PEAVConvexMesh@Gu@physx@@@3@UGetKey@?$PxHashSetBase@PEAVConvexMesh@Gu@physx@@U?$PxHash@PEAVConvexMesh@Gu@physx@@@3@VPxAllocator@3@$00@3@VPxAllocator@3@$00@physx@@QEAA_NAEBQEAVConvexMesh@Gu@2@@Z 0000000180018150 f i GuMeshFactory.obj
 0001:00017150       ?erase@?$PxHashBase@PEAVHeightField@Gu@physx@@PEAV123@U?$PxHash@PEAVHeightField@Gu@physx@@@3@UGetKey@?$PxHashSetBase@PEAVHeightField@Gu@physx@@U?$PxHash@PEAVHeightField@Gu@physx@@@3@VPxAllocator@3@$00@3@VPxAllocator@3@$00@physx@@QEAA_NAEBQEAVHeightField@Gu@2@@Z 0000000180018150 f i GuMeshFactory.obj
 0001:00017150       ?erase@?$PxHashBase@PEAVSoftBodyMesh@Gu@physx@@PEAV123@U?$PxHash@PEAVSoftBodyMesh@Gu@physx@@@3@UGetKey@?$PxHashSetBase@PEAVSoftBodyMesh@Gu@physx@@U?$PxHash@PEAVSoftBodyMesh@Gu@physx@@@3@VPxAllocator@3@$00@3@VPxAllocator@3@$00@physx@@QEAA_NAEBQEAVSoftBodyMesh@Gu@2@@Z 0000000180018150 f i GuMeshFactory.obj
 0001:00017150       ?erase@?$PxHashBase@PEAVTetrahedronMesh@Gu@physx@@PEAV123@U?$PxHash@PEAVTetrahedronMesh@Gu@physx@@@3@UGetKey@?$PxHashSetBase@PEAVTetrahedronMesh@Gu@physx@@U?$PxHash@PEAVTetrahedronMesh@Gu@physx@@@3@VPxAllocator@3@$00@3@VPxAllocator@3@$00@physx@@QEAA_NAEBQEAVTetrahedronMesh@Gu@2@@Z 0000000180018150 f i GuMeshFactory.obj
 0001:00017150       ?erase@?$PxHashBase@PEAVTriangleMesh@Gu@physx@@PEAV123@U?$PxHash@PEAVTriangleMesh@Gu@physx@@@3@UGetKey@?$PxHashSetBase@PEAVTriangleMesh@Gu@physx@@U?$PxHash@PEAVTriangleMesh@Gu@physx@@@3@VPxAllocator@3@$00@3@VPxAllocator@3@$00@physx@@QEAA_NAEBQEAVTriangleMesh@Gu@2@@Z 0000000180018150 f i GuMeshFactory.obj
 0001:000172d0       ?getBVHs@MeshFactory@Gu@physx@@QEBAIPEAPEAVPxBVH@3@II@Z 00000001800182d0 f   GuMeshFactory.obj
 0001:00017370       ?getBounds@AABBTreeBounds@Gu@physx@@QEAAPEAVPxBounds3@3@XZ 0000000180018370 f i GuMeshFactory.obj
 0001:00017370       ?getBounds@AABBTreeBounds@Gu@physx@@QEBAPEBVPxBounds3@3@XZ 0000000180018370 f i GuMeshFactory.obj
 0001:00017380       ?getConvexMeshes@MeshFactory@Gu@physx@@QEBAIPEAPEAVPxConvexMesh@3@II@Z 0000000180018380 f   GuMeshFactory.obj
 0001:00017420       ?getHeightFields@MeshFactory@Gu@physx@@QEBAIPEAPEAVPxHeightField@3@II@Z 0000000180018420 f   GuMeshFactory.obj
 0001:000174c0       ?getNbBVHs@MeshFactory@Gu@physx@@QEBAIXZ 00000001800184c0 f   GuMeshFactory.obj
 0001:00017500       ?getNbConvexMeshes@MeshFactory@Gu@physx@@QEBAIXZ 0000000180018500 f   GuMeshFactory.obj
 0001:00017540       ?getNbHeightFields@MeshFactory@Gu@physx@@QEBAIXZ 0000000180018540 f   GuMeshFactory.obj
 0001:00017580       ?getNbPrimitives@AABBTreeBuildNode@Gu@physx@@QEBAIXZ 0000000180018580 f i GuMeshFactory.obj
 0001:00017580       ?getNbRuntimePrimitives@AABBTreeBuildNode@Gu@physx@@QEBAIXZ 0000000180018580 f i GuMeshFactory.obj
 0001:00017590       ?getNbSoftBodyMeshes@MeshFactory@Gu@physx@@QEBAIXZ 0000000180018590 f   GuMeshFactory.obj
 0001:000175d0       ?getNbTetrahedronMeshes@MeshFactory@Gu@physx@@QEBAIXZ 00000001800185d0 f   GuMeshFactory.obj
 0001:00017610       ?getNbTriangleMeshes@MeshFactory@Gu@physx@@QEBAIXZ 0000000180018610 f   GuMeshFactory.obj
 0001:00017650       ?getNeg@AABBTreeBuildNode@Gu@physx@@QEBAPEBV123@XZ 0000000180018650 f i GuMeshFactory.obj
 0001:00017670       ?getPrimitives@AABBTreeBuildNode@Gu@physx@@QEAAPEAIPEAI@Z 0000000180018670 f i GuMeshFactory.obj
 0001:00017670       ?getPrimitives@AABBTreeBuildNode@Gu@physx@@QEBAPEBIPEBI@Z 0000000180018670 f i GuMeshFactory.obj
 0001:00017680       ?getSoftBodyMeshes@MeshFactory@Gu@physx@@QEBAIPEAPEAVPxSoftBodyMesh@3@II@Z 0000000180018680 f   GuMeshFactory.obj
 0001:00017720       ?getTetrahedronMeshes@MeshFactory@Gu@physx@@QEBAIPEAPEAVPxTetrahedronMesh@3@II@Z 0000000180018720 f   GuMeshFactory.obj
 0001:000177b0       ?getTriangleMeshes@MeshFactory@Gu@physx@@QEBAIPEAPEAVPxTriangleMesh@3@II@Z 00000001800187b0 f   GuMeshFactory.obj
 0001:00017840       ?growAndPushBack@?$PxArray@PEAVMeshFactoryListener@Gu@physx@@V?$PxReflectionAllocator@PEAVMeshFactoryListener@Gu@physx@@@3@@physx@@IEAAAEAPEAVMeshFactoryListener@Gu@2@AEBQEAV342@@Z 0000000180018840 f i GuMeshFactory.obj
 0001:00017960       ?isLeaf@AABBTreeBuildNode@Gu@physx@@QEBA_NXZ 0000000180018960 f i GuMeshFactory.obj
 0001:00019380       ?moveFrom@AABBTreeBounds@Gu@physx@@QEAAXAEAV123@@Z 000000018001a380 f i GuMeshFactory.obj
 0001:00019390       ?notifyFactoryListener@MeshFactory@Gu@physx@@QEAAXPEBVPxBase@3@G@Z 000000018001a390 f   GuMeshFactory.obj
 0001:00019400       ?ownsMemory@AABBTreeBounds@Gu@physx@@QEBA_NXZ 000000018001a400 f i GuMeshFactory.obj
 0001:000196e0       ?recreate@?$PxArray@USlab@NodeAllocator@Gu@physx@@V?$PxReflectionAllocator@USlab@NodeAllocator@Gu@physx@@@4@@physx@@IEAAXI@Z 000000018001a6e0 f i GuMeshFactory.obj
 0001:00019790       ?release@CollisionMeshMappingData@Gu@physx@@UEAAXXZ 000000018001a790 f i GuMeshFactory.obj
 0001:000197b0       ?release@MeshFactory@Gu@physx@@QEAAXXZ 000000018001a7b0 f   GuMeshFactory.obj
 0001:000198b0       ?remove@MeshFactory@Gu@physx@@QEAA_NAEAVPxBase@3@@Z 000000018001a8b0 f   GuMeshFactory.obj
 0001:000199b0       ?removeBVH@MeshFactory@Gu@physx@@QEAA_NAEAVPxBVH@3@@Z 000000018001a9b0 f   GuMeshFactory.obj
 0001:00019a00       ?removeConvexMesh@MeshFactory@Gu@physx@@QEAA_NAEAVPxConvexMesh@3@@Z 000000018001aa00 f   GuMeshFactory.obj
 0001:00019a50       ?removeFactoryListener@MeshFactory@Gu@physx@@QEAAXAEAVMeshFactoryListener@23@@Z 000000018001aa50 f   GuMeshFactory.obj
 0001:00019ae0       ?removeHeightField@MeshFactory@Gu@physx@@QEAA_NAEAVPxHeightField@3@@Z 000000018001aae0 f   GuMeshFactory.obj
 0001:00019b30       ?removeSoftBodyMesh@MeshFactory@Gu@physx@@QEAA_NAEAVPxSoftBodyMesh@3@@Z 000000018001ab30 f   GuMeshFactory.obj
 0001:00019b80       ?removeTetrahedronMesh@MeshFactory@Gu@physx@@QEAA_NAEAVPxTetrahedronMesh@3@@Z 000000018001ab80 f   GuMeshFactory.obj
 0001:00019bd0       ?removeTriangleMesh@MeshFactory@Gu@physx@@QEAA_NAEAVPxTriangleMesh@3@@Z 000000018001abd0 f   GuMeshFactory.obj
 0001:00019c20       ?reserveInternal@?$PxHashBase@PEAVBVH@Gu@physx@@PEAV123@U?$PxHash@PEAVBVH@Gu@physx@@@3@UGetKey@?$PxHashSetBase@PEAVBVH@Gu@physx@@U?$PxHash@PEAVBVH@Gu@physx@@@3@VPxAllocator@3@$00@3@VPxAllocator@3@$00@physx@@AEAAXI@Z 000000018001ac20 f i GuMeshFactory.obj
 0001:00019c20       ?reserveInternal@?$PxHashBase@PEAVConvexMesh@Gu@physx@@PEAV123@U?$PxHash@PEAVConvexMesh@Gu@physx@@@3@UGetKey@?$PxHashSetBase@PEAVConvexMesh@Gu@physx@@U?$PxHash@PEAVConvexMesh@Gu@physx@@@3@VPxAllocator@3@$00@3@VPxAllocator@3@$00@physx@@AEAAXI@Z 000000018001ac20 f i GuMeshFactory.obj
 0001:00019c20       ?reserveInternal@?$PxHashBase@PEAVHeightField@Gu@physx@@PEAV123@U?$PxHash@PEAVHeightField@Gu@physx@@@3@UGetKey@?$PxHashSetBase@PEAVHeightField@Gu@physx@@U?$PxHash@PEAVHeightField@Gu@physx@@@3@VPxAllocator@3@$00@3@VPxAllocator@3@$00@physx@@AEAAXI@Z 000000018001ac20 f i GuMeshFactory.obj
 0001:00019c20       ?reserveInternal@?$PxHashBase@PEAVSoftBodyMesh@Gu@physx@@PEAV123@U?$PxHash@PEAVSoftBodyMesh@Gu@physx@@@3@UGetKey@?$PxHashSetBase@PEAVSoftBodyMesh@Gu@physx@@U?$PxHash@PEAVSoftBodyMesh@Gu@physx@@@3@VPxAllocator@3@$00@3@VPxAllocator@3@$00@physx@@AEAAXI@Z 000000018001ac20 f i GuMeshFactory.obj
 0001:00019c20       ?reserveInternal@?$PxHashBase@PEAVTetrahedronMesh@Gu@physx@@PEAV123@U?$PxHash@PEAVTetrahedronMesh@Gu@physx@@@3@UGetKey@?$PxHashSetBase@PEAVTetrahedronMesh@Gu@physx@@U?$PxHash@PEAVTetrahedronMesh@Gu@physx@@@3@VPxAllocator@3@$00@3@VPxAllocator@3@$00@physx@@AEAAXI@Z 000000018001ac20 f i GuMeshFactory.obj
 0001:00019c20       ?reserveInternal@?$PxHashBase@PEAVTriangleMesh@Gu@physx@@PEAV123@U?$PxHash@PEAVTriangleMesh@Gu@physx@@@3@UGetKey@?$PxHashSetBase@PEAVTriangleMesh@Gu@physx@@U?$PxHash@PEAVTriangleMesh@Gu@physx@@@3@VPxAllocator@3@$00@3@VPxAllocator@3@$00@physx@@AEAAXI@Z 000000018001ac20 f i GuMeshFactory.obj
 0001:00019df0       ?setBounds@AABBTreeBounds@Gu@physx@@QEAAXPEAVPxBounds3@3@@Z 000000018001adf0 f i GuMeshFactory.obj
 0001:00019e00       ?setNbRunTimePrimitives@AABBTreeBuildNode@Gu@physx@@QEAAXI@Z 000000018001ae00 f i GuMeshFactory.obj
 0001:00019e10       ?takeOwnership@AABBTreeBounds@Gu@physx@@QEAAXXZ 000000018001ae10 f i GuMeshFactory.obj
 0001:00019e20       getInsertionCallback       000000018001ae20 f   GuMeshFactory.obj
 0001:00019e30       ??4BigConvexData@physx@@QEAAAEAV01@AEBV01@@Z 000000018001ae30 f i GuMetaData.obj
 0001:00019e50       ?GetAdjacentVerts@BigConvexData@physx@@QEBAPEBEXZ 000000018001ae50 f i GuMetaData.obj
 0001:00019e50       ?getSoftBodyAuxData@SoftBodyMesh@Gu@physx@@UEAAPEAVPxSoftBodyAuxData@3@XZ 000000018001ae50 f i GuTetrahedronMesh.obj
 0001:00019e50       ?getSoftBodyAuxData@SoftBodyMesh@Gu@physx@@UEBAPEBVPxSoftBodyAuxData@3@XZ 000000018001ae50 f i GuTetrahedronMesh.obj
 0001:00019e50       ?getTransforms@PruningPool@Gu@physx@@QEAAPEAV?$PxTransformT@M@3@XZ 000000018001ae50 f i GuIncrementalAABBPrunerCore.obj
 0001:00019e50       ?getTransforms@PruningPool@Gu@physx@@QEBAPEBV?$PxTransformT@M@3@XZ 000000018001ae50 f i GuIncrementalAABBPrunerCore.obj
 0001:00019e50       ?getTriangles@TriangleMesh@Gu@physx@@UEBAPEBXXZ 000000018001ae50 f i GuTriangleMesh.obj
 0001:00019e60       ?GetNbNeighbors@BigConvexData@physx@@QEBAGI@Z 000000018001ae60 f i GuMetaData.obj
 0001:00019e60       ?GetValency@BigConvexData@physx@@QEBAGI@Z 000000018001ae60 f i GuMetaData.obj
 0001:00019e70       ?GetNbSamples@BigConvexData@physx@@QEBAIXZ 000000018001ae70 f i GuMetaData.obj
 0001:00019e80       ?GetNbVerts@BigConvexData@physx@@QEBAIXZ 000000018001ae80 f i GuMetaData.obj
 0001:00019e80       ?getNbVertices@TetrahedronMesh@Gu@physx@@UEBAIXZ 000000018001ae80 f i GuTetrahedronMesh.obj
 0001:00019e80       ?getNbVertices@TriangleMesh@Gu@physx@@UEBAIXZ 000000018001ae80 f i GuTriangleMesh.obj
 0001:00019e80       ?length@pcharNode@@UEBAHXZ 000000018001ae80 f i libvcruntime:undname.obj
 0001:00019e80       ?raw_length@pcharNode@@UEBAHXZ 000000018001ae80 f i libvcruntime:undname.obj
 0001:00019e90       ?GetNeighbors@BigConvexData@physx@@QEBAPEBEI@Z 000000018001ae90 f i GuMetaData.obj
 0001:00019ea0       ?GetOffset@BigConvexData@physx@@QEBAGI@Z 000000018001aea0 f i GuMetaData.obj
 0001:00019eb0       ?GetSubdiv@BigConvexData@physx@@QEBAIXZ 000000018001aeb0 f i GuMetaData.obj
 0001:00019ec0       ?getBinaryMetaData@BV4Tree@Gu@physx@@SAXAEAVPxOutputStream@3@@Z 000000018001aec0 f   GuMetaData.obj
 0001:0001a460       ?getBinaryMetaData@BV4TriangleMesh@Gu@physx@@SAXAEAVPxOutputStream@3@@Z 000000018001b460 f   GuMetaData.obj
 0001:0001a7e0       ?getBinaryMetaData@BigConvexData@physx@@SAXAEAVPxOutputStream@2@@Z 000000018001b7e0 f   GuMetaData.obj
 0001:0001aaa0       ?getBinaryMetaData@ConvexMesh@Gu@physx@@SAXAEAVPxOutputStream@3@@Z 000000018001baa0 f   GuMetaData.obj
 0001:0001b130       ?getBinaryMetaData@HeightField@Gu@physx@@SAXAEAVPxOutputStream@3@@Z 000000018001c130 f   GuMetaData.obj
 0001:0001b520       ?getBinaryMetaData@RTree@Gu@physx@@SAXAEAVPxOutputStream@3@@Z 000000018001c520 f   GuMetaData.obj
 0001:0001b850       ?getBinaryMetaData@RTreeTriangleMesh@Gu@physx@@SAXAEAVPxOutputStream@3@@Z 000000018001c850 f   GuMetaData.obj
 0001:0001b930       ?getBinaryMetaData@TriangleMesh@Gu@physx@@SAXAEAVPxOutputStream@3@@Z 000000018001c930 f   GuMetaData.obj
 0001:0001d470       ?doSupport@?$SupportLocalImpl@VConvexHullNoScaleV@Gu@physx@@@Gu@physx@@UEBA?AT__m128@@AEBT4@@Z 000000018001e470 f i GuMTD.obj
 0001:0001d4c0       ?doSupport@?$SupportLocalImpl@VConvexHullNoScaleV@Gu@physx@@@Gu@physx@@UEBAXAEBT__m128@@AEAT4@1@Z 000000018001e4c0 f i GuMTD.obj
 0001:0001d640       ?populateVerts@?$SupportLocalImpl@VConvexHullNoScaleV@Gu@physx@@@Gu@physx@@UEBAXPEBEIPEBV?$PxVec3T@M@3@PEAT__m128@@@Z 000000018001e640 f i GuMTD.obj
 0001:0001d680       ?getInternalData@TriangleMesh@Gu@physx@@UEBA_NAEAUPxTriangleMeshInternalData@3@_N@Z 000000018001e680 f   GuTriangleMesh.obj
 0001:0001d680       ?isDynamic@Pruner@Gu@physx@@UEBA_NXZ 000000018001e680 f   GuIncrementalAABBPruner.obj
 0001:0001f4c0       ??$gjk@U?$LocalConvex@VCapsuleV@Gu@physx@@@Gu@physx@@U?$LocalConvex@VConvexHullV@Gu@physx@@@23@@Gu@physx@@YA?AW4GjkStatus@01@AEBU?$LocalConvex@VCapsuleV@Gu@physx@@@01@AEBU?$LocalConvex@VConvexHullV@Gu@physx@@@01@AEBT__m128@@2AEAT5@333@Z 00000001800204c0 f i GuMTD.obj
 0001:00020220       ??0SeparatingAxes@Gu@physx@@QEAA@$$QEAV012@@Z 0000000180021220 f i GuMTD.obj
 0001:00020220       ??0SeparatingAxes@Gu@physx@@QEAA@AEBV012@@Z 0000000180021220 f i GuMTD.obj
 0001:00020330       ??0SeparatingAxes@Gu@physx@@QEAA@XZ 0000000180021330 f i GuMTD.obj
 0001:00020340       ??4SeparatingAxes@Gu@physx@@QEAAAEAV012@$$QEAV012@@Z 0000000180021340 f i GuMTD.obj
 0001:00020340       ??4SeparatingAxes@Gu@physx@@QEAAAEAV012@AEBV012@@Z 0000000180021340 f i GuMTD.obj
 0001:00020450       ??_E?$LocalConvex@UCustomConvexV@@@Gu@physx@@UEAAPEAXI@Z 0000000180021450 f i GuGjkQuery.obj
 0001:00020450       ??_E?$LocalConvex@UPointConvexV@@@Gu@physx@@UEAAPEAXI@Z 0000000180021450 f i GuGjkQuery.obj
 0001:00020450       ??_E?$LocalConvex@VBoxV@Gu@physx@@@Gu@physx@@UEAAPEAXI@Z 0000000180021450 f i GuSweepTests.obj
 0001:00020450       ??_E?$LocalConvex@VCapsuleV@Gu@physx@@@Gu@physx@@UEAAPEAXI@Z 0000000180021450 f i GuMTD.obj
 0001:00020450       ??_E?$LocalConvex@VConvexHullNoScaleV@Gu@physx@@@Gu@physx@@UEAAPEAXI@Z 0000000180021450 f i GuPCMContactBoxConvex.obj
 0001:00020450       ??_E?$LocalConvex@VConvexHullV@Gu@physx@@@Gu@physx@@UEAAPEAXI@Z 0000000180021450 f i GuMTD.obj
 0001:00020450       ??_E?$LocalConvex@VTetrahedronV@Gu@physx@@@Gu@physx@@UEAAPEAXI@Z 0000000180021450 f i GuCookingTetrahedronMesh.obj
 0001:00020450       ??_E?$LocalConvex@VTriangleV@Gu@physx@@@Gu@physx@@UEAAPEAXI@Z 0000000180021450 f i GuSweepTests.obj
 0001:00020450       ??_EGjkConvex@Gu@physx@@UEAAPEAXI@Z 0000000180021450 f i GuMTD.obj
 0001:00020450       ??_G?$LocalConvex@UCustomConvexV@@@Gu@physx@@UEAAPEAXI@Z 0000000180021450 f i GuGjkQuery.obj
 0001:00020450       ??_G?$LocalConvex@UPointConvexV@@@Gu@physx@@UEAAPEAXI@Z 0000000180021450 f i GuGjkQuery.obj
 0001:00020450       ??_G?$LocalConvex@VBoxV@Gu@physx@@@Gu@physx@@UEAAPEAXI@Z 0000000180021450 f i GuSweepTests.obj
 0001:00020450       ??_G?$LocalConvex@VCapsuleV@Gu@physx@@@Gu@physx@@UEAAPEAXI@Z 0000000180021450 f i GuMTD.obj
 0001:00020450       ??_G?$LocalConvex@VConvexHullNoScaleV@Gu@physx@@@Gu@physx@@UEAAPEAXI@Z 0000000180021450 f i GuPCMContactBoxConvex.obj
 0001:00020450       ??_G?$LocalConvex@VConvexHullV@Gu@physx@@@Gu@physx@@UEAAPEAXI@Z 0000000180021450 f i GuMTD.obj
 0001:00020450       ??_G?$LocalConvex@VTetrahedronV@Gu@physx@@@Gu@physx@@UEAAPEAXI@Z 0000000180021450 f i GuCookingTetrahedronMesh.obj
 0001:00020450       ??_G?$LocalConvex@VTriangleV@Gu@physx@@@Gu@physx@@UEAAPEAXI@Z 0000000180021450 f i GuSweepTests.obj
 0001:00020450       ??_GGjkConvex@Gu@physx@@UEAAPEAXI@Z 0000000180021450 f i GuMTD.obj
 0001:000245c0       ?getAxes@SeparatingAxes@Gu@physx@@QEBAPEBV?$PxVec3T@M@3@XZ 00000001800255c0 f i GuMTD.obj
 0001:000245d0       ?getCenter@?$LocalConvex@UCustomConvexV@@@Gu@physx@@UEBA?AT__m128@@XZ 00000001800255d0 f i GuGjkQuery.obj
 0001:000245d0       ?getCenter@?$LocalConvex@UPointConvexV@@@Gu@physx@@UEBA?AT__m128@@XZ 00000001800255d0 f i GuGjkQuery.obj
 0001:000245d0       ?getCenter@?$LocalConvex@VBoxV@Gu@physx@@@Gu@physx@@UEBA?AT__m128@@XZ 00000001800255d0 f i GuSweepTests.obj
 0001:000245d0       ?getCenter@?$LocalConvex@VCapsuleV@Gu@physx@@@Gu@physx@@UEBA?AT__m128@@XZ 00000001800255d0 f i GuMTD.obj
 0001:000245d0       ?getCenter@?$LocalConvex@VConvexHullNoScaleV@Gu@physx@@@Gu@physx@@UEBA?AT__m128@@XZ 00000001800255d0 f i GuPCMContactBoxConvex.obj
 0001:000245d0       ?getCenter@?$LocalConvex@VConvexHullV@Gu@physx@@@Gu@physx@@UEBA?AT__m128@@XZ 00000001800255d0 f i GuMTD.obj
 0001:000245d0       ?getCenter@?$LocalConvex@VTetrahedronV@Gu@physx@@@Gu@physx@@UEBA?AT__m128@@XZ 00000001800255d0 f i GuCookingTetrahedronMesh.obj
 0001:000245d0       ?getCenter@?$LocalConvex@VTriangleV@Gu@physx@@@Gu@physx@@UEBA?AT__m128@@XZ 00000001800255d0 f i GuSweepTests.obj
 0001:000245e0       ?getCount@BuildStats@Gu@physx@@QEBAIXZ 00000001800255e0 f i GuBV4Build.obj
 0001:000245e0       ?getNbActiveObjects@PruningPool@Gu@physx@@QEBAIXZ 00000001800255e0 f i GuIncrementalAABBPrunerCore.obj
 0001:000245e0       ?getNumAxes@SeparatingAxes@Gu@physx@@QEBAIXZ 00000001800255e0 f i GuMTD.obj
 0001:000245f0       ?getSweepMargin@?$LocalConvex@VCapsuleV@Gu@physx@@@Gu@physx@@UEBA?AT__m128@@XZ 00000001800255f0 f i GuMTD.obj
 0001:000245f0       ?getSweepMargin@?$RelativeConvex@VCapsuleV@Gu@physx@@@Gu@physx@@UEBA?AT__m128@@XZ 00000001800255f0 f i GuCCDSweepPrimitives.obj
 0001:00024600       ?getSweepMargin@?$LocalConvex@UCustomConvexV@@@Gu@physx@@UEBA?AT__m128@@XZ 0000000180025600 f i GuGjkQuery.obj
 0001:00024600       ?getSweepMargin@?$LocalConvex@UPointConvexV@@@Gu@physx@@UEBA?AT__m128@@XZ 0000000180025600 f i GuGjkQuery.obj
 0001:00024600       ?getSweepMargin@?$LocalConvex@VBoxV@Gu@physx@@@Gu@physx@@UEBA?AT__m128@@XZ 0000000180025600 f i GuSweepTests.obj
 0001:00024600       ?getSweepMargin@?$LocalConvex@VConvexHullNoScaleV@Gu@physx@@@Gu@physx@@UEBA?AT__m128@@XZ 0000000180025600 f i GuPCMContactBoxConvex.obj
 0001:00024600       ?getSweepMargin@?$LocalConvex@VConvexHullV@Gu@physx@@@Gu@physx@@UEBA?AT__m128@@XZ 0000000180025600 f i GuMTD.obj
 0001:00024600       ?getSweepMargin@?$RelativeConvex@UCustomConvexV@@@Gu@physx@@UEBA?AT__m128@@XZ 0000000180025600 f i GuGjkQuery.obj
 0001:00024600       ?getSweepMargin@?$RelativeConvex@VBoxV@Gu@physx@@@Gu@physx@@UEBA?AT__m128@@XZ 0000000180025600 f i GuOverlapTests.obj
 0001:00024600       ?getSweepMargin@?$RelativeConvex@VConvexHullNoScaleV@Gu@physx@@@Gu@physx@@UEBA?AT__m128@@XZ 0000000180025600 f i GuPCMContactConvexConvex.obj
 0001:00024600       ?getSweepMargin@?$RelativeConvex@VConvexHullV@Gu@physx@@@Gu@physx@@UEBA?AT__m128@@XZ 0000000180025600 f i GuOverlapTests.obj
 0001:00024620       ?getSweepMargin@GjkConvex@Gu@physx@@UEBA?AT__m128@@XZ 0000000180025620 f i GuMTD.obj
 0001:00024640       ?pointConvexDistance@@YA_NAEAV?$PxVec3T@M@physx@@0AEAMAEBV12@PEBVConvexMesh@Gu@2@AEBVPxMeshScale@2@AEBUPxTransformPadded@2@@Z 0000000180025640 f   GuMTD.obj
 0001:000253a0       ?reset@SeparatingAxes@Gu@physx@@QEAAXXZ 00000001800263a0 f i GuMTD.obj
 0001:000253b0       ?support@?$LocalConvex@VCapsuleV@Gu@physx@@@Gu@physx@@UEBA?AT__m128@@AEBT4@@Z 00000001800263b0 f i GuMTD.obj
 0001:00025410       ?support@?$LocalConvex@VCapsuleV@Gu@physx@@@Gu@physx@@UEBA?AT__m128@@AEBT4@AEAH@Z 0000000180026410 f i GuMTD.obj
 0001:00025480       ?support@?$LocalConvex@VConvexHullV@Gu@physx@@@Gu@physx@@UEBA?AT__m128@@AEBT4@@Z 0000000180026480 f i GuMTD.obj
 0001:00025560       ?support@?$LocalConvex@VConvexHullV@Gu@physx@@@Gu@physx@@UEBA?AT__m128@@AEBT4@AEAH@Z 0000000180026560 f i GuMTD.obj
 0001:00025630       ?support@GjkConvex@Gu@physx@@UEBA?AT__m128@@AEBT4@@Z 0000000180026630 f i GuMTD.obj
 0001:00025650       ?support@GjkConvex@Gu@physx@@UEBA?AT__m128@@AEBT4@AEAH@Z 0000000180026650 f i GuMTD.obj
 0001:00025670       ?supportPoint@?$LocalConvex@VCapsuleV@Gu@physx@@@Gu@physx@@UEBA?AT__m128@@H@Z 0000000180026670 f i GuMTD.obj
 0001:000256a0       ?supportPoint@?$LocalConvex@VConvexHullV@Gu@physx@@@Gu@physx@@UEBA?AT__m128@@H@Z 00000001800266a0 f i GuMTD.obj
 0001:000256f0       ?supportPoint@GjkConvex@Gu@physx@@UEBA?AT__m128@@H@Z 00000001800266f0 f i GuMTD.obj
 0001:00025710       ?supportPoint@?$RelativeConvex@VBoxV@Gu@physx@@@Gu@physx@@UEBA?AT__m128@@H@Z 0000000180026710 f i GuOverlapTests.obj
 0001:00025780       ?support@?$RelativeConvex@VBoxV@Gu@physx@@@Gu@physx@@UEBA?AT__m128@@AEBT4@@Z 0000000180026780 f i GuOverlapTests.obj
 0001:00025800       ?support@?$RelativeConvex@VBoxV@Gu@physx@@@Gu@physx@@UEBA?AT__m128@@AEBT4@AEAH@Z 0000000180026800 f i GuOverlapTests.obj
 0001:00025890       ?getCenter@?$RelativeConvex@UCustomConvexV@@@Gu@physx@@UEBA?AT__m128@@XZ 0000000180026890 f i GuGjkQuery.obj
 0001:00025890       ?getCenter@?$RelativeConvex@VBoxV@Gu@physx@@@Gu@physx@@UEBA?AT__m128@@XZ 0000000180026890 f i GuOverlapTests.obj
 0001:00025890       ?getCenter@?$RelativeConvex@VCapsuleV@Gu@physx@@@Gu@physx@@UEBA?AT__m128@@XZ 0000000180026890 f i GuCCDSweepPrimitives.obj
 0001:00025890       ?getCenter@?$RelativeConvex@VConvexHullNoScaleV@Gu@physx@@@Gu@physx@@UEBA?AT__m128@@XZ 0000000180026890 f i GuPCMContactConvexConvex.obj
 0001:00025890       ?getCenter@?$RelativeConvex@VConvexHullV@Gu@physx@@@Gu@physx@@UEBA?AT__m128@@XZ 0000000180026890 f i GuOverlapTests.obj
 0001:00025890       ?getCenter@?$RelativeConvex@VTriangleV@Gu@physx@@@Gu@physx@@UEBA?AT__m128@@XZ 0000000180026890 f i GuCCDSweepPrimitives.obj
 0001:000258d0       ??_E?$RelativeConvex@UCustomConvexV@@@Gu@physx@@UEAAPEAXI@Z 00000001800268d0 f i GuGjkQuery.obj
 0001:000258d0       ??_E?$RelativeConvex@VBoxV@Gu@physx@@@Gu@physx@@UEAAPEAXI@Z 00000001800268d0 f i GuOverlapTests.obj
 0001:000258d0       ??_E?$RelativeConvex@VCapsuleV@Gu@physx@@@Gu@physx@@UEAAPEAXI@Z 00000001800268d0 f i GuCCDSweepPrimitives.obj
 0001:000258d0       ??_E?$RelativeConvex@VConvexHullNoScaleV@Gu@physx@@@Gu@physx@@UEAAPEAXI@Z 00000001800268d0 f i GuPCMContactConvexConvex.obj
 0001:000258d0       ??_E?$RelativeConvex@VConvexHullV@Gu@physx@@@Gu@physx@@UEAAPEAXI@Z 00000001800268d0 f i GuOverlapTests.obj
 0001:000258d0       ??_E?$RelativeConvex@VTriangleV@Gu@physx@@@Gu@physx@@UEAAPEAXI@Z 00000001800268d0 f i GuCCDSweepPrimitives.obj
 0001:000258d0       ??_G?$RelativeConvex@UCustomConvexV@@@Gu@physx@@UEAAPEAXI@Z 00000001800268d0 f i GuGjkQuery.obj
 0001:000258d0       ??_G?$RelativeConvex@VBoxV@Gu@physx@@@Gu@physx@@UEAAPEAXI@Z 00000001800268d0 f i GuOverlapTests.obj
 0001:000258d0       ??_G?$RelativeConvex@VCapsuleV@Gu@physx@@@Gu@physx@@UEAAPEAXI@Z 00000001800268d0 f i GuCCDSweepPrimitives.obj
 0001:000258d0       ??_G?$RelativeConvex@VConvexHullNoScaleV@Gu@physx@@@Gu@physx@@UEAAPEAXI@Z 00000001800268d0 f i GuPCMContactConvexConvex.obj
 0001:000258d0       ??_G?$RelativeConvex@VConvexHullV@Gu@physx@@@Gu@physx@@UEAAPEAXI@Z 00000001800268d0 f i GuOverlapTests.obj
 0001:000258d0       ??_G?$RelativeConvex@VTriangleV@Gu@physx@@@Gu@physx@@UEAAPEAXI@Z 00000001800268d0 f i GuCCDSweepPrimitives.obj
 0001:00027a50       ?supportPoint@?$RelativeConvex@VConvexHullV@Gu@physx@@@Gu@physx@@UEBA?AT__m128@@H@Z 0000000180028a50 f i GuOverlapTests.obj
 0001:00027ad0       ?support@?$RelativeConvex@VConvexHullV@Gu@physx@@@Gu@physx@@UEBA?AT__m128@@AEBT4@@Z 0000000180028ad0 f i GuOverlapTests.obj
 0001:00027c00       ?support@?$RelativeConvex@VConvexHullV@Gu@physx@@@Gu@physx@@UEBA?AT__m128@@AEBT4@AEAH@Z 0000000180028c00 f i GuOverlapTests.obj
 0001:00027d90       ??$gjk@U?$RelativeConvex@VBoxV@Gu@physx@@@Gu@physx@@U?$LocalConvex@VConvexHullV@Gu@physx@@@23@@Gu@physx@@YA?AW4GjkStatus@01@AEBU?$RelativeConvex@VBoxV@Gu@physx@@@01@AEBU?$LocalConvex@VConvexHullV@Gu@physx@@@01@AEBT__m128@@2AEAT5@333@Z 0000000180028d90 f i GuOverlapTests.obj
 0001:00028b40       ??$gjk@U?$RelativeConvex@VConvexHullV@Gu@physx@@@Gu@physx@@U?$LocalConvex@VConvexHullV@Gu@physx@@@23@@Gu@physx@@YA?AW4GjkStatus@01@AEBU?$RelativeConvex@VConvexHullV@Gu@physx@@@01@AEBU?$LocalConvex@VConvexHullV@Gu@physx@@@01@AEBT__m128@@2AEAT5@333@Z 0000000180029b40 f i GuOverlapTests.obj
 0001:000299c0       ?ComputeCubemapNearestOffset@physx@@YAIAEBV?$PxVec3T@M@1@I@Z 000000018002a9c0 f i GuOverlapTests.obj
 0001:00029ac0       ?getOverlapFuncTable@Gu@physx@@YAPEAY0L@Q6A_NAEBVPxGeometry@2@AEBV?$PxTransformT@M@2@01PEAUTriggerCache@12@PEAUPxQueryThreadContext@2@@ZXZ 000000018002aac0 f   GuOverlapTests.obj
 0001:0002b680       ?raycast_box@@YAIAEBVPxGeometry@physx@@AEBV?$PxTransformT@M@2@AEBV?$PxVec3T@M@2@2MV?$PxFlags@W4Enum@PxHitFlag@physx@@G@2@IPEIAUPxGeomRaycastHit@2@IPEAUPxQueryThreadContext@2@@Z 000000018002c680 f   GuRaycastTests.obj
 0001:0002bcb0       ?raycast_sphere@@YAIAEBVPxGeometry@physx@@AEBV?$PxTransformT@M@2@AEBV?$PxVec3T@M@2@2MV?$PxFlags@W4Enum@PxHitFlag@physx@@G@2@IPEIAUPxGeomRaycastHit@2@IPEAUPxQueryThreadContext@2@@Z 000000018002ccb0 f   GuRaycastTests.obj
 0001:0002be40       ?raycast_capsule@@YAIAEBVPxGeometry@physx@@AEBV?$PxTransformT@M@2@AEBV?$PxVec3T@M@2@2MV?$PxFlags@W4Enum@PxHitFlag@physx@@G@2@IPEIAUPxGeomRaycastHit@2@IPEAUPxQueryThreadContext@2@@Z 000000018002ce40 f   GuRaycastTests.obj
 0001:0002c3a0       ?raycast_plane@@YAIAEBVPxGeometry@physx@@AEBV?$PxTransformT@M@2@AEBV?$PxVec3T@M@2@2MV?$PxFlags@W4Enum@PxHitFlag@physx@@G@2@IPEIAUPxGeomRaycastHit@2@IPEAUPxQueryThreadContext@2@@Z 000000018002d3a0 f   GuRaycastTests.obj
 0001:0002c510       ?raycast_convexMesh@@YAIAEBVPxGeometry@physx@@AEBV?$PxTransformT@M@2@AEBV?$PxVec3T@M@2@2MV?$PxFlags@W4Enum@PxHitFlag@physx@@G@2@IPEIAUPxGeomRaycastHit@2@IPEAUPxQueryThreadContext@2@@Z 000000018002d510 f   GuRaycastTests.obj
 0001:0002d010       ?getMidphaseID@RTreeTriangleMesh@Gu@physx@@UEBA?AW4Enum@PxMeshMidPhase@3@XZ 000000018002e010 f   GuTriangleMeshRTree.obj
 0001:0002d010       ?getMidphaseID@RTreeTriangleMeshBuilder@physx@@UEBA?AW4Enum@PxMeshMidPhase@2@XZ 000000018002e010 f   GuCookingTriangleMesh.obj
 0001:0002d010       ?getTetrahedraRemap@TetrahedronMesh@Gu@physx@@UEBAPEBIXZ 000000018002e010 f   GuTetrahedronMesh.obj
 0001:0002d010       ?raycast_hairsystem@@YAIAEBVPxGeometry@physx@@AEBV?$PxTransformT@M@2@AEBV?$PxVec3T@M@2@2MV?$PxFlags@W4Enum@PxHitFlag@physx@@G@2@IPEIAUPxGeomRaycastHit@2@IPEAUPxQueryThreadContext@2@@Z 000000018002e010 f   GuRaycastTests.obj
 0001:0002d010       ?raycast_particlesystem@@YAIAEBVPxGeometry@physx@@AEBV?$PxTransformT@M@2@AEBV?$PxVec3T@M@2@2MV?$PxFlags@W4Enum@PxHitFlag@physx@@G@2@IPEIAUPxGeomRaycastHit@2@IPEAUPxQueryThreadContext@2@@Z 000000018002e010 f   GuRaycastTests.obj
 0001:0002d010       ?raycast_softbody@@YAIAEBVPxGeometry@physx@@AEBV?$PxTransformT@M@2@AEBV?$PxVec3T@M@2@2MV?$PxFlags@W4Enum@PxHitFlag@physx@@G@2@IPEIAUPxGeomRaycastHit@2@IPEAUPxQueryThreadContext@2@@Z 000000018002e010 f   GuRaycastTests.obj
 0001:0002d020       ?raycast_triangleMesh@@YAIAEBVPxGeometry@physx@@AEBV?$PxTransformT@M@2@AEBV?$PxVec3T@M@2@2MV?$PxFlags@W4Enum@PxHitFlag@physx@@G@2@IPEIAUPxGeomRaycastHit@2@IPEAUPxQueryThreadContext@2@@Z 000000018002e020 f   GuRaycastTests.obj
 0001:0002d0b0       ?raycast_heightField@@YAIAEBVPxGeometry@physx@@AEBV?$PxTransformT@M@2@AEBV?$PxVec3T@M@2@2MV?$PxFlags@W4Enum@PxHitFlag@physx@@G@2@IPEIAUPxGeomRaycastHit@2@IPEAUPxQueryThreadContext@2@@Z 000000018002e0b0 f   GuRaycastTests.obj
 0001:0002eb00       ??Dphysx@@YA?AV?$PxMat34T@M@0@AEBVPxMeshScale@0@AEBV?$PxTransformT@M@0@@Z 000000018002fb00 f i GuRaycastTests.obj
 0001:0002f5f0       ?getRaycastFuncTable@Gu@physx@@YAAEAY0L@Q6AIAEBVPxGeometry@2@AEBV?$PxTransformT@M@2@AEBV?$PxVec3T@M@2@2MV?$PxFlags@W4Enum@PxHitFlag@physx@@G@2@IPEIAUPxGeomRaycastHit@2@IPEAUPxQueryThreadContext@2@@ZXZ 00000001800305f0 f   GuRaycastTests.obj
 0001:0002f600       ??Dphysx@@YA?AV?$PxMat34T@M@0@AEBV?$PxTransformT@M@0@AEBVPxMeshScale@0@@Z 0000000180030600 f i GuSweepMTD.obj
 0001:0002fb50       ??_E?$MeshHitCallback@UPxGeomRaycastHit@physx@@@Gu@physx@@UEAAPEAXI@Z 0000000180030b50 f i GuSweepMTD.obj
 0001:0002fb50       ??_G?$MeshHitCallback@UPxGeomRaycastHit@physx@@@Gu@physx@@UEAAPEAXI@Z 0000000180030b50 f i GuSweepMTD.obj
 0001:0002fb80       ??_EMeshMTDGenerationCallback@@UEAAPEAXI@Z 0000000180030b80 f i GuSweepMTD.obj
 0001:0002fb80       ??_GMeshMTDGenerationCallback@@UEAAPEAXI@Z 0000000180030b80 f i GuSweepMTD.obj
 0001:0002fbb0       ??_EMidPhaseQueryLocalReport@@UEAAPEAXI@Z 0000000180030bb0 f i GuSweepMTD.obj
 0001:0002fbb0       ??_ERTreeCookerRemap@@UEAAPEAXI@Z 0000000180030bb0 f i GuCookingTriangleMesh.obj
 0001:0002fbb0       ??_GMidPhaseQueryLocalReport@@UEAAPEAXI@Z 0000000180030bb0 f i GuSweepMTD.obj
 0001:0002fbb0       ??_GRTreeCookerRemap@@UEAAPEAXI@Z 0000000180030bb0 f i GuCookingTriangleMesh.obj
 0001:0002fbe0       ?allocate@?$PxArray@IV?$PxReflectionAllocator@I@physx@@@physx@@IEAAPEAII@Z 0000000180030be0 f i GuSweepMTD.obj
 0001:0002fc70       ?computeBox_HeightFieldMTD@Gu@physx@@YA_NAEBVPxHeightFieldGeometry@2@AEBV?$PxTransformT@M@2@AEBVBox@12@1M_NAEAUPxGeomSweepHit@2@@Z 0000000180030c70 f   GuSweepMTD.obj
 0001:00030a30       ?computeBox_TriangleMeshMTD@Gu@physx@@YA_NAEBVPxTriangleMeshGeometry@2@AEBV?$PxTransformT@M@2@AEBVBox@12@1M_NAEAUPxGeomSweepHit@2@@Z 0000000180031a30 f   GuSweepMTD.obj
 0001:00031a70       ?computeCapsule_CapsuleMTD@Gu@physx@@YA_NAEBVCapsule@12@0AEAUPxGeomSweepHit@2@@Z 0000000180032a70 f   GuSweepMTD.obj
 0001:00031cb0       ?computeCapsule_HeightFieldMTD@Gu@physx@@YA_NAEBVPxHeightFieldGeometry@2@AEBV?$PxTransformT@M@2@AEAVCapsuleV@12@M_NAEAUPxGeomSweepHit@2@@Z 0000000180032cb0 f   GuSweepMTD.obj
 0001:00032480       ?computeCapsule_TriangleMeshMTD@Gu@physx@@YA_NAEBVPxTriangleMeshGeometry@2@AEBV?$PxTransformT@M@2@AEAVCapsuleV@12@M_NAEAUPxGeomSweepHit@2@@Z 0000000180033480 f   GuSweepMTD.obj
 0001:00032d30       ?computeConvex_HeightFieldMTD@Gu@physx@@YA_NAEBVPxHeightFieldGeometry@2@AEBV?$PxTransformT@M@2@AEBVPxConvexMeshGeometry@2@1M_NAEAUPxGeomSweepHit@2@@Z 0000000180033d30 f   GuSweepMTD.obj
 0001:00034000       ?computeConvex_TriangleMeshMTD@Gu@physx@@YA_NAEBVPxTriangleMeshGeometry@2@AEBV?$PxTransformT@M@2@AEBVPxConvexMeshGeometry@2@1M_NAEAUPxGeomSweepHit@2@@Z 0000000180035000 f   GuSweepMTD.obj
 0001:00035600       ?computePlane_BoxMTD@Gu@physx@@YA_NAEBVPxPlane@2@AEBVBox@12@AEAUPxGeomSweepHit@2@@Z 0000000180036600 f   GuSweepMTD.obj
 0001:000358a0       ?computePlane_CapsuleMTD@Gu@physx@@YA_NAEBVPxPlane@2@AEBVCapsule@12@AEAUPxGeomSweepHit@2@@Z 00000001800368a0 f   GuSweepMTD.obj
 0001:000359b0       ?computePlane_ConvexMTD@Gu@physx@@YA_NAEBVPxPlane@2@AEBVPxConvexMeshGeometry@2@AEBV?$PxTransformT@M@2@AEAUPxGeomSweepHit@2@@Z 00000001800369b0 f   GuSweepMTD.obj
 0001:00036570       ?computeSphere_CapsuleMTD@Gu@physx@@YA_NAEBVSphere@12@AEBVCapsule@12@AEAUPxGeomSweepHit@2@@Z 0000000180037570 f   GuSweepMTD.obj
 0001:00036720       ?computeSphere_SphereMTD@Gu@physx@@YA_NAEBVSphere@12@0AEAUPxGeomSweepHit@2@@Z 0000000180037720 f   GuSweepMTD.obj
 0001:00036810       ?getInverse@?$PxMat33T@M@physx@@QEBA?BV12@XZ 0000000180037810 f i GuSweepMTD.obj
 0001:00036a60       ?growAndPushBack@?$PxArray@IV?$PxReflectionAllocator@I@physx@@@physx@@IEAAAEAIAEBI@Z 0000000180037a60 f i GuSweepMTD.obj
 0001:00036b20       ?init@FastVertex2ShapeScaling@Cm@physx@@QEAAXAEBV?$PxVec3T@M@3@AEBV?$PxQuatT@M@3@@Z 0000000180037b20 f i GuSweepMTD.obj
 0001:00037430       ?processHit@MeshMTDGenerationCallback@@UEAA_NAEBUPxGeomRaycastHit@physx@@AEBV?$PxVec3T@M@3@11AEAMPEBI@Z 0000000180038430 f i GuSweepMTD.obj
 0001:00037480       ?recreate@?$PxArray@IV?$PxReflectionAllocator@I@physx@@@physx@@IEAAXI@Z 0000000180038480 f i GuSweepMTD.obj
 0001:00037520       ?reportTouchedTris@MidPhaseQueryLocalReport@@UEAA_NIPEBI@Z 0000000180038520 f i GuSweepMTD.obj
 0001:00037590       ??$gjkPenetration@U?$LocalConvex@VCapsuleV@Gu@physx@@@Gu@physx@@U?$LocalConvex@VConvexHullV@Gu@physx@@@23@@Gu@physx@@YA?AW4GjkStatus@01@AEBU?$LocalConvex@VCapsuleV@Gu@physx@@@01@AEBU?$LocalConvex@VConvexHullV@Gu@physx@@@01@AEBT__m128@@2_NPEIAE4AEAEAEAUGjkOutput@01@@Z 0000000180038590 f i GuSweepSharedTests.obj
 0001:00037600       ??$gjkPenetration@U?$LocalConvex@VCapsuleV@Gu@physx@@@Gu@physx@@U?$LocalConvex@VConvexHullV@Gu@physx@@@23@@Gu@physx@@YA?AW4GjkStatus@01@AEBU?$LocalConvex@VCapsuleV@Gu@physx@@@01@AEBU?$LocalConvex@VConvexHullV@Gu@physx@@@01@AEBT__m128@@2_NPEIAE4PEIAT5@5AEAEAEAUGjkOutput@01@@Z 0000000180038600 f i GuSweepSharedTests.obj
 0001:00038b30       ??$gjkPenetration@U?$RelativeConvex@VBoxV@Gu@physx@@@Gu@physx@@U?$LocalConvex@VConvexHullV@Gu@physx@@@23@@Gu@physx@@YA?AW4GjkStatus@01@AEBU?$RelativeConvex@VBoxV@Gu@physx@@@01@AEBU?$LocalConvex@VConvexHullV@Gu@physx@@@01@AEBT__m128@@2_NPEIAE4AEAEAEAUGjkOutput@01@@Z 0000000180039b30 f i GuSweepSharedTests.obj
 0001:00038ba0       ??$gjkPenetration@U?$RelativeConvex@VBoxV@Gu@physx@@@Gu@physx@@U?$LocalConvex@VConvexHullV@Gu@physx@@@23@@Gu@physx@@YA?AW4GjkStatus@01@AEBU?$RelativeConvex@VBoxV@Gu@physx@@@01@AEBU?$LocalConvex@VConvexHullV@Gu@physx@@@01@AEBT__m128@@2_NPEIAE4PEIAT5@5AEAEAEAUGjkOutput@01@@Z 0000000180039ba0 f i GuSweepSharedTests.obj
 0001:0003a110       ??$gjkPenetration@U?$RelativeConvex@VConvexHullV@Gu@physx@@@Gu@physx@@U?$LocalConvex@VConvexHullV@Gu@physx@@@23@@Gu@physx@@YA?AW4GjkStatus@01@AEBU?$RelativeConvex@VConvexHullV@Gu@physx@@@01@AEBU?$LocalConvex@VConvexHullV@Gu@physx@@@01@AEBT__m128@@2_NPEIAE4AEAEAEAUGjkOutput@01@@Z 000000018003b110 f i GuSweepSharedTests.obj
 0001:0003a180       ??$gjkPenetration@U?$RelativeConvex@VConvexHullV@Gu@physx@@@Gu@physx@@U?$LocalConvex@VConvexHullV@Gu@physx@@@23@@Gu@physx@@YA?AW4GjkStatus@01@AEBU?$RelativeConvex@VConvexHullV@Gu@physx@@@01@AEBU?$LocalConvex@VConvexHullV@Gu@physx@@@01@AEBT__m128@@2_NPEIAE4PEIAT5@5AEAEAEAUGjkOutput@01@@Z 000000018003b180 f i GuSweepSharedTests.obj
 0001:0003b7a0       ??$gjkRaycast@U?$LocalConvex@VCapsuleV@Gu@physx@@@Gu@physx@@U?$LocalConvex@VConvexHullV@Gu@physx@@@23@@Gu@physx@@YA_NAEBU?$LocalConvex@VCapsuleV@Gu@physx@@@01@AEBU?$LocalConvex@VConvexHullV@Gu@physx@@@01@AEBT__m128@@222AEAT4@33M@Z 000000018003c7a0 f i GuSweepSharedTests.obj
 0001:0003c4f0       ??$gjkRaycast@U?$RelativeConvex@VBoxV@Gu@physx@@@Gu@physx@@U?$LocalConvex@VConvexHullV@Gu@physx@@@23@@Gu@physx@@YA_NAEBU?$RelativeConvex@VBoxV@Gu@physx@@@01@AEBU?$LocalConvex@VConvexHullV@Gu@physx@@@01@AEBT__m128@@222AEAT4@33M@Z 000000018003d4f0 f i GuSweepSharedTests.obj
 0001:0003d2e0       ??$gjkRaycast@U?$RelativeConvex@VConvexHullV@Gu@physx@@@Gu@physx@@U?$LocalConvex@VConvexHullV@Gu@physx@@@23@@Gu@physx@@YA_NAEBU?$RelativeConvex@VConvexHullV@Gu@physx@@@01@AEBU?$LocalConvex@VConvexHullV@Gu@physx@@@01@AEBT__m128@@222AEAT4@33M@Z 000000018003e2e0 f i GuSweepSharedTests.obj
 0001:0003e0c0       ??$gjkRaycastPenetration@U?$RelativeConvex@VConvexHullV@Gu@physx@@@Gu@physx@@U?$LocalConvex@VConvexHullV@Gu@physx@@@23@@Gu@physx@@YA_NAEBU?$RelativeConvex@VConvexHullV@Gu@physx@@@01@AEBU?$LocalConvex@VConvexHullV@Gu@physx@@@01@AEBT__m128@@222AEAT4@33M_N@Z 000000018003f0c0 f i GuSweepSharedTests.obj
 0001:0003ec90       ?sweepBox_ConvexGeom@@YA_NAEBVPxGeometry@physx@@AEBV?$PxTransformT@M@2@AEBVPxBoxGeometry@2@1AEBVBox@Gu@2@AEBV?$PxVec3T@M@2@MAEAUPxGeomSweepHit@2@V?$PxFlags@W4Enum@PxHitFlag@physx@@G@2@MPEAUPxQueryThreadContext@2@@Z 000000018003fc90 f   GuSweepSharedTests.obj
 0001:0003fab0       ?sweepBox_PlaneGeom@@YA_NAEBVPxGeometry@physx@@AEBV?$PxTransformT@M@2@AEBVPxBoxGeometry@2@1AEBVBox@Gu@2@AEBV?$PxVec3T@M@2@MAEAUPxGeomSweepHit@2@V?$PxFlags@W4Enum@PxHitFlag@physx@@G@2@MPEAUPxQueryThreadContext@2@@Z 0000000180040ab0 f   GuSweepSharedTests.obj
 0001:0003fe80       ?sweepCapsuleTriangles@Gu@physx@@YA_NIPEBVPxTriangle@2@_NAEBVPxCapsuleGeometry@2@AEBV?$PxTransformT@M@2@AEBV?$PxVec3T@M@2@MAEAUPxGeomSweepHit@2@PEBIMV?$PxFlags@W4Enum@PxHitFlag@physx@@G@2@@Z 0000000180040e80 f   GuSweepSharedTests.obj
 0001:00040070       ?sweepCapsule_CapsuleGeom@@YA_NAEBVPxGeometry@physx@@AEBV?$PxTransformT@M@2@AEBVPxCapsuleGeometry@2@1AEBVCapsule@Gu@2@AEBV?$PxVec3T@M@2@MAEAUPxGeomSweepHit@2@V?$PxFlags@W4Enum@PxHitFlag@physx@@G@2@MPEAUPxQueryThreadContext@2@@Z 0000000180041070 f   GuSweepSharedTests.obj
 0001:00040250       ?sweepCapsule_ConvexGeom@@YA_NAEBVPxGeometry@physx@@AEBV?$PxTransformT@M@2@AEBVPxCapsuleGeometry@2@1AEBVCapsule@Gu@2@AEBV?$PxVec3T@M@2@MAEAUPxGeomSweepHit@2@V?$PxFlags@W4Enum@PxHitFlag@physx@@G@2@MPEAUPxQueryThreadContext@2@@Z 0000000180041250 f   GuSweepSharedTests.obj
 0001:00040f80       ?sweepCapsule_PlaneGeom@@YA_NAEBVPxGeometry@physx@@AEBV?$PxTransformT@M@2@AEBVPxCapsuleGeometry@2@1AEBVCapsule@Gu@2@AEBV?$PxVec3T@M@2@MAEAUPxGeomSweepHit@2@V?$PxFlags@W4Enum@PxHitFlag@physx@@G@2@MPEAUPxQueryThreadContext@2@@Z 0000000180041f80 f   GuSweepSharedTests.obj
 0001:00041260       ?sweepCapsule_SphereGeom@@YA_NAEBVPxGeometry@physx@@AEBV?$PxTransformT@M@2@AEBVPxCapsuleGeometry@2@1AEBVCapsule@Gu@2@AEBV?$PxVec3T@M@2@MAEAUPxGeomSweepHit@2@V?$PxFlags@W4Enum@PxHitFlag@physx@@G@2@MPEAUPxQueryThreadContext@2@@Z 0000000180042260 f   GuSweepSharedTests.obj
 0001:00041400       ?sweepConvex_BoxGeom@@YA_NAEBVPxGeometry@physx@@AEBV?$PxTransformT@M@2@AEBVPxConvexMeshGeometry@2@1AEBV?$PxVec3T@M@2@MAEAUPxGeomSweepHit@2@V?$PxFlags@W4Enum@PxHitFlag@physx@@G@2@MPEAUPxQueryThreadContext@2@@Z 0000000180042400 f   GuSweepSharedTests.obj
 0001:00041620       ?sweepConvex_CapsuleGeom@@YA_NAEBVPxGeometry@physx@@AEBV?$PxTransformT@M@2@AEBVPxConvexMeshGeometry@2@1AEBV?$PxVec3T@M@2@MAEAUPxGeomSweepHit@2@V?$PxFlags@W4Enum@PxHitFlag@physx@@G@2@MPEAUPxQueryThreadContext@2@@Z 0000000180042620 f   GuSweepSharedTests.obj
 0001:00041850       ?sweepConvex_ConvexGeom@@YA_NAEBVPxGeometry@physx@@AEBV?$PxTransformT@M@2@AEBVPxConvexMeshGeometry@2@1AEBV?$PxVec3T@M@2@MAEAUPxGeomSweepHit@2@V?$PxFlags@W4Enum@PxHitFlag@physx@@G@2@MPEAUPxQueryThreadContext@2@@Z 0000000180042850 f   GuSweepSharedTests.obj
 0001:00042830       ?sweepConvex_PlaneGeom@@YA_NAEBVPxGeometry@physx@@AEBV?$PxTransformT@M@2@AEBVPxConvexMeshGeometry@2@1AEBV?$PxVec3T@M@2@MAEAUPxGeomSweepHit@2@V?$PxFlags@W4Enum@PxHitFlag@physx@@G@2@MPEAUPxQueryThreadContext@2@@Z 0000000180043830 f   GuSweepSharedTests.obj
 0001:00042c70       ?sweepConvex_SphereGeom@@YA_NAEBVPxGeometry@physx@@AEBV?$PxTransformT@M@2@AEBVPxConvexMeshGeometry@2@1AEBV?$PxVec3T@M@2@MAEAUPxGeomSweepHit@2@V?$PxFlags@W4Enum@PxHitFlag@physx@@G@2@MPEAUPxQueryThreadContext@2@@Z 0000000180043c70 f   GuSweepSharedTests.obj
 0001:00043870       ?sweepCapsule_BoxGeom@@YA_NAEBVPxGeometry@physx@@AEBV?$PxTransformT@M@2@AEBVPxCapsuleGeometry@2@1AEBVCapsule@Gu@2@AEBV?$PxVec3T@M@2@MAEAUPxGeomSweepHit@2@V?$PxFlags@W4Enum@PxHitFlag@physx@@G@2@MPEAUPxQueryThreadContext@2@@Z 0000000180044870 f   GuSweepTests.obj
 0001:00044130       ?sweepBox_SphereGeom@@YA_NAEBVPxGeometry@physx@@AEBV?$PxTransformT@M@2@AEBVPxBoxGeometry@2@1AEBVBox@Gu@2@AEBV?$PxVec3T@M@2@MAEAUPxGeomSweepHit@2@V?$PxFlags@W4Enum@PxHitFlag@physx@@G@2@MPEAUPxQueryThreadContext@2@@Z 0000000180045130 f   GuSweepTests.obj
 0001:00044810       ?sweepBox_CapsuleGeom@@YA_NAEBVPxGeometry@physx@@AEBV?$PxTransformT@M@2@AEBVPxBoxGeometry@2@1AEBVBox@Gu@2@AEBV?$PxVec3T@M@2@MAEAUPxGeomSweepHit@2@V?$PxFlags@W4Enum@PxHitFlag@physx@@G@2@MPEAUPxQueryThreadContext@2@@Z 0000000180045810 f   GuSweepTests.obj
 0001:000450e0       ?sweepBox_BoxGeom@@YA_NAEBVPxGeometry@physx@@AEBV?$PxTransformT@M@2@AEBVPxBoxGeometry@2@1AEBVBox@Gu@2@AEBV?$PxVec3T@M@2@MAEAUPxGeomSweepHit@2@V?$PxFlags@W4Enum@PxHitFlag@physx@@G@2@MPEAUPxQueryThreadContext@2@@Z 00000001800460e0 f   GuSweepTests.obj
 0001:00045ae0       ??$gjkPenetration@U?$LocalConvex@VCapsuleV@Gu@physx@@@Gu@physx@@U?$LocalConvex@VBoxV@Gu@physx@@@23@@Gu@physx@@YA?AW4GjkStatus@01@AEBU?$LocalConvex@VCapsuleV@Gu@physx@@@01@AEBU?$LocalConvex@VBoxV@Gu@physx@@@01@AEBT__m128@@2_NPEIAE4AEAEAEAUGjkOutput@01@@Z 0000000180046ae0 f i GuSweepTests.obj
 0001:00045b50       ??$gjkPenetration@U?$LocalConvex@VCapsuleV@Gu@physx@@@Gu@physx@@U?$LocalConvex@VBoxV@Gu@physx@@@23@@Gu@physx@@YA?AW4GjkStatus@01@AEBU?$LocalConvex@VCapsuleV@Gu@physx@@@01@AEBU?$LocalConvex@VBoxV@Gu@physx@@@01@AEBT__m128@@2_NPEIAE4PEIAT5@5AEAEAEAUGjkOutput@01@@Z 0000000180046b50 f i GuSweepTests.obj
 0001:00046fd0       ??$gjkPenetration@U?$RelativeConvex@VBoxV@Gu@physx@@@Gu@physx@@U?$LocalConvex@VBoxV@Gu@physx@@@23@@Gu@physx@@YA?AW4GjkStatus@01@AEBU?$RelativeConvex@VBoxV@Gu@physx@@@01@AEBU?$LocalConvex@VBoxV@Gu@physx@@@01@AEBT__m128@@2_NPEIAE4AEAEAEAUGjkOutput@01@@Z 0000000180047fd0 f i GuSweepTests.obj
 0001:00047040       ??$gjkPenetration@U?$RelativeConvex@VBoxV@Gu@physx@@@Gu@physx@@U?$LocalConvex@VBoxV@Gu@physx@@@23@@Gu@physx@@YA?AW4GjkStatus@01@AEBU?$RelativeConvex@VBoxV@Gu@physx@@@01@AEBU?$LocalConvex@VBoxV@Gu@physx@@@01@AEBT__m128@@2_NPEIAE4PEIAT5@5AEAEAEAUGjkOutput@01@@Z 0000000180048040 f i GuSweepTests.obj
 0001:000484f0       ??$gjkRaycast@U?$LocalConvex@VCapsuleV@Gu@physx@@@Gu@physx@@U?$LocalConvex@VBoxV@Gu@physx@@@23@@Gu@physx@@YA_NAEBU?$LocalConvex@VCapsuleV@Gu@physx@@@01@AEBU?$LocalConvex@VBoxV@Gu@physx@@@01@AEBT__m128@@222AEAT4@33M@Z 00000001800494f0 f i GuSweepTests.obj
 0001:000490c0       ??$gjkRaycast@U?$LocalConvex@VTriangleV@Gu@physx@@@Gu@physx@@U?$LocalConvex@VBoxV@Gu@physx@@@23@@Gu@physx@@YA_NAEBU?$LocalConvex@VTriangleV@Gu@physx@@@01@AEBU?$LocalConvex@VBoxV@Gu@physx@@@01@AEBT__m128@@222AEAT4@33M@Z 000000018004a0c0 f i GuSweepTests.obj
 0001:00049d10       ??$gjkRaycast@U?$RelativeConvex@VBoxV@Gu@physx@@@Gu@physx@@U?$LocalConvex@VBoxV@Gu@physx@@@23@@Gu@physx@@YA_NAEBU?$RelativeConvex@VBoxV@Gu@physx@@@01@AEBU?$LocalConvex@VBoxV@Gu@physx@@@01@AEBT__m128@@222AEAT4@33M@Z 000000018004ad10 f i GuSweepTests.obj
 0001:0004a940       ?getSweepFuncTable@Gu@physx@@YAAEBUGeomSweepFuncs@12@XZ 000000018004b940 f   GuSweepTests.obj
 0001:0004a950       ?getSweepMargin@?$LocalConvex@VTetrahedronV@Gu@physx@@@Gu@physx@@UEBA?AT__m128@@XZ 000000018004b950 f i GuCookingTetrahedronMesh.obj
 0001:0004a950       ?getSweepMargin@?$LocalConvex@VTriangleV@Gu@physx@@@Gu@physx@@UEBA?AT__m128@@XZ 000000018004b950 f i GuSweepTests.obj
 0001:0004a950       ?getSweepMargin@?$RelativeConvex@VTriangleV@Gu@physx@@@Gu@physx@@UEBA?AT__m128@@XZ 000000018004b950 f i GuCCDSweepPrimitives.obj
 0001:0004a960       ?support@?$LocalConvex@VBoxV@Gu@physx@@@Gu@physx@@UEBA?AT__m128@@AEBT4@@Z 000000018004b960 f i GuSweepTests.obj
 0001:0004a990       ?support@?$LocalConvex@VBoxV@Gu@physx@@@Gu@physx@@UEBA?AT__m128@@AEBT4@AEAH@Z 000000018004b990 f i GuSweepTests.obj
 0001:0004a9d0       ?support@?$LocalConvex@VTriangleV@Gu@physx@@@Gu@physx@@UEBA?AT__m128@@AEBT4@@Z 000000018004b9d0 f i GuSweepTests.obj
 0001:0004aa60       ?support@?$LocalConvex@VTriangleV@Gu@physx@@@Gu@physx@@UEBA?AT__m128@@AEBT4@AEAH@Z 000000018004ba60 f i GuSweepTests.obj
 0001:0004ab40       ?supportPoint@?$LocalConvex@VBoxV@Gu@physx@@@Gu@physx@@UEBA?AT__m128@@H@Z 000000018004bb40 f i GuSweepTests.obj
 0001:0004ab80       ?supportPoint@?$LocalConvex@VTetrahedronV@Gu@physx@@@Gu@physx@@UEBA?AT__m128@@H@Z 000000018004bb80 f i GuCookingTetrahedronMesh.obj
 0001:0004ab80       ?supportPoint@?$LocalConvex@VTriangleV@Gu@physx@@@Gu@physx@@UEBA?AT__m128@@H@Z 000000018004bb80 f i GuSweepTests.obj
 0001:0004aba0       ?sweepBoxTriangles@Gu@physx@@YA_NIPEBVPxTriangle@2@_NAEBVPxBoxGeometry@2@AEBV?$PxTransformT@M@2@AEBV?$PxVec3T@M@2@MAEAUPxGeomSweepHit@2@PEBIMV?$PxFlags@W4Enum@PxHitFlag@physx@@G@2@@Z 000000018004bba0 f   GuSweepTests.obj
 0001:0004b620       ??$PxSmallSort@H$$CBU?$Comparer@V?$PxVec3T@M@physx@@@MeshAnalyzer@Gu@physx@@@physx@@YAXPEAHHHAEBU?$Comparer@V?$PxVec3T@M@physx@@@MeshAnalyzer@Gu@0@@Z 000000018004c620 f i GuSDF.obj
 0001:0004b840       ??$PxSort@HU?$Comparer@V?$PxVec3T@M@physx@@@MeshAnalyzer@Gu@physx@@V?$PxReflectionAllocator@H@4@@physx@@YAXPEAHIAEBU?$Comparer@V?$PxVec3T@M@physx@@@MeshAnalyzer@Gu@0@AEBV?$PxReflectionAllocator@H@0@I@Z 000000018004c840 f i GuSDF.obj
 0001:0004bcc0       ??$PxSort@HU?$PxLess@H@physx@@V?$PxReflectionAllocator@H@2@@physx@@YAXPEAHIAEBU?$PxLess@H@0@AEBV?$PxReflectionAllocator@H@0@I@Z 000000018004ccc0 f i GuSDF.obj
 0001:0004c110       ??$mapDuplicatePoints@V?$PxVec3T@M@physx@@M@MeshAnalyzer@Gu@physx@@SAXPEBV?$PxVec3T@M@2@IAEAV?$PxArray@HV?$PxReflectionAllocator@H@physx@@@2@M@Z 000000018004d110 f i GuSDF.obj
 0001:0004c490       ??$splitRanges@V?$PxVec3T@M@physx@@M@MeshAnalyzer@Gu@physx@@CAXAEAV?$PxArray@URange@MeshAnalyzer@Gu@physx@@V?$PxReflectionAllocator@URange@MeshAnalyzer@Gu@physx@@@4@@2@AEBV?$PxArray@HV?$PxReflectionAllocator@H@physx@@@2@PEBV?$PxVec3T@M@2@HM@Z 000000018004d490 f i GuSDF.obj
 0001:0004c700       ??$traverseBVH@VClosestDistanceToTrimeshTraversalController@Gu@physx@@@Gu@physx@@YAXPEBUBVHNode@01@AEAVClosestDistanceToTrimeshTraversalController@01@H@Z 000000018004d700 f i GuSDF.obj
 0001:0004cb00       ??$traverseBVH@VLineSegmentTrimeshIntersectionTraversalController@Gu@physx@@@Gu@physx@@YAXPEBUBVHNode@01@AEAVLineSegmentTrimeshIntersectionTraversalController@01@H@Z 000000018004db00 f i GuSDF.obj
 0001:0004d000       ??1SDF@Gu@physx@@QEAA@XZ   000000018004e000 f   GuSDF.obj
 0001:0004d090       ??_E?$PxThreadT@V?$PxReflectionAllocator@VPxThreadImpl@physx@@@physx@@@physx@@UEAAPEAXI@Z 000000018004e090 f i GuSDF.obj
 0001:0004d090       ??_G?$PxThreadT@V?$PxReflectionAllocator@VPxThreadImpl@physx@@@physx@@@physx@@UEAAPEAXI@Z 000000018004e090 f i GuSDF.obj
 0001:0004d140       ??_EPxRunnable@physx@@UEAAPEAXI@Z 000000018004e140 f i GuSDF.obj
 0001:0004d140       ??_GPxRunnable@physx@@UEAAPEAXI@Z 000000018004e140 f i GuSDF.obj
 0001:0004d170       ?PxCreatePointOntoTriangleMeshProjector@Gu@physx@@YAPEAVPxPointOntoTriangleMeshProjector@12@PEBV?$PxVec3T@M@2@PEBII@Z 000000018004e170 f   GuSDF.obj
 0001:0004d270       ?SDFUsingWindingNumbers@Gu@physx@@YAXAEAV?$PxArray@UBVHNode@Gu@physx@@V?$PxReflectionAllocator@UBVHNode@Gu@physx@@@3@@2@AEAV?$PxHashMap@IU?$ClusterApproximationT@MV?$PxVec3T@M@physx@@@Gu@physx@@U?$PxHash@I@3@VPxAllocator@3@@2@PEBV?$PxVec3T@M@2@PEBIIIIIPEAMAEAUGridQueryPointSampler@12@PEAV52@I_N7@Z 000000018004e270 f   GuSDF.obj
 0001:0004d790       ?SDFUsingWindingNumbers@Gu@physx@@YAXPEBV?$PxVec3T@M@2@PEBIIIIIPEAMV32@3PEAV32@_NIPEAVPxSDFBuilder@2@@Z 000000018004e790 f   GuSDF.obj
 0001:0004dc60       ?SDFUsingWindingNumbersSparse@Gu@physx@@YAXPEBV?$PxVec3T@M@2@PEBIIIIIAEBV32@2MIAEAV?$PxArray@MV?$PxReflectionAllocator@M@physx@@@2@AEAV?$PxArray@IV?$PxReflectionAllocator@I@physx@@@2@33AEAM5IPEAVPxSDFBuilder@2@@Z 000000018004ec60 f   GuSDF.obj
 0001:0004e6f0       ?allocate@?$PxArray@HV?$PxInlineAllocator@$0EAA@V?$PxReflectionAllocator@H@physx@@@physx@@@physx@@IEAAPEAHI@Z 000000018004f6f0 f i GuSDF.obj
 0001:0004e7b0       ?allocate@?$PxArray@MV?$PxReflectionAllocator@M@physx@@@physx@@IEAAPEAMI@Z 000000018004f7b0 f i GuSDF.obj
 0001:0004e840       ?allocateSdfs@SDF@Gu@physx@@QEAAPEAMAEBV?$PxVec3T@M@3@AEBMIIIIIIIMMI@Z 000000018004f840 f   GuSDF.obj
 0001:0004ea50       ?analyzeAndFixMesh@Gu@physx@@YAXPEBV?$PxVec3T@M@2@PEBIIAEAV?$PxArray@IV?$PxReflectionAllocator@I@physx@@@2@@Z 000000018004fa50 f   GuSDF.obj
 0001:0004f2b0       ?buildTree@Gu@physx@@YAXPEBIIPEBV?$PxVec3T@M@2@AEAV?$PxArray@UBVHNode@Gu@physx@@V?$PxReflectionAllocator@UBVHNode@Gu@physx@@@3@@2@M@Z 00000001800502b0 f   GuSDF.obj
 0001:0004f4e0       ?computeSDFThreadJob@Gu@physx@@YAPEAXPEAX@Z 00000001800504e0 f   GuSDF.obj
 0001:0004ffa0       ?convertSparseSDFTo3DTextureLayout@Gu@physx@@YAXIIIIPEAIPEBMIAEAV?$PxArray@MV?$PxReflectionAllocator@M@physx@@@2@AEAI33@Z 0000000180050fa0 f   GuSDF.obj
 0001:00050350       ?create@?$PxHashBase@V?$PxPair@$$CBUSortedTriangle@Gu@physx@@H@physx@@USortedTriangle@Gu@2@UTriangleHash@42@UGetKey@?$PxHashMapBase@USortedTriangle@Gu@physx@@HUTriangleHash@23@VPxAllocator@3@@2@VPxAllocator@2@$00@physx@@QEAAPEAV?$PxPair@$$CBUSortedTriangle@Gu@physx@@H@2@AEBUSortedTriangle@Gu@2@AEA_N@Z 0000000180051350 f i GuSDF.obj
 0001:00050480       ?create@?$PxHashBase@V?$PxPair@$$CB_KH@physx@@_KU?$PxHash@_K@2@UGetKey@?$PxHashMapBase@_KHU?$PxHash@_K@physx@@VPxAllocator@2@@2@VPxAllocator@2@$00@physx@@QEAAPEAV?$PxPair@$$CB_KH@2@AEB_KAEA_N@Z 0000000180051480 f i GuMeshAnalysis.obj
 0001:00050480       ?create@?$PxHashBase@V?$PxPair@$$CB_KI@physx@@_KU?$PxHash@_K@2@UGetKey@?$PxHashMapBase@_KIU?$PxHash@_K@physx@@VPxAllocator@2@@2@VPxAllocator@2@$00@physx@@QEAAPEAV?$PxPair@$$CB_KI@2@AEB_KAEA_N@Z 0000000180051480 f i GuSDF.obj
 0001:00050610       ?createTriangles@Gu@physx@@YAXHHHMQEAMAEBV?$PxHashMap@_KIU?$PxHash@_K@physx@@VPxAllocator@2@@2@AEBV?$PxArray@V?$PxVec3T@M@physx@@V?$PxReflectionAllocator@V?$PxVec3T@M@physx@@@2@@2@AEAV?$PxArray@IV?$PxReflectionAllocator@I@physx@@@2@@Z 0000000180051610 f   GuSDF.obj
 0001:00050e70       ?decodeDense@SDF@Gu@physx@@QEBAMHHH@Z 0000000180051e70 f   GuSDF.obj
 0001:00050ec0       ?decodeSparse@SDF@Gu@physx@@QEBAMHHH@Z 0000000180051ec0 f   GuSDF.obj
 0001:00051160       ?extractIsosurfaceFromSDF@Gu@physx@@YAXAEBVSDF@12@AEAV?$PxArray@V?$PxVec3T@M@physx@@V?$PxReflectionAllocator@V?$PxVec3T@M@physx@@@2@@2@AEAV?$PxArray@IV?$PxReflectionAllocator@I@physx@@@2@@Z 0000000180052160 f   GuSDF.obj
 0001:00051ec0       ?fixSdfForNonClosedGeometry@Gu@physx@@YAXIIIPEAMAEBV?$PxVec3T@M@2@@Z 0000000180052ec0 f   GuSDF.obj
 0001:00052fa0       ?generatePointInCell@Gu@physx@@YA_NAEBVSDF@12@HHHAEAV?$PxVec3T@M@2@QEAY111M@Z 0000000180053fa0 f   GuSDF.obj
 0001:000533f0       ?growAndPushBack@?$PxArray@HV?$PxInlineAllocator@$0EAA@V?$PxReflectionAllocator@H@physx@@@physx@@@physx@@IEAAAEAHAEBH@Z 00000001800543f0 f i GuSDF.obj
 0001:000534e0       ?growAndPushBack@?$PxArray@MV?$PxReflectionAllocator@M@physx@@@physx@@IEAAAEAMAEBM@Z 00000001800544e0 f i GuSDF.obj
 0001:000535c0       ?growAndPushBack@?$PxArray@PEAV?$PxThreadT@V?$PxReflectionAllocator@VPxThreadImpl@physx@@@physx@@@physx@@V?$PxReflectionAllocator@PEAV?$PxThreadT@V?$PxReflectionAllocator@VPxThreadImpl@physx@@@physx@@@physx@@@2@@physx@@IEAAAEAPEAV?$PxThreadT@V?$PxReflectionAllocator@VPxThreadImpl@physx@@@physx@@@2@AEBQEAV32@@Z 00000001800545c0 f i GuSDF.obj
 0001:000536e0       ?growAndPushBack@?$PxArray@UMutation@Gu@physx@@V?$PxReflectionAllocator@UMutation@Gu@physx@@@3@@physx@@IEAAAEAUMutation@Gu@2@AEBU342@@Z 00000001800546e0 f i GuSDF.obj
 0001:00053800       ?growAndPushBack@?$PxArray@URange@Gu@physx@@V?$PxReflectionAllocator@URange@Gu@physx@@@3@@physx@@IEAAAEAURange@Gu@2@AEBU342@@Z 0000000180054800 f i GuSDF.obj
 0001:00053930       ?growAndPushBack@?$PxArray@URange@MeshAnalyzer@Gu@physx@@V?$PxReflectionAllocator@URange@MeshAnalyzer@Gu@physx@@@4@@physx@@IEAAAEAURange@MeshAnalyzer@Gu@2@AEBU3452@@Z 0000000180054930 f i GuSDF.obj
 0001:00053a50       ?growAndPushBack@?$PxArray@USDFCalculationData@Gu@physx@@V?$PxReflectionAllocator@USDFCalculationData@Gu@physx@@@3@@physx@@IEAAAEAUSDFCalculationData@Gu@2@AEBU342@@Z 0000000180054a50 f i GuSDF.obj
 0001:00053bd0       ?growAndPushBack@?$PxArray@V?$PxVec3T@M@physx@@V?$PxReflectionAllocator@V?$PxVec3T@M@physx@@@2@@physx@@IEAAAEAV?$PxVec3T@M@2@AEBV32@@Z 0000000180054bd0 f i GuSDF.obj
 0001:00053db0       ?projectPoint@PointOntoTriangleMeshProjector@Gu@physx@@UEAA?AV?$PxVec3T@M@3@AEBV43@@Z 0000000180054db0 f i GuSDF.obj
 0001:00053e20       ?projectPoint@PointOntoTriangleMeshProjector@Gu@physx@@UEAA?AV?$PxVec3T@M@3@AEBV43@AEAI@Z 0000000180054e20 f i GuSDF.obj
 0001:00053ea0       ?recreate@?$PxArray@HV?$PxReflectionAllocator@H@physx@@@physx@@IEAAXI@Z 0000000180054ea0 f i GuSDF.obj
 0001:00053f90       ?recreate@?$PxArray@MV?$PxReflectionAllocator@M@physx@@@physx@@IEAAXI@Z 0000000180054f90 f i GuSDF.obj
 0001:00054070       ?recreate@?$PxArray@UBVHNode@Gu@physx@@V?$PxReflectionAllocator@UBVHNode@Gu@physx@@@3@@physx@@IEAAXI@Z 0000000180055070 f i GuSDF.obj
 0001:000542b0       ?release@PointOntoTriangleMeshProjector@Gu@physx@@UEAAXXZ 00000001800552b0 f i GuSDF.obj
 0001:00054300       ?reserveInternal@?$PxHashBase@V?$PxPair@$$CBIU?$ClusterApproximationT@MV?$PxVec3T@M@physx@@@Gu@physx@@@physx@@IU?$PxHash@I@2@UGetKey@?$PxHashMapBase@IU?$ClusterApproximationT@MV?$PxVec3T@M@physx@@@Gu@physx@@U?$PxHash@I@3@VPxAllocator@3@@2@VPxAllocator@2@$00@physx@@AEAAXI@Z 0000000180055300 f i GuSDF.obj
 0001:00054500       ?reserveInternal@?$PxHashBase@V?$PxPair@$$CBUSortedTriangle@Gu@physx@@H@physx@@USortedTriangle@Gu@2@UTriangleHash@42@UGetKey@?$PxHashMapBase@USortedTriangle@Gu@physx@@HUTriangleHash@23@VPxAllocator@3@@2@VPxAllocator@2@$00@physx@@AEAAXI@Z 0000000180055500 f i GuSDF.obj
 0001:000546a0       ?reserveInternal@?$PxHashBase@V?$PxPair@$$CB_KH@physx@@_KU?$PxHash@_K@2@UGetKey@?$PxHashMapBase@_KHU?$PxHash@_K@physx@@VPxAllocator@2@@2@VPxAllocator@2@$00@physx@@AEAAXI@Z 00000001800556a0 f i GuSDF.obj
 0001:000546a0       ?reserveInternal@?$PxHashBase@V?$PxPair@$$CB_KI@physx@@_KU?$PxHash@_K@2@UGetKey@?$PxHashMapBase@_KIU?$PxHash@_K@physx@@VPxAllocator@2@@2@VPxAllocator@2@$00@physx@@AEAAXI@Z 00000001800556a0 f i GuSDF.obj
 0001:00054880       ?resize@?$PxArray@IV?$PxReflectionAllocator@I@physx@@@physx@@QEAAXIAEBI@Z 0000000180055880 f i GuSDF.obj
 0001:00054940       ?resize@?$PxArray@MV?$PxReflectionAllocator@M@physx@@@physx@@QEAAXIAEBM@Z 0000000180055940 f i GuSDF.obj
 0001:00054a50       ?resize@?$PxArray@UBVHNode@Gu@physx@@V?$PxReflectionAllocator@UBVHNode@Gu@physx@@@3@@physx@@QEAAXIAEBUBVHNode@Gu@2@@Z 0000000180055a50 f i GuSDF.obj
 0001:00054bd0       ?sampleSDFDirect@DenseSDF@Gu@physx@@QEAAMAEBV?$PxVec3T@M@3@@Z 0000000180055bd0 f i GuSDF.obj
 0001:00054d70       ?signedVolume@Gu@physx@@YAMPEBV?$PxVec3T@M@2@PEBII1I@Z 0000000180055d70 f   GuSDF.obj
 0001:000552b0       ?windingNumbers@Gu@physx@@YAXPEBV?$PxVec3T@M@2@PEBIIIIIPEAMV32@3PEAV32@@Z 00000001800562b0 f   GuSDF.obj
 0001:00055700       ?windingNumbersInsideCheck@Gu@physx@@YAXPEBV?$PxVec3T@M@2@PEBIIIIIPEA_NV32@3PEAV32@@Z 0000000180056700 f   GuSDF.obj
 0001:000560d0       ??0MeshData@physx@@QEAA@AEBVPxTriangleMeshDesc@1@@Z 00000001800570d0 f i GuCookingSDF.obj
 0001:000561b0       ?GetBounds@MeshData@physx@@QEBAXAEAV?$PxVec3T@M@2@0@Z 00000001800571b0 f i GuCookingSDF.obj
 0001:00056450       ?buildSDF@physx@@YA_NAEAVPxTriangleMeshDesc@1@AEAV?$PxArray@MV?$PxReflectionAllocator@M@physx@@@1@AEAV?$PxArray@EV?$PxReflectionAllocator@E@physx@@@1@AEAV?$PxArray@IV?$PxReflectionAllocator@I@physx@@@1@@Z 0000000180057450 f   GuCookingSDF.obj
 0001:00056490       ?convert16To32Bits@physx@@YAXVPxSimpleTriangleMesh@1@AEAV?$PxArray@IV?$PxReflectionAllocator@I@physx@@@1@@Z 0000000180057490 f   GuCookingSDF.obj
 0001:000574b0       ?quantizeSparseSDF@physx@@YAXW4Enum@PxSdfBitsPerSubgridPixel@1@AEBV?$PxArray@MV?$PxReflectionAllocator@M@physx@@@1@AEAV?$PxArray@EV?$PxReflectionAllocator@E@physx@@@1@MM@Z 00000001800584b0 f   GuCookingSDF.obj
 0001:00057590       ?recreate@?$PxArray@EV?$PxReflectionAllocator@E@physx@@@physx@@IEAAXI@Z 0000000180058590 f i GuCookingSDF.obj
 0001:00057680       ?recreate@?$PxArray@V?$PxVec3T@M@physx@@V?$PxReflectionAllocator@V?$PxVec3T@M@physx@@@2@@physx@@IEAAXI@Z 0000000180058680 f i GuCookingSDF.obj
 0001:00057820       ?resize@?$PxArray@EV?$PxReflectionAllocator@E@physx@@@physx@@QEAAXIAEBE@Z 0000000180058820 f i GuCookingSDF.obj
 0001:000578e0       ?resize@?$PxArray@V?$PxVec3T@M@physx@@V?$PxReflectionAllocator@V?$PxVec3T@M@physx@@@2@@physx@@QEAAXIAEBV?$PxVec3T@M@2@@Z 00000001800588e0 f i GuCookingSDF.obj
 0001:000579d0       ??$gjk@U?$RelativeConvex@UCustomConvexV@@@Gu@physx@@U?$LocalConvex@UCustomConvexV@@@23@@Gu@physx@@YA?AW4GjkStatus@01@AEBU?$RelativeConvex@UCustomConvexV@@@01@AEBU?$LocalConvex@UCustomConvexV@@@01@AEBT__m128@@2AEAT5@333@Z 00000001800589d0 f i GuGjkQuery.obj
 0001:00058760       ??$gjkPenetration@U?$RelativeConvex@UCustomConvexV@@@Gu@physx@@U?$LocalConvex@UCustomConvexV@@@23@@Gu@physx@@YA?AW4GjkStatus@01@AEBU?$RelativeConvex@UCustomConvexV@@@01@AEBU?$LocalConvex@UCustomConvexV@@@01@AEBT__m128@@2_NPEIAE4PEIAT5@5AEAEAEAUGjkOutput@01@@Z 0000000180059760 f i GuGjkQuery.obj
 0001:00059cd0       ??$gjkPenetration@U?$RelativeConvex@UCustomConvexV@@@Gu@physx@@U?$LocalConvex@UCustomConvexV@@@23@@Gu@physx@@YA?AW4GjkStatus@01@AEBU?$RelativeConvex@UCustomConvexV@@@01@AEBU?$LocalConvex@UCustomConvexV@@@01@AEBT__m128@@2_NPEIAT5@4AEAEAEAUGjkOutput@01@@Z 000000018005acd0 f i GuGjkQuery.obj
 0001:00059d30       ??$gjkRaycast@U?$RelativeConvex@UCustomConvexV@@@Gu@physx@@U?$LocalConvex@UCustomConvexV@@@23@@Gu@physx@@YA_NAEBU?$RelativeConvex@UCustomConvexV@@@01@AEBU?$LocalConvex@UCustomConvexV@@@01@AEBT__m128@@222AEAT4@33M@Z 000000018005ad30 f i GuGjkQuery.obj
 0001:0005aa90       ??$gjkRaycast@U?$RelativeConvex@UCustomConvexV@@@Gu@physx@@U?$LocalConvex@UPointConvexV@@@23@@Gu@physx@@YA_NAEBU?$RelativeConvex@UCustomConvexV@@@01@AEBU?$LocalConvex@UPointConvexV@@@01@AEBT__m128@@222AEAT4@33M@Z 000000018005ba90 f i GuGjkQuery.obj
 0001:0005b6d0       ?overlap@PxGjkQuery@physx@@SA_NAEBUSupport@12@0AEBV?$PxTransformT@M@2@1@Z 000000018005c6d0 f   GuGjkQuery.obj
 0001:0005ba60       ?proximityInfo@PxGjkQuery@physx@@SA_NAEBUSupport@12@0AEBV?$PxTransformT@M@2@1MMAEAV?$PxVec3T@M@2@22AEAM@Z 000000018005ca60 f   GuGjkQuery.obj
 0001:0005c820       ?raycast@PxGjkQuery@physx@@SA_NAEBUSupport@12@AEBV?$PxTransformT@M@2@AEBV?$PxVec3T@M@2@2MAEAMAEAV52@4@Z 000000018005d820 f   GuGjkQuery.obj
 0001:0005cd10       ?support@?$LocalConvex@UCustomConvexV@@@Gu@physx@@UEBA?AT__m128@@AEBT4@@Z 000000018005dd10 f i GuGjkQuery.obj
 0001:0005cd90       ?support@?$LocalConvex@UCustomConvexV@@@Gu@physx@@UEBA?AT__m128@@AEBT4@AEAH@Z 000000018005dd90 f i GuGjkQuery.obj
 0001:0005ce10       ?support@?$LocalConvex@UPointConvexV@@@Gu@physx@@UEBA?AT__m128@@AEBT4@@Z 000000018005de10 f i GuGjkQuery.obj
 0001:0005ce10       ?supportPoint@?$LocalConvex@UPointConvexV@@@Gu@physx@@UEBA?AT__m128@@H@Z 000000018005de10 f i GuGjkQuery.obj
 0001:0005ce20       ?support@?$LocalConvex@UPointConvexV@@@Gu@physx@@UEBA?AT__m128@@AEBT4@AEAH@Z 000000018005de20 f i GuGjkQuery.obj
 0001:0005ce40       ?support@?$RelativeConvex@UCustomConvexV@@@Gu@physx@@UEBA?AT__m128@@AEBT4@@Z 000000018005de40 f i GuGjkQuery.obj
 0001:0005cf10       ?support@?$RelativeConvex@UCustomConvexV@@@Gu@physx@@UEBA?AT__m128@@AEBT4@AEAH@Z 000000018005df10 f i GuGjkQuery.obj
 0001:0005cff0       ?supportPoint@?$LocalConvex@UCustomConvexV@@@Gu@physx@@UEBA?AT__m128@@H@Z 000000018005dff0 f i GuGjkQuery.obj
 0001:0005d060       ?supportPoint@?$RelativeConvex@UCustomConvexV@@@Gu@physx@@UEBA?AT__m128@@H@Z 000000018005e060 f i GuGjkQuery.obj
 0001:0005d100       ?sweep@PxGjkQuery@physx@@SA_NAEBUSupport@12@0AEBV?$PxTransformT@M@2@1AEBV?$PxVec3T@M@2@MAEAMAEAV52@4@Z 000000018005e100 f   GuGjkQuery.obj
 0001:0005d8c0       ??$approximateCluster@MV?$PxVec3T@M@physx@@@Gu@physx@@YAXAEBV?$PxArray@HV?$PxReflectionAllocator@H@physx@@@1@IIPEBIPEBV?$PxVec3T@M@1@AEBV?$PxArray@MV?$PxReflectionAllocator@M@physx@@@1@AEBV?$PxArray@V?$PxVec3T@M@physx@@V?$PxReflectionAllocator@V?$PxVec3T@M@physx@@@2@@1@4AEAU?$ClusterApproximationT@MV?$PxVec3T@M@physx@@@01@@Z 000000018005e8c0 f i GuWindingNumber.obj
 0001:0005df00       ??$copy@V?$PxReflectionAllocator@M@physx@@@?$PxArray@MV?$PxReflectionAllocator@M@physx@@@physx@@IEAAXAEBV01@@Z 000000018005ef00 f i GuWindingNumber.obj
 0001:0005df60       ??$precomputeClusterInformation@MV?$PxVec3T@M@physx@@@Gu@physx@@YAXHPEBUBVHNode@01@PEBIIPEBV?$PxVec3T@M@1@AEAV?$PxHashMap@IU?$ClusterApproximationT@MV?$PxVec3T@M@physx@@@Gu@physx@@U?$PxHash@I@3@VPxAllocator@3@@1@V?$PxArray@MV?$PxReflectionAllocator@M@physx@@@1@AEBV?$PxArray@V?$PxVec3T@M@physx@@V?$PxReflectionAllocator@V?$PxVec3T@M@physx@@@2@@1@5@Z 000000018005ef60 f i GuWindingNumber.obj
 0001:0005e340       ??$precomputeClusterInformation@MV?$PxVec3T@M@physx@@@Gu@physx@@YAXPEBUBVHNode@01@PEBIIPEBV?$PxVec3T@M@1@AEAV?$PxHashMap@IU?$ClusterApproximationT@MV?$PxVec3T@M@physx@@@Gu@physx@@U?$PxHash@I@3@VPxAllocator@3@@1@H@Z 000000018005f340 f i GuWindingNumber.obj
 0001:0005e750       ??$traverseBVH@V?$WindingNumberTraversalController@MV?$PxVec3T@M@physx@@@Gu@physx@@@Gu@physx@@YAXPEBUBVHNode@01@AEAV?$WindingNumberTraversalController@MV?$PxVec3T@M@physx@@@01@H@Z 000000018005f750 f i GuWindingNumber.obj
 0001:0005eca0       ?allocate@?$PxArray@HV?$PxReflectionAllocator@H@physx@@@physx@@IEAAPEAHI@Z 000000018005fca0 f i GuWindingNumber.obj
 0001:0005ed30       ?computeWindingNumber@Gu@physx@@YAMAEBV?$PxVec3T@M@2@PEBIIPEBV32@@Z 000000018005fd30 f   GuWindingNumber.obj
 0001:0005f060       ?computeWindingNumber@Gu@physx@@YAMPEBUBVHNode@12@AEBV?$PxVec3T@M@2@AEBV?$PxHashMap@IU?$ClusterApproximationT@MV?$PxVec3T@M@physx@@@Gu@physx@@U?$PxHash@I@3@VPxAllocator@3@@2@PEBIPEBV42@@Z 0000000180060060 f   GuWindingNumber.obj
 0001:0005f0d0       ?computeWindingNumber@Gu@physx@@YAMPEBUBVHNode@12@AEBV?$PxVec3T@M@2@MAEBV?$PxHashMap@IU?$ClusterApproximationT@MV?$PxVec3T@M@physx@@@Gu@physx@@U?$PxHash@I@3@VPxAllocator@3@@2@PEBIPEBV42@@Z 00000001800600d0 f   GuWindingNumber.obj
 0001:0005f140       ?copy@?$PxArray@MV?$PxReflectionAllocator@M@physx@@@physx@@KAXPEAM0PEBM@Z 0000000180060140 f i GuWindingNumber.obj
 0001:0005f1a0       ?create@?$PxHashBase@V?$PxPair@$$CBIU?$ClusterApproximationT@MV?$PxVec3T@M@physx@@@Gu@physx@@@physx@@IU?$PxHash@I@2@UGetKey@?$PxHashMapBase@IU?$ClusterApproximationT@MV?$PxVec3T@M@physx@@@Gu@physx@@U?$PxHash@I@3@VPxAllocator@3@@2@VPxAllocator@2@$00@physx@@QEAAPEAV?$PxPair@$$CBIU?$ClusterApproximationT@MV?$PxVec3T@M@physx@@@Gu@physx@@@2@AEBIAEA_N@Z 00000001800601a0 f i GuWindingNumber.obj
 0001:0005f2f0       ?growAndPushBack@?$PxArray@HV?$PxReflectionAllocator@H@physx@@@physx@@IEAAAEAHAEBH@Z 00000001800602f0 f i GuWindingNumber.obj
 0001:0005f3b0       ?growAndPushBack@?$PxArray@USection@Gu@physx@@V?$PxReflectionAllocator@USection@Gu@physx@@@3@@physx@@IEAAAEAUSection@Gu@2@AEBU342@@Z 00000001800603b0 f i GuWindingNumber.obj
 0001:0005f4d0       ?precomputeClusterInformation@Gu@physx@@YAXPEBUBVHNode@12@PEBIIPEBV?$PxVec3T@M@2@AEAV?$PxHashMap@IU?$ClusterApproximationT@MV?$PxVec3T@M@physx@@@Gu@physx@@U?$PxHash@I@3@VPxAllocator@3@@2@H@Z 00000001800604d0 f   GuWindingNumber.obj
 0001:0005f570       ?SweepAnyShapeHeightfield@Gu@physx@@YAMAEBUCCDShape@12@0AEBUPxTransformPadded@2@111MAEAV?$PxVec3T@M@2@2MAEAIM@Z 0000000180060570 f   GuCCDSweepConvexMesh.obj
 0001:00060b10       ?SweepAnyShapeMesh@Gu@physx@@YAMAEBUCCDShape@12@0AEBUPxTransformPadded@2@111MAEAV?$PxVec3T@M@2@2MAEAIM@Z 0000000180061b10 f   GuCCDSweepConvexMesh.obj
 0001:000620d0       ?SweepEstimateAnyShapeHeightfield@Gu@physx@@YAMAEBUCCDShape@12@0MM@Z 00000001800630d0 f   GuCCDSweepConvexMesh.obj
 0001:00062d40       ?SweepEstimateAnyShapeMesh@Gu@physx@@YAMAEBUCCDShape@12@0MM@Z 0000000180063d40 f   GuCCDSweepConvexMesh.obj
 0001:00062fe0       ?allocate@?$PxArray@IV?$PxInlineAllocator@$0BAA@V?$PxReflectionAllocator@I@physx@@@physx@@@physx@@IEAAPEAII@Z 0000000180063fe0 f i GuCCDSweepConvexMesh.obj
 0001:00063ac0       ?growAndPushBack@?$PxArray@IV?$PxInlineAllocator@$0BAA@V?$PxReflectionAllocator@I@physx@@@physx@@@physx@@IEAAAEAIAEBI@Z 0000000180064ac0 f i GuCCDSweepConvexMesh.obj
 0001:00064100       ?recreate@?$PxArray@IV?$PxInlineAllocator@$0BAA@V?$PxReflectionAllocator@I@physx@@@physx@@@physx@@IEAAXI@Z 0000000180065100 f i GuCCDSweepConvexMesh.obj
 0001:00064240       ?resize@?$PxArray@IV?$PxInlineAllocator@$0BAA@V?$PxReflectionAllocator@I@physx@@@physx@@@physx@@QEAAXIAEBI@Z 0000000180065240 f i GuCCDSweepConvexMesh.obj
 0001:00064310       ?transformBoxOrthonormal@physx@@YA?AVBox@Gu@1@AEBV231@AEBV?$PxTransformT@M@1@@Z 0000000180065310 f i GuCCDSweepConvexMesh.obj
 0001:000647a0       ?UnimplementedSweep@Gu@physx@@YAMAEBUCCDShape@12@0AEBUPxTransformPadded@2@111MAEAV?$PxVec3T@M@2@2MAEAIM@Z 00000001800657a0 f   GuCCDSweepPrimitives.obj
 0001:000684d0       ?UnimplementedTriangleSweep@Gu@physx@@YAMAEBVPxGeometry@2@0AEBUPxTransformPadded@2@111MAEAV?$PxVec3T@M@2@2AEBVFastVertex2ShapeScaling@Cm@2@AEAVTriangleV@12@M@Z 00000001800694d0 f   GuCCDSweepPrimitives.obj
 0001:000684e0       ??$SweepGeomTriangles@VCapsuleV@Gu@physx@@@Gu@physx@@YAMAEBVPxGeometry@1@0AEBUPxTransformPadded@1@111MAEAV?$PxVec3T@M@1@2AEBVFastVertex2ShapeScaling@Cm@1@AEAVTriangleV@01@M@Z 00000001800694e0 f i GuCCDSweepPrimitives.obj
 0001:00068c10       ??$SweepGeomTriangles@VBoxV@Gu@physx@@@Gu@physx@@YAMAEBVPxGeometry@1@0AEBUPxTransformPadded@1@111MAEAV?$PxVec3T@M@1@2AEBVFastVertex2ShapeScaling@Cm@1@AEAVTriangleV@01@M@Z 0000000180069c10 f i GuCCDSweepPrimitives.obj
 0001:00069360       ??$SweepGeomTriangles@VConvexHullV@Gu@physx@@@Gu@physx@@YAMAEBVPxGeometry@1@0AEBUPxTransformPadded@1@111MAEAV?$PxVec3T@M@1@2AEBVFastVertex2ShapeScaling@Cm@1@AEAVTriangleV@01@M@Z 000000018006a360 f i GuCCDSweepPrimitives.obj
 0001:00069e40       ?supportPoint@?$RelativeConvex@VCapsuleV@Gu@physx@@@Gu@physx@@UEBA?AT__m128@@H@Z 000000018006ae40 f i GuCCDSweepPrimitives.obj
 0001:00069ea0       ?support@?$RelativeConvex@VCapsuleV@Gu@physx@@@Gu@physx@@UEBA?AT__m128@@AEBT4@@Z 000000018006aea0 f i GuCCDSweepPrimitives.obj
 0001:00069f50       ?support@?$RelativeConvex@VCapsuleV@Gu@physx@@@Gu@physx@@UEBA?AT__m128@@AEBT4@AEAH@Z 000000018006af50 f i GuCCDSweepPrimitives.obj
 0001:0006a010       ?supportPoint@?$RelativeConvex@VTriangleV@Gu@physx@@@Gu@physx@@UEBA?AT__m128@@H@Z 000000018006b010 f i GuCCDSweepPrimitives.obj
 0001:0006a060       ?support@?$RelativeConvex@VTriangleV@Gu@physx@@@Gu@physx@@UEBA?AT__m128@@AEBT4@@Z 000000018006b060 f i GuCCDSweepPrimitives.obj
 0001:0006a160       ?support@?$RelativeConvex@VTriangleV@Gu@physx@@@Gu@physx@@UEBA?AT__m128@@AEBT4@AEAH@Z 000000018006b160 f i GuCCDSweepPrimitives.obj
 0001:0006a2a0       ??$gjkPenetration@U?$RelativeConvex@VCapsuleV@Gu@physx@@@Gu@physx@@U?$LocalConvex@VBoxV@Gu@physx@@@23@@Gu@physx@@YA?AW4GjkStatus@01@AEBU?$RelativeConvex@VCapsuleV@Gu@physx@@@01@AEBU?$LocalConvex@VBoxV@Gu@physx@@@01@AEBT__m128@@2_NPEIAE4AEAEAEAUGjkOutput@01@@Z 000000018006b2a0 f i GuCCDSweepPrimitives.obj
 0001:0006a310       ??$gjkPenetration@U?$RelativeConvex@VCapsuleV@Gu@physx@@@Gu@physx@@U?$LocalConvex@VBoxV@Gu@physx@@@23@@Gu@physx@@YA?AW4GjkStatus@01@AEBU?$RelativeConvex@VCapsuleV@Gu@physx@@@01@AEBU?$LocalConvex@VBoxV@Gu@physx@@@01@AEBT__m128@@2_NPEIAE4PEIAT5@5AEAEAEAUGjkOutput@01@@Z 000000018006b310 f i GuCCDSweepPrimitives.obj
 0001:0006b810       ??$gjkPenetration@U?$RelativeConvex@VCapsuleV@Gu@physx@@@Gu@physx@@U?$LocalConvex@VCapsuleV@Gu@physx@@@23@@Gu@physx@@YA?AW4GjkStatus@01@AEBU?$RelativeConvex@VCapsuleV@Gu@physx@@@01@AEBU?$LocalConvex@VCapsuleV@Gu@physx@@@01@AEBT__m128@@2_NPEIAE4AEAEAEAUGjkOutput@01@@Z 000000018006c810 f i GuCCDSweepPrimitives.obj
 0001:0006b880       ??$gjkPenetration@U?$RelativeConvex@VCapsuleV@Gu@physx@@@Gu@physx@@U?$LocalConvex@VCapsuleV@Gu@physx@@@23@@Gu@physx@@YA?AW4GjkStatus@01@AEBU?$RelativeConvex@VCapsuleV@Gu@physx@@@01@AEBU?$LocalConvex@VCapsuleV@Gu@physx@@@01@AEBT__m128@@2_NPEIAE4PEIAT5@5AEAEAEAUGjkOutput@01@@Z 000000018006c880 f i GuCCDSweepPrimitives.obj
 0001:0006cd70       ??$gjkPenetration@U?$RelativeConvex@VCapsuleV@Gu@physx@@@Gu@physx@@U?$LocalConvex@VConvexHullV@Gu@physx@@@23@@Gu@physx@@YA?AW4GjkStatus@01@AEBU?$RelativeConvex@VCapsuleV@Gu@physx@@@01@AEBU?$LocalConvex@VConvexHullV@Gu@physx@@@01@AEBT__m128@@2_NPEIAE4AEAEAEAUGjkOutput@01@@Z 000000018006dd70 f i GuCCDSweepPrimitives.obj
 0001:0006cde0       ??$gjkPenetration@U?$RelativeConvex@VCapsuleV@Gu@physx@@@Gu@physx@@U?$LocalConvex@VConvexHullV@Gu@physx@@@23@@Gu@physx@@YA?AW4GjkStatus@01@AEBU?$RelativeConvex@VCapsuleV@Gu@physx@@@01@AEBU?$LocalConvex@VConvexHullV@Gu@physx@@@01@AEBT__m128@@2_NPEIAE4PEIAT5@5AEAEAEAUGjkOutput@01@@Z 000000018006dde0 f i GuCCDSweepPrimitives.obj
 0001:0006e380       ??$gjkPenetration@U?$RelativeConvex@VTriangleV@Gu@physx@@@Gu@physx@@U?$LocalConvex@VBoxV@Gu@physx@@@23@@Gu@physx@@YA?AW4GjkStatus@01@AEBU?$RelativeConvex@VTriangleV@Gu@physx@@@01@AEBU?$LocalConvex@VBoxV@Gu@physx@@@01@AEBT__m128@@2_NPEIAE4AEAEAEAUGjkOutput@01@@Z 000000018006f380 f i GuCCDSweepPrimitives.obj
 0001:0006e3f0       ??$gjkPenetration@U?$RelativeConvex@VTriangleV@Gu@physx@@@Gu@physx@@U?$LocalConvex@VBoxV@Gu@physx@@@23@@Gu@physx@@YA?AW4GjkStatus@01@AEBU?$RelativeConvex@VTriangleV@Gu@physx@@@01@AEBU?$LocalConvex@VBoxV@Gu@physx@@@01@AEBT__m128@@2_NPEIAE4PEIAT5@5AEAEAEAUGjkOutput@01@@Z 000000018006f3f0 f i GuCCDSweepPrimitives.obj
 0001:0006f910       ??$gjkPenetration@U?$RelativeConvex@VTriangleV@Gu@physx@@@Gu@physx@@U?$LocalConvex@VCapsuleV@Gu@physx@@@23@@Gu@physx@@YA?AW4GjkStatus@01@AEBU?$RelativeConvex@VTriangleV@Gu@physx@@@01@AEBU?$LocalConvex@VCapsuleV@Gu@physx@@@01@AEBT__m128@@2_NPEIAE4AEAEAEAUGjkOutput@01@@Z 0000000180070910 f i GuCCDSweepPrimitives.obj
 0001:0006f980       ??$gjkPenetration@U?$RelativeConvex@VTriangleV@Gu@physx@@@Gu@physx@@U?$LocalConvex@VCapsuleV@Gu@physx@@@23@@Gu@physx@@YA?AW4GjkStatus@01@AEBU?$RelativeConvex@VTriangleV@Gu@physx@@@01@AEBU?$LocalConvex@VCapsuleV@Gu@physx@@@01@AEBT__m128@@2_NPEIAE4PEIAT5@5AEAEAEAUGjkOutput@01@@Z 0000000180070980 f i GuCCDSweepPrimitives.obj
 0001:00070ea0       ??$gjkPenetration@U?$RelativeConvex@VTriangleV@Gu@physx@@@Gu@physx@@U?$LocalConvex@VConvexHullV@Gu@physx@@@23@@Gu@physx@@YA?AW4GjkStatus@01@AEBU?$RelativeConvex@VTriangleV@Gu@physx@@@01@AEBU?$LocalConvex@VConvexHullV@Gu@physx@@@01@AEBT__m128@@2_NPEIAE4AEAEAEAUGjkOutput@01@@Z 0000000180071ea0 f i GuCCDSweepPrimitives.obj
 0001:00070f10       ??$gjkPenetration@U?$RelativeConvex@VTriangleV@Gu@physx@@@Gu@physx@@U?$LocalConvex@VConvexHullV@Gu@physx@@@23@@Gu@physx@@YA?AW4GjkStatus@01@AEBU?$RelativeConvex@VTriangleV@Gu@physx@@@01@AEBU?$LocalConvex@VConvexHullV@Gu@physx@@@01@AEBT__m128@@2_NPEIAE4PEIAT5@5AEAEAEAUGjkOutput@01@@Z 0000000180071f10 f i GuCCDSweepPrimitives.obj
 0001:000724c0       ??$gjkRaycast@U?$RelativeConvex@VCapsuleV@Gu@physx@@@Gu@physx@@U?$LocalConvex@VBoxV@Gu@physx@@@23@@Gu@physx@@YA_NAEBU?$RelativeConvex@VCapsuleV@Gu@physx@@@01@AEBU?$LocalConvex@VBoxV@Gu@physx@@@01@AEBT__m128@@222AEAT4@33M@Z 00000001800734c0 f i GuCCDSweepPrimitives.obj
 0001:00073130       ??$gjkRaycast@U?$RelativeConvex@VCapsuleV@Gu@physx@@@Gu@physx@@U?$LocalConvex@VCapsuleV@Gu@physx@@@23@@Gu@physx@@YA_NAEBU?$RelativeConvex@VCapsuleV@Gu@physx@@@01@AEBU?$LocalConvex@VCapsuleV@Gu@physx@@@01@AEBT__m128@@222AEAT4@33M@Z 0000000180074130 f i GuCCDSweepPrimitives.obj
 0001:00073e20       ??$gjkRaycast@U?$RelativeConvex@VCapsuleV@Gu@physx@@@Gu@physx@@U?$LocalConvex@VConvexHullV@Gu@physx@@@23@@Gu@physx@@YA_NAEBU?$RelativeConvex@VCapsuleV@Gu@physx@@@01@AEBU?$LocalConvex@VConvexHullV@Gu@physx@@@01@AEBT__m128@@222AEAT4@33M@Z 0000000180074e20 f i GuCCDSweepPrimitives.obj
 0001:00074c20       ??$gjkRaycast@U?$RelativeConvex@VTriangleV@Gu@physx@@@Gu@physx@@U?$LocalConvex@VBoxV@Gu@physx@@@23@@Gu@physx@@YA_NAEBU?$RelativeConvex@VTriangleV@Gu@physx@@@01@AEBU?$LocalConvex@VBoxV@Gu@physx@@@01@AEBT__m128@@222AEAT4@33M@Z 0000000180075c20 f i GuCCDSweepPrimitives.obj
 0001:00075930       ??$gjkRaycast@U?$RelativeConvex@VTriangleV@Gu@physx@@@Gu@physx@@U?$LocalConvex@VCapsuleV@Gu@physx@@@23@@Gu@physx@@YA_NAEBU?$RelativeConvex@VTriangleV@Gu@physx@@@01@AEBU?$LocalConvex@VCapsuleV@Gu@physx@@@01@AEBT__m128@@222AEAT4@33M@Z 0000000180076930 f i GuCCDSweepPrimitives.obj
 0001:000766b0       ??$gjkRaycast@U?$RelativeConvex@VTriangleV@Gu@physx@@@Gu@physx@@U?$LocalConvex@VConvexHullV@Gu@physx@@@23@@Gu@physx@@YA_NAEBU?$RelativeConvex@VTriangleV@Gu@physx@@@01@AEBU?$LocalConvex@VConvexHullV@Gu@physx@@@01@AEBT__m128@@222AEAT4@33M@Z 00000001800776b0 f i GuCCDSweepPrimitives.obj
 0001:00077570       ?SweepShapeShape@Gu@physx@@YAMAEBUCCDShape@12@0AEBUPxTransformPadded@2@111MAEAV?$PxVec3T@M@2@2MAEAIM@Z 0000000180078570 f   GuCCDSweepPrimitives.obj
 0001:00077590       ?SweepShapeTriangle@Gu@physx@@YAMAEBVPxGeometry@2@0AEBUPxTransformPadded@2@111MAEAV?$PxVec3T@M@2@2AEBVFastVertex2ShapeScaling@Cm@2@AEAVTriangleV@12@M@Z 0000000180078590 f   GuCCDSweepPrimitives.obj
 0001:000775b0       ?barycentricCoordinates@Gu@physx@@YAXAEBT__m128@@000AEAT3@1@Z 00000001800785b0 f   GuBarycentricCoordinates.obj
 0001:000776f0       ?barycentricCoordinates@Gu@physx@@YAXAEBT__m128@@00AEAT3@@Z 00000001800786f0 f   GuBarycentricCoordinates.obj
 0001:00077760       ??$?_UV?$PxReflectionAllocator@VAdjTriangle@Gu@physx@@@physx@@@PxUserAllocated@physx@@SAPEAX_KV?$PxReflectionAllocator@VAdjTriangle@Gu@physx@@@1@PEBDH@Z 0000000180078760 f i GuAdjacencies.obj
 0001:00077840       ??0AdjacenciesBuilder@Gu@physx@@QEAA@XZ 0000000180078840 f   GuAdjacencies.obj
 0001:00077850       ??1AdjacenciesBuilder@Gu@physx@@QEAA@XZ 0000000180078850 f   GuAdjacencies.obj
 0001:000779a0       ?ComputeNbBoundaryEdges@Adjacencies@Gu@physx@@QEBAIXZ 00000001800789a0 f   GuAdjacencies.obj
 0001:00077c30       ?Init@AdjacenciesBuilder@Gu@physx@@QEAA_NAEBUADJACENCIESCREATE@23@@Z 0000000180078c30 f   GuAdjacencies.obj
 0001:00078190       ??0EdgeList@Gu@physx@@QEAA@XZ 0000000180079190 f   GuEdgeList.obj
 0001:000781b0       ??1EdgeList@Gu@physx@@QEAA@XZ 00000001800791b0 f   GuEdgeList.obj
 0001:00078260       ?computeActiveEdges@EdgeList@Gu@physx@@AEAA_NIPEBIPEBGPEBV?$PxVec3T@M@3@M@Z 0000000180079260 f   GuEdgeList.obj
 0001:000795e0       ?createEdgesToFaces@EdgeList@Gu@physx@@AEAA_NIPEBIPEBG@Z 000000018007a5e0 f   GuEdgeList.obj
 0001:00079840       ?createFacesToEdges@EdgeList@Gu@physx@@AEAA_NIPEBIPEBG@Z 000000018007a840 f   GuEdgeList.obj
 0001:00079c10       ?init@EdgeList@Gu@physx@@QEAA_NAEBUEDGELISTCREATE@23@@Z 000000018007ac10 f   GuEdgeList.obj
 0001:00079d40       ?addAxis@SeparatingAxes@Gu@physx@@QEAA_NAEBV?$PxVec3T@M@3@@Z 000000018007ad40 f   GuSeparatingAxes.obj
 0001:00079e00       ??$kmeans_cluster@V?$PxVec3T@M@physx@@M@@YAIPEBV?$PxVec3T@M@physx@@IIPEAV01@PEAIMM@Z 000000018007ae00 f i GuQuantizer.obj
 0001:0007a7c0       ??_EQuantizer@Gu@physx@@MEAAPEAXI@Z 000000018007b7c0 f i GuQuantizer.obj
 0001:0007a7c0       ??_GQuantizer@Gu@physx@@MEAAPEAXI@Z 000000018007b7c0 f i GuQuantizer.obj
 0001:0007a7f0       ??_EQuantizerImpl@@EEAAPEAXI@Z 000000018007b7f0 f i GuQuantizer.obj
 0001:0007a7f0       ??_GQuantizerImpl@@EEAAPEAXI@Z 000000018007b7f0 f i GuQuantizer.obj
 0001:0007a8c0       ?createQuantizer@Gu@physx@@YAPEAVQuantizer@12@XZ 000000018007b8c0 f   GuQuantizer.obj
 0001:0007a970       ?getDenormalizeCenter@QuantizerImpl@@UEBAAEBV?$PxVec3T@M@physx@@XZ 000000018007b970 f i GuQuantizer.obj
 0001:0007a980       ?getCurrentAABBTreeBounds@PruningPool@Gu@physx@@QEBAAEBVAABBTreeBounds@23@XZ 000000018007b980 f i GuIncrementalAABBPrunerCore.obj
 0001:0007a980       ?getDenormalizeScale@QuantizerImpl@@UEBAAEBV?$PxVec3T@M@physx@@XZ 000000018007b980 f i GuQuantizer.obj
 0001:0007a990       ?kmeansQuantize3D@QuantizerImpl@@UEAAPEBV?$PxVec3T@M@physx@@IPEBV23@I_NIAEAI@Z 000000018007b990 f i GuQuantizer.obj
 0001:0007ac00       ?normalizeInput@QuantizerImpl@@AEAAXIPEBV?$PxVec3T@M@physx@@I@Z 000000018007bc00 f i GuQuantizer.obj
 0001:0007b050       ?release@QuantizerImpl@@UEAAXXZ 000000018007c050 f i GuQuantizer.obj
 0001:0007b070       ??0MeshCleaner@Gu@physx@@QEAA@IPEBV?$PxVec3T@M@2@IPEBIMM@Z 000000018007c070 f   GuMeshCleaner.obj
 0001:0007ba40       ??1MeshCleaner@Gu@physx@@QEAA@XZ 000000018007ca40 f   GuMeshCleaner.obj
 0001:0007bad0       ??0ReducedVertexCloud@Gu@physx@@QEAA@PEBV?$PxVec3T@M@2@I@Z 000000018007cad0 f   GuVertexReducer.obj
 0001:0007baf0       ??1ReducedVertexCloud@Gu@physx@@QEAA@XZ 000000018007caf0 f   GuVertexReducer.obj
 0001:0007bb00       ?clean@ReducedVertexCloud@Gu@physx@@QEAAAEAV123@XZ 000000018007cb00 f   GuVertexReducer.obj
 0001:0007bb70       ?reduce@ReducedVertexCloud@Gu@physx@@QEAA_NPEAUREDUCEDCLOUD@23@@Z 000000018007cb70 f   GuVertexReducer.obj
 0001:0007be10       ??$copy@V?$PxReflectionAllocator@I@physx@@@?$PxArray@IV?$PxReflectionAllocator@I@physx@@@physx@@IEAAXAEBV01@@Z 000000018007ce10 f i GuMeshAnalysis.obj
 0001:0007be80       ?buildConsistentTriangleOrientationMap@MeshAnalyzer@Gu@physx@@SA_NPEBU?$IndexedTriangleT@H@23@IAEAV?$PxArray@_NV?$PxReflectionAllocator@_N@physx@@@3@AEAV?$PxHashMap@_KHU?$PxHash@_K@physx@@VPxAllocator@2@@3@AEAV?$PxArray@V?$PxArray@IV?$PxReflectionAllocator@I@physx@@@physx@@V?$PxReflectionAllocator@V?$PxArray@IV?$PxReflectionAllocator@I@physx@@@physx@@@2@@3@@Z 000000018007ce80 f   GuMeshAnalysis.obj
 0001:0007c230       ?buildTriangleAdjacency@MeshAnalyzer@Gu@physx@@SA_NPEBU?$IndexedTriangleT@H@23@IAEAV?$PxArray@HV?$PxReflectionAllocator@H@physx@@@3@AEAV?$PxHashMap@_KHU?$PxHash@_K@physx@@VPxAllocator@2@@3@@Z 000000018007d230 f   GuMeshAnalysis.obj
 0001:0007c530       ?checkConsistentTriangleOrientation@MeshAnalyzer@Gu@physx@@SA_NPEBU?$IndexedTriangleT@H@23@I@Z 000000018007d530 f   GuMeshAnalysis.obj
 0001:0007c680       ?checkMeshWatertightness@MeshAnalyzer@Gu@physx@@SA_NPEBU?$IndexedTriangleT@H@23@I_N@Z 000000018007d680 f   GuMeshAnalysis.obj
 0001:0007c850       ?destroy@?$PxArray@V?$PxArray@IV?$PxReflectionAllocator@I@physx@@@physx@@V?$PxReflectionAllocator@V?$PxArray@IV?$PxReflectionAllocator@I@physx@@@physx@@@2@@physx@@KAXPEAV?$PxArray@IV?$PxReflectionAllocator@I@physx@@@2@0@Z 000000018007d850 f i GuMeshAnalysis.obj
 0001:0007c8c0       ?erase@?$PxHashBase@V?$PxPair@$$CB_KH@physx@@_KU?$PxHash@_K@2@UGetKey@?$PxHashMapBase@_KHU?$PxHash@_K@physx@@VPxAllocator@2@@2@VPxAllocator@2@$00@physx@@QEAA_NAEB_K@Z 000000018007d8c0 f i GuMeshAnalysis.obj
 0001:0007ca70       ?growAndPushBack@?$PxArray@V?$PxArray@IV?$PxReflectionAllocator@I@physx@@@physx@@V?$PxReflectionAllocator@V?$PxArray@IV?$PxReflectionAllocator@I@physx@@@physx@@@2@@physx@@IEAAAEAV?$PxArray@IV?$PxReflectionAllocator@I@physx@@@2@AEBV32@@Z 000000018007da70 f i GuMeshAnalysis.obj
 0001:0007cbc0       ?makeTriOrientationConsistent@MeshAnalyzer@Gu@physx@@SA_NPEAU?$IndexedTriangleT@H@23@I_N@Z 000000018007dbc0 f   GuMeshAnalysis.obj
 0001:0007cd30       ?recreate@?$PxArray@_NV?$PxReflectionAllocator@_N@physx@@@physx@@IEAAXI@Z 000000018007dd30 f i GuMeshAnalysis.obj
 0001:0007ce20       ?resize@?$PxArray@HV?$PxReflectionAllocator@H@physx@@@physx@@QEAAXIAEBH@Z 000000018007de20 f i GuMeshAnalysis.obj
 0001:0007cee0       ?resize@?$PxArray@_NV?$PxReflectionAllocator@_N@physx@@@physx@@QEAAXIAEB_N@Z 000000018007dee0 f i GuMeshAnalysis.obj
 0001:0007cfa0       ?contactBoxBox@Gu@physx@@YA_NAEBVPxGeometry@2@0AEBUPxTransformPadded@2@1AEBUNarrowPhaseParams@12@AEAUCache@12@AEAVPxContactBuffer@2@PEAVPxRenderOutput@2@@Z 000000018007dfa0 f   GuContactBoxBox.obj
 0001:00080dd0       ?contactCapsuleBox@Gu@physx@@YA_NAEBVPxGeometry@2@0AEBUPxTransformPadded@2@1AEBUNarrowPhaseParams@12@AEAUCache@12@AEAVPxContactBuffer@2@PEAVPxRenderOutput@2@@Z 0000000180081dd0 f   GuContactCapsuleBox.obj
 0001:000815e0       ?contactCapsuleCapsule@Gu@physx@@YA_NAEBVPxGeometry@2@0AEBUPxTransformPadded@2@1AEBUNarrowPhaseParams@12@AEAUCache@12@AEAVPxContactBuffer@2@PEAVPxRenderOutput@2@@Z 00000001800825e0 f   GuContactCapsuleCapsule.obj
 0001:00083fd0       ?contactCapsuleConvex@Gu@physx@@YA_NAEBVPxGeometry@2@0AEBUPxTransformPadded@2@1AEBUNarrowPhaseParams@12@AEAUCache@12@AEAVPxContactBuffer@2@PEAVPxRenderOutput@2@@Z 0000000180084fd0 f   GuContactCapsuleConvex.obj
 0001:00086500       ?contactCapsuleHeightfield@Gu@physx@@YA_NAEBVPxGeometry@2@0AEBUPxTransformPadded@2@1AEBUNarrowPhaseParams@12@AEAUCache@12@AEAVPxContactBuffer@2@PEAVPxRenderOutput@2@@Z 0000000180087500 f   GuContactCapsuleMesh.obj
 0001:00086d30       ?contactCapsuleMesh@Gu@physx@@YA_NAEBVPxGeometry@2@0AEBUPxTransformPadded@2@1AEBUNarrowPhaseParams@12@AEAUCache@12@AEAVPxContactBuffer@2@PEAVPxRenderOutput@2@@Z 0000000180087d30 f   GuContactCapsuleMesh.obj
 0001:00087eb0       ?transformQueryBounds@FastVertex2ShapeScaling@Cm@physx@@QEBAXAEAV?$PxVec3T@M@3@0AEAV?$PxMat33T@M@3@@Z 0000000180088eb0 f i GuContactCapsuleMesh.obj
 0001:0008c140       ?contactBoxConvex@Gu@physx@@YA_NAEBVPxGeometry@2@0AEBUPxTransformPadded@2@1AEBUNarrowPhaseParams@12@AEAUCache@12@AEAVPxContactBuffer@2@PEAVPxRenderOutput@2@@Z 000000018008d140 f   GuContactConvexConvex.obj
 0001:0008c310       ?contactConvexConvex@Gu@physx@@YA_NAEBVPxGeometry@2@0AEBUPxTransformPadded@2@1AEBUNarrowPhaseParams@12@AEAUCache@12@AEAVPxContactBuffer@2@PEAVPxRenderOutput@2@@Z 000000018008d310 f   GuContactConvexConvex.obj
 0001:0008c790       ?transformPlaneToShapeSpace@FastVertex2ShapeScaling@Cm@physx@@QEBAXAEBV?$PxVec3T@M@3@MAEAV43@AEAM@Z 000000018008d790 f i GuContactConvexConvex.obj
 0001:0008cc40       ??_EConvexMeshContactGenerationCallback@@UEAAPEAXI@Z 000000018008dc40 f i GuContactConvexMesh.obj
 0001:0008cc40       ??_GConvexMeshContactGenerationCallback@@UEAAPEAXI@Z 000000018008dc40 f i GuContactConvexMesh.obj
 0001:0008cca0       ?addData@?$CacheMap@UCachedEdge@Gu@physx@@$0IA@@Gu@physx@@QEAA_NAEBUCachedEdge@23@@Z 000000018008dca0 f i GuContactConvexMesh.obj
 0001:0008cd80       ?addData@?$CacheMap@UCachedVertex@Gu@physx@@$0IA@@Gu@physx@@QEAA_NAEBUCachedVertex@23@@Z 000000018008dd80 f i GuContactConvexMesh.obj
 0001:0008ce10       ?allocate@?$PxArray@IV?$PxInlineAllocator@$0BBAA@V?$PxReflectionAllocator@I@physx@@@physx@@@physx@@IEAAPEAII@Z 000000018008de10 f i GuContactConvexMesh.obj
 0001:0008d210       ?contactBoxHeightfield@Gu@physx@@YA_NAEBVPxGeometry@2@0AEBUPxTransformPadded@2@1AEBUNarrowPhaseParams@12@AEAUCache@12@AEAVPxContactBuffer@2@PEAVPxRenderOutput@2@@Z 000000018008e210 f   GuContactConvexMesh.obj
 0001:0008d390       ?contactBoxMesh@Gu@physx@@YA_NAEBVPxGeometry@2@0AEBUPxTransformPadded@2@1AEBUNarrowPhaseParams@12@AEAUCache@12@AEAVPxContactBuffer@2@PEAVPxRenderOutput@2@@Z 000000018008e390 f   GuContactConvexMesh.obj
 0001:0008d560       ?contactConvexHeightfield@Gu@physx@@YA_NAEBVPxGeometry@2@0AEBUPxTransformPadded@2@1AEBUNarrowPhaseParams@12@AEAUCache@12@AEAVPxContactBuffer@2@PEAVPxRenderOutput@2@@Z 000000018008e560 f   GuContactConvexMesh.obj
 0001:0008d6b0       ?contactConvexMesh@Gu@physx@@YA_NAEBVPxGeometry@2@0AEBUPxTransformPadded@2@1AEBUNarrowPhaseParams@12@AEAUCache@12@AEAVPxContactBuffer@2@PEAVPxRenderOutput@2@@Z 000000018008e6b0 f   GuContactConvexMesh.obj
 0001:00090dd0       ?processHit@ConvexMeshContactGenerationCallback@@UEAA_NAEBUPxGeomRaycastHit@physx@@AEBV?$PxVec3T@M@3@11AEAMPEBI@Z 0000000180091dd0 f i GuContactConvexMesh.obj
 0001:00091790       ?recreate@?$PxArray@IV?$PxInlineAllocator@$0BBAA@V?$PxReflectionAllocator@I@physx@@@physx@@@physx@@IEAAXI@Z 0000000180092790 f i GuContactConvexMesh.obj
 0001:00092c00       ?contactPlaneBox@Gu@physx@@YA_NAEBVPxGeometry@2@0AEBUPxTransformPadded@2@1AEBUNarrowPhaseParams@12@AEAUCache@12@AEAVPxContactBuffer@2@PEAVPxRenderOutput@2@@Z 0000000180093c00 f   GuContactPlaneBox.obj
 0001:000938a0       ?contactPlaneCapsule@Gu@physx@@YA_NAEBVPxGeometry@2@0AEBUPxTransformPadded@2@1AEBUNarrowPhaseParams@12@AEAUCache@12@AEAVPxContactBuffer@2@PEAVPxRenderOutput@2@@Z 00000001800948a0 f   GuContactPlaneCapsule.obj
 0001:00093f70       ?contactPlaneConvex@Gu@physx@@YA_NAEBVPxGeometry@2@0AEBUPxTransformPadded@2@1AEBUNarrowPhaseParams@12@AEAUCache@12@AEAVPxContactBuffer@2@PEAVPxRenderOutput@2@@Z 0000000180094f70 f   GuContactPlaneConvex.obj
 0001:00095ca0       ?contactPolygonPolygonExt@Gu@physx@@YA_NIPEBV?$PxVec3T@M@2@PEBEAEBV?$PxMat34T@M@2@AEBVPxPlane@2@AEBV?$PxMat33T@M@2@I01234AEBV32@22IIAEAVPxContactBuffer@2@_N5M@Z 0000000180096ca0 f   GuContactPolygonPolygon.obj
 0001:00097410       ?findRotationMatrixFromZ@Gu@physx@@YA?AV?$PxMat33T@M@2@AEBV?$PxVec3T@M@2@@Z 0000000180098410 f   GuContactPolygonPolygon.obj
 0001:00097e30       ?contactSphereBox@Gu@physx@@YA_NAEBVPxGeometry@2@0AEBUPxTransformPadded@2@1AEBUNarrowPhaseParams@12@AEAUCache@12@AEAVPxContactBuffer@2@PEAVPxRenderOutput@2@@Z 0000000180098e30 f   GuContactSphereBox.obj
 0001:00098400       ?contactSphereCapsule@Gu@physx@@YA_NAEBVPxGeometry@2@0AEBUPxTransformPadded@2@1AEBUNarrowPhaseParams@12@AEAUCache@12@AEAVPxContactBuffer@2@PEAVPxRenderOutput@2@@Z 0000000180099400 f   GuContactSphereCapsule.obj
 0001:000991e0       ?contactSphereHeightfield@Gu@physx@@YA_NAEBVPxGeometry@2@0AEBUPxTransformPadded@2@1AEBUNarrowPhaseParams@12@AEAUCache@12@AEAVPxContactBuffer@2@PEAVPxRenderOutput@2@@Z 000000018009a1e0 f   GuContactSphereMesh.obj
 0001:00099bd0       ?contactSphereMesh@Gu@physx@@YA_NAEBVPxGeometry@2@0AEBUPxTransformPadded@2@1AEBUNarrowPhaseParams@12@AEAUCache@12@AEAVPxContactBuffer@2@PEAVPxRenderOutput@2@@Z 000000018009abd0 f   GuContactSphereMesh.obj
 0001:0009bf80       ?contactSpherePlane@Gu@physx@@YA_NAEBVPxGeometry@2@0AEBUPxTransformPadded@2@1AEBUNarrowPhaseParams@12@AEAUCache@12@AEAVPxContactBuffer@2@PEAVPxRenderOutput@2@@Z 000000018009cf80 f   GuContactSpherePlane.obj
 0001:0009c190       ?contactSphereSphere@Gu@physx@@YA_NAEBVPxGeometry@2@0AEBUPxTransformPadded@2@1AEBUNarrowPhaseParams@12@AEAUCache@12@AEAVPxContactBuffer@2@PEAVPxRenderOutput@2@@Z 000000018009d190 f   GuContactSphereSphere.obj
 0001:0009c310       ?contactCustomGeometryGeometry@Gu@physx@@YA_NAEBVPxGeometry@2@0AEBUPxTransformPadded@2@1AEBUNarrowPhaseParams@12@AEAUCache@12@AEAVPxContactBuffer@2@PEAVPxRenderOutput@2@@Z 000000018009d310 f   GuContactCustomGeometry.obj
 0001:0009c370       ?contactGeometryCustomGeometry@Gu@physx@@YA_NAEBVPxGeometry@2@0AEBUPxTransformPadded@2@1AEBUNarrowPhaseParams@12@AEAUCache@12@AEAVPxContactBuffer@2@PEAVPxRenderOutput@2@@Z 000000018009d370 f   GuContactCustomGeometry.obj
 0001:0009c430       ?selectNormal@Gu@physx@@YA_NEMM@Z 000000018009d430 f   GuFeatureCode.obj
 0001:0009c4b0       ??0BigConvexData@physx@@QEAA@XZ 000000018009d4b0 f   GuBigConvexData.obj
 0001:0009c4d0       ??1BigConvexData@physx@@QEAA@XZ 000000018009d4d0 f   GuBigConvexData.obj
 0001:0009c590       ?ComputeNearestOffset@BigConvexData@physx@@QEBAIAEBV?$PxVec3T@M@2@@Z 000000018009d590 f   GuBigConvexData.obj
 0001:0009c690       ?ComputeOffset@BigConvexData@physx@@QEBAIAEBV?$PxVec3T@M@2@@Z 000000018009d690 f   GuBigConvexData.obj
 0001:0009c790       ?CreateOffsets@BigConvexData@physx@@IEAAXXZ 000000018009d790 f   GuBigConvexData.obj
 0001:0009c7e0       ?Load@BigConvexData@physx@@QEAA_NAEAVPxInputStream@2@@Z 000000018009d7e0 f   GuBigConvexData.obj
 0001:0009c8f0       ?VLoad@BigConvexData@physx@@IEAA_NAEAVPxInputStream@2@@Z 000000018009d8f0 f   GuBigConvexData.obj
 0001:0009ca90       ?exportExtraData@BigConvexData@physx@@QEAAXAEAVPxSerializationContext@2@@Z 000000018009da90 f   GuBigConvexData.obj
 0001:0009cb10       ?importExtraData@BigConvexData@physx@@QEAAXAEAVPxDeserializationContext@2@@Z 000000018009db10 f   GuBigConvexData.obj
 0001:0009cb80       ?findUniqueConvexEdges@Gu@physx@@YAIIPEIAUConvexEdge@12@IPEIBUHullPolygonData@12@PEIBE@Z 000000018009db80 f   GuConvexHelper.obj
 0001:0009ccc0       ?getConvexData@Gu@physx@@YA_NAEBVPxConvexMeshGeometry@2@AEAVFastVertex2ShapeScaling@Cm@2@AEAVPxBounds3@2@AEAUPolygonalData@12@@Z 000000018009dcc0 f   GuConvexHelper.obj
 0001:0009cf50       ?getScaledConvex@Gu@physx@@YAXAEAPEAV?$PxVec3T@M@2@AEAPEAEPEAV32@PEAE_NPEBV32@PEBEIAEBVFastVertex2ShapeScaling@Cm@2@@Z 000000018009df50 f   GuConvexHelper.obj
 0001:0009d080       ??0ConvexMesh@Gu@physx@@QEAA@PEAVMeshFactory@12@@Z 000000018009e080 f   GuConvexMesh.obj
 0001:0009d110       ??0ConvexMesh@Gu@physx@@QEAA@PEAVMeshFactory@12@AEAUConvexHullInitData@12@@Z 000000018009e110 f   GuConvexMesh.obj
 0001:0009d230       ??_EConvexMesh@Gu@physx@@UEAAPEAXI@Z 000000018009e230 f i GuConvexMesh.obj
 0001:0009d230       ??_GConvexMesh@Gu@physx@@UEAAPEAXI@Z 000000018009e230 f i GuConvexMesh.obj
 0001:0009d340       ??_EPxBVH@physx@@MEAAPEAXI@Z 000000018009e340 f i GuBVH.obj
 0001:0009d340       ??_EPxBase@physx@@MEAAPEAXI@Z 000000018009e340 f i GuConvexMesh.obj
 0001:0009d340       ??_GPxBVH@physx@@MEAAPEAXI@Z 000000018009e340 f i GuBVH.obj
 0001:0009d340       ??_GPxBase@physx@@MEAAPEAXI@Z 000000018009e340 f i GuConvexMesh.obj
 0001:0009d370       ?acquireReference@ConvexMesh@Gu@physx@@UEAAXXZ 000000018009e370 f   GuConvexMesh.obj
 0001:0009d370       ?acquireReference@HeightField@Gu@physx@@UEAAXXZ 000000018009e370 f   GuHeightField.obj
 0001:0009d370       ?acquireReference@SoftBodyAuxData@Gu@physx@@UEAAXXZ 000000018009e370 f   GuTetrahedronMesh.obj
 0001:0009d370       ?acquireReference@SoftBodyMesh@Gu@physx@@UEAAXXZ 000000018009e370 f   GuTetrahedronMesh.obj
 0001:0009d370       ?acquireReference@TetrahedronMesh@Gu@physx@@UEAAXXZ 000000018009e370 f   GuTetrahedronMesh.obj
 0001:0009d370       ?acquireReference@TriangleMesh@Gu@physx@@UEAAXXZ 000000018009e370 f   GuTriangleMesh.obj
 0001:0009d840       ?createObject@ConvexMesh@Gu@physx@@SAPEAV123@AEAPEAEAEAVPxDeserializationContext@3@@Z 000000018009e840 f   GuConvexMesh.obj
 0001:0009d930       ?exportExtraData@ConvexMesh@Gu@physx@@UEAAXAEAVPxSerializationContext@3@@Z 000000018009e930 f   GuConvexMesh.obj
 0001:0009da00       ?getConcreteTypeName@PxConvexMesh@physx@@UEBAPEBDXZ 000000018009ea00 f i GuConvexMesh.obj
 0001:0009da10       ?getIndexBuffer@ConvexMesh@Gu@physx@@UEBAPEBEXZ 000000018009ea10 f i GuConvexMesh.obj
 0001:0009da50       ?getLocalBounds@ConvexMesh@Gu@physx@@UEBA?AVPxBounds3@3@XZ 000000018009ea50 f   GuConvexMesh.obj
 0001:0009dae0       ?getMassInformation@ConvexMesh@Gu@physx@@UEBAXAEAMAEAV?$PxMat33T@M@3@AEAV?$PxVec3T@M@3@@Z 000000018009eae0 f   GuConvexMesh.obj
 0001:0009db50       ?getNbPolygons@ConvexMesh@Gu@physx@@UEBAIXZ 000000018009eb50 f i GuConvexMesh.obj
 0001:0009db60       ?getNbVertices@ConvexMesh@Gu@physx@@UEBAIXZ 000000018009eb60 f i GuConvexMesh.obj
 0001:0009db70       ?getPolygonData@ConvexMesh@Gu@physx@@UEBA_NIAEAUPxHullPolygon@3@@Z 000000018009eb70 f   GuConvexMesh.obj
 0001:0009dbc0       ?getReferenceCount@ConvexMesh@Gu@physx@@UEBAIXZ 000000018009ebc0 f   GuConvexMesh.obj
 0001:0009dbc0       ?getReferenceCount@HeightField@Gu@physx@@UEBAIXZ 000000018009ebc0 f   GuHeightField.obj
 0001:0009dbc0       ?getReferenceCount@SoftBodyAuxData@Gu@physx@@UEBAIXZ 000000018009ebc0 f   GuTetrahedronMesh.obj
 0001:0009dbc0       ?getReferenceCount@SoftBodyMesh@Gu@physx@@UEBAIXZ 000000018009ebc0 f   GuTetrahedronMesh.obj
 0001:0009dbc0       ?getReferenceCount@TetrahedronMesh@Gu@physx@@UEBAIXZ 000000018009ebc0 f   GuTetrahedronMesh.obj
 0001:0009dbc0       ?getReferenceCount@TriangleMesh@Gu@physx@@UEBAIXZ 000000018009ebc0 f   GuTriangleMesh.obj
 0001:0009dbc0       ?length@DNameStatusNode@@UEBAHXZ 000000018009ebc0 f   libvcruntime:undname.obj
 0001:0009dbc0       ?raw_length@DNameStatusNode@@UEBAHXZ 000000018009ebc0 f   libvcruntime:undname.obj
 0001:0009dbd0       ?getSDF@ConvexMesh@Gu@physx@@UEBAPEBMXZ 000000018009ebd0 f   GuConvexMesh.obj
 0001:0009dbe0       ?getVertices@ConvexMesh@Gu@physx@@UEBAPEBV?$PxVec3T@M@3@XZ 000000018009ebe0 f i GuConvexMesh.obj
 0001:0009dc00       ?isGpuCompatible@ConvexMesh@Gu@physx@@UEBA_NXZ 000000018009ec00 f   GuConvexMesh.obj
 0001:0009dc40       ?isKindOf@PxBase@physx@@MEBA_NPEBD@Z 000000018009ec40 f i GuConvexMesh.obj
 0001:0009dc60       ?isKindOf@PxConvexMesh@physx@@MEBA_NPEBD@Z 000000018009ec60 f i GuConvexMesh.obj
 0001:0009dcf0       ?isReleasable@PxBase@physx@@UEBA_NXZ 000000018009ecf0 f i GuConvexMesh.obj
 0001:0009dd00       ?load@ConvexMesh@Gu@physx@@QEAA_NAEAVPxInputStream@3@@Z 000000018009ed00 f   GuConvexMesh.obj
 0001:0009e250       ?onRefCountZero@ConvexMesh@Gu@physx@@UEAAXXZ 000000018009f250 f   GuConvexMesh.obj
 0001:0009e380       ?release@ConvexMesh@Gu@physx@@UEAAXXZ 000000018009f380 f   GuConvexMesh.obj
 0001:0009e380       ?release@HeightField@Gu@physx@@UEAAXXZ 000000018009f380 f   GuHeightField.obj
 0001:0009e380       ?release@SoftBodyAuxData@Gu@physx@@UEAAXXZ 000000018009f380 f   GuTetrahedronMesh.obj
 0001:0009e380       ?release@SoftBodyMesh@Gu@physx@@UEAAXXZ 000000018009f380 f   GuTetrahedronMesh.obj
 0001:0009e380       ?release@TetrahedronMesh@Gu@physx@@UEAAXXZ 000000018009f380 f   GuTetrahedronMesh.obj
 0001:0009e380       ?release@TriangleMesh@Gu@physx@@UEAAXXZ 000000018009f380 f   GuTriangleMesh.obj
 0001:0009e3b0       ??Dphysx@@YA?AV?$PxMat34T@M@0@AEBVPxMeshScale@0@AEBV10@@Z 000000018009f3b0 f i GuConvexUtilsInternal.obj
 0001:0009e950       ?computeHullOBB@Gu@physx@@YAXAEAVBox@12@AEBVPxBounds3@2@MAEBV?$PxMat34T@M@2@2AEBVFastVertex2ShapeScaling@Cm@2@_N@Z 000000018009f950 f   GuConvexUtilsInternal.obj
 0001:0009ee00       ?computeOBBAroundConvex@Gu@physx@@YAXAEAVBox@12@AEBVPxConvexMeshGeometry@2@PEBVPxConvexMesh@2@AEBV?$PxTransformT@M@2@@Z 000000018009fe00 f   GuConvexUtilsInternal.obj
 0001:0009f650       ?computeVertexSpaceOBB@Gu@physx@@YAXAEAVBox@12@AEBV312@AEBV?$PxTransformT@M@2@AEBVPxMeshScale@2@@Z 00000001800a0650 f   GuConvexUtilsInternal.obj
 0001:0009f980       ?transform@physx@@YA?AVBox@Gu@1@AEBV?$PxMat34T@M@1@AEBV231@@Z 00000001800a0980 f i GuConvexUtilsInternal.obj
 0001:0009fbd0       ?localSearch@physx@@YAXAEAIAEBV?$PxVec3T@M@1@PEBV21@PEBUBigConvexRawData@Gu@1@@Z 00000001800a0bd0 f   GuHillClimbing.obj
 0001:0009fd00       ??0PCMPolygonalBox@Gu@physx@@QEAA@AEBV?$PxVec3T@M@2@@Z 00000001800a0d00 f   GuPCMShapeConvex.obj
 0001:0009fd00       ??0PolygonalBox@Gu@physx@@QEAA@AEBV?$PxVec3T@M@2@@Z 00000001800a0d00 f   GuShapeConvex.obj
 0001:000a11c0       ?getPolygonalData@PolygonalBox@Gu@physx@@QEBAXPEIAUPolygonalData@23@@Z 00000001800a21c0 f   GuShapeConvex.obj
 0001:000a1230       ?getPolygonalData_Convex@Gu@physx@@YAXPEIAUPolygonalData@12@PEIBUConvexHullData@12@AEBVFastVertex2ShapeScaling@Cm@2@@Z 00000001800a2230 f   GuShapeConvex.obj
 0001:000a1390       ?distancePointBoxSquared@Gu@physx@@YAMAEBV?$PxVec3T@M@2@00AEBV?$PxMat33T@M@2@PEAV32@@Z 00000001800a2390 f   GuDistancePointBox.obj
 0001:000a14e0       ?closestPtPointTriangle@Gu@physx@@YA?AV?$PxVec3T@M@2@AEBV32@000AEAM1@Z 00000001800a24e0 f   GuDistancePointTriangle.obj
 0001:000a1a00       ?distancePointTriangleSquared2UnitBox@Gu@physx@@YA?AT__m128@@AEBT3@000AEAT3@11@Z 00000001800a2a00 f   GuDistancePointTriangle.obj
 0001:000a1b20       ?distancePointTriangleSquared@Gu@physx@@YA?AT__m128@@AEBT3@000AEAT3@11@Z 00000001800a2b20 f   GuDistancePointTriangle.obj
 0001:000a2870       ?distanceSegmentBoxSquared@Gu@physx@@YAMAEBV?$PxVec3T@M@2@000AEBV?$PxMat33T@M@2@PEAMPEAV32@@Z 00000001800a3870 f   GuDistanceSegmentBox.obj
 0001:000a30f0       ?distanceSegmentSegmentSquared4@Gu@physx@@YA?AT__m128@@AEBT3@000000000AEAT3@1@Z 00000001800a40f0 f   GuDistanceSegmentSegment.obj
 0001:000a3400       ?distanceSegmentSegmentSquared@Gu@physx@@YA?AT__m128@@AEBT3@000AEAT3@1@Z 00000001800a4400 f   GuDistanceSegmentSegment.obj
 0001:000a35c0       ?distanceSegmentSegmentSquared@Gu@physx@@YAMAEBV?$PxVec3T@M@2@000PEAM1@Z 00000001800a45c0 f   GuDistanceSegmentSegment.obj
 0001:000a3850       ?distanceSegmentSegmentSquared@Gu@physx@@YAMAEBV?$PxVec3T@M@2@0M00MPEAM1@Z 00000001800a4850 f   GuDistanceSegmentSegment.obj
 0001:000a3f90       ?distanceSegmentTriangleSquared@Gu@physx@@YA?AT__m128@@AEBT3@0000AEAT3@1@Z 00000001800a4f90 f   GuDistanceSegmentTriangle.obj
 0001:000a46d0       ?distanceSegmentTriangleSquared@Gu@physx@@YAMAEBV?$PxVec3T@M@2@0000PEAM11@Z 00000001800a56d0 f   GuDistanceSegmentTriangle.obj
 0001:000a5d40       ?distanceTriangleTriangleSquared@Gu@physx@@YAMAEAV?$PxVec3T@M@2@0QEBVPxVec3Padded@2@1@Z 00000001800a6d40 f   GuDistanceTriangleTriangle.obj
 0001:000a6870       ?PointOutsideOfPlane4@Gu@physx@@YA?AV?$PxVec4T@M@2@AEBV?$PxVec3T@M@2@0000@Z 00000001800a7870 f   GuDistancePointTetrahedron.obj
 0001:000a6ce0       ?closestPtPointTetrahedron@Gu@physx@@YA?AV?$PxVec3T@M@2@AEBV32@0000AEBV?$PxVec4T@M@2@@Z 00000001800a7ce0 f   GuDistancePointTetrahedron.obj
 0001:000a7dd0       ?PenetrationDepth@EPA@Gu@physx@@QEAA?AW4GjkStatus@23@AEBUGjkConvex@23@0PEIBT__m128@@1E_NT6@AEAUGjkOutput@23@@Z 00000001800a8dd0 f   GuEPA.obj
 0001:000a8890       ?addFacet@EPA@Gu@physx@@QEAAPEAVFacet@23@IIIAEBT__m128@@@Z 00000001800a9890 f   GuEPA.obj
 0001:000a8cc0       ?epaPenetration@Gu@physx@@YA?AW4GjkStatus@12@AEBUGjkConvex@12@0PEIBE1E_NT__m128@@AEAUGjkOutput@12@@Z 00000001800a9cc0 f   GuEPA.obj
 0001:000a8e30       ?epaPenetration@Gu@physx@@YA?AW4GjkStatus@12@AEBUGjkConvex@12@0PEIBT__m128@@1E_NT5@AEAUGjkOutput@12@@Z 00000001800a9e30 f   GuEPA.obj
 0001:000a8ee0       ?silhouette@Facet@Gu@physx@@QEAAXAEBT__m128@@PEIBT4@1AEAVEdgeBuffer@23@AEAV?$InlineDeferredIDPool@$0EA@@Cm@3@@Z 00000001800a9ee0 f   GuEPA.obj
 0001:000a90b0       ?closestPtPointTetrahedron@Gu@physx@@YA?AT__m128@@PEIAT3@00AEAI@Z 00000001800aa0b0 f   GuGJKSimplex.obj
 0001:000a9820       ?closestPtPointTetrahedron@Gu@physx@@YA?AT__m128@@PEIAT3@00PEIAH1AEAI@Z 00000001800aa820 f   GuGJKSimplex.obj
 0001:000ab2a0       ??$gjk@UGjkConvex@Gu@physx@@U123@@Gu@physx@@YA?AW4GjkStatus@01@AEBUGjkConvex@01@0AEBT__m128@@1AEAT4@222@Z 00000001800ac2a0 f i GuGJKTest.obj
 0001:000abec0       ??$gjkPenetration@UGjkConvex@Gu@physx@@U123@@Gu@physx@@YA?AW4GjkStatus@01@AEBUGjkConvex@01@0AEBT__m128@@1_NPEIAE3AEAEAEAUGjkOutput@01@@Z 00000001800acec0 f i GuGJKTest.obj
 0001:000abf30       ??$gjkPenetration@UGjkConvex@Gu@physx@@U123@@Gu@physx@@YA?AW4GjkStatus@01@AEBUGjkConvex@01@0AEBT__m128@@1_NPEIAE3PEIAT4@4AEAEAEAUGjkOutput@01@@Z 00000001800acf30 f i GuGJKTest.obj
 0001:000ad380       ?testEpaPenetration@Gu@physx@@YA?AW4GjkStatus@12@AEBUGjkConvex@12@0PEBE1EAEAUGjkOutput@12@@Z 00000001800ae380 f   GuGJKTest.obj
 0001:000ad3d0       ?testGjk@Gu@physx@@YA?AW4GjkStatus@12@AEBUGjkConvex@12@0AEBT__m128@@1AEAT5@222@Z 00000001800ae3d0 f   GuGJKTest.obj
 0001:000ad3e0       ?testGjkPenetration@Gu@physx@@YA?AW4GjkStatus@12@AEBUGjkConvex@12@0AEBT__m128@@1PEAE2AEAEAEAUGjkOutput@12@@Z 00000001800ae3e0 f   GuGJKTest.obj
 0001:000ad430       ??0HeightField@Gu@physx@@QEAA@PEAVMeshFactory@12@@Z 00000001800ae430 f   GuHeightField.obj
 0001:000ad480       ??0HeightField@Gu@physx@@QEAA@PEAVMeshFactory@12@AEAUHeightFieldData@12@@Z 00000001800ae480 f   GuHeightField.obj
 0001:000ad530       ??1HeightField@Gu@physx@@UEAA@XZ 00000001800ae530 f   GuHeightField.obj
 0001:000ad5b0       ??_EHeightField@Gu@physx@@UEAAPEAXI@Z 00000001800ae5b0 f i GuHeightField.obj
 0001:000ad5b0       ??_GHeightField@Gu@physx@@UEAAPEAXI@Z 00000001800ae5b0 f i GuHeightField.obj
 0001:000ad660       ?computeCellCoordinates@HeightField@Gu@physx@@QEBAIMMAEAM0@Z 00000001800ae660 f   GuHeightField.obj
 0001:000ad780       ?createObject@HeightField@Gu@physx@@SAPEAV123@AEAPEAEAEAVPxDeserializationContext@3@@Z 00000001800ae780 f   GuHeightField.obj
 0001:000ad7d0       ?exportExtraData@HeightField@Gu@physx@@UEAAXAEAVPxSerializationContext@3@@Z 00000001800ae7d0 f   GuHeightField.obj
 0001:000ad820       ?getConcreteTypeName@PxHeightField@physx@@UEBAPEBDXZ 00000001800ae820 f i GuHeightField.obj
 0001:000ad830       ?getConvexEdgeThreshold@HeightField@Gu@physx@@UEBAMXZ 00000001800ae830 f i GuHeightField.obj
 0001:000ad840       ?getFlags@HeightField@Gu@physx@@UEBA?AV?$PxFlags@W4Enum@PxHeightFieldFlag@physx@@G@3@XZ 00000001800ae840 f i GuHeightField.obj
 0001:000ad850       ?getFormat@HeightField@Gu@physx@@UEBA?AW4Enum@PxHeightFieldFormat@3@XZ 00000001800ae850 f i GuHeightField.obj
 0001:000ad860       ?getHeight@HeightField@Gu@physx@@UEBAMMM@Z 00000001800ae860 f i GuHeightField.obj
 0001:000ad980       ?getNbColumns@HeightField@Gu@physx@@UEBAIXZ 00000001800ae980 f i GuHeightField.obj
 0001:000ad990       ?getNbBounds@BVH@Gu@physx@@UEBAIXZ 00000001800ae990 f i GuBVH.obj
 0001:000ad990       ?getNbPrimitives@SourceMesh@Gu@physx@@UEBAIXZ 00000001800ae990 f i GuBV4.obj
 0001:000ad990       ?getNbPrimitives@TetrahedronSourceMesh@Gu@physx@@UEBAIXZ 00000001800ae990 f i GuBV4.obj
 0001:000ad990       ?getNbRows@HeightField@Gu@physx@@UEBAIXZ 00000001800ae990 f i GuHeightField.obj
 0001:000ad9a0       ?getSample@HeightField@Gu@physx@@UEBAAEBUPxHeightFieldSample@3@II@Z 00000001800ae9a0 f i GuHeightField.obj
 0001:000ad9b0       ?getSampleStride@HeightField@Gu@physx@@UEBAIXZ 00000001800ae9b0 f i GuHeightField.obj
 0001:000ad9c0       ?getTimestamp@HeightField@Gu@physx@@UEBAIXZ 00000001800ae9c0 f i GuHeightField.obj
 0001:000ad9d0       ?getTriangleMaterialIndex@HeightField@Gu@physx@@UEBAGI@Z 00000001800ae9d0 f i GuHeightField.obj
 0001:000ada00       ?getTriangleNormal@HeightField@Gu@physx@@UEBA?AV?$PxVec3T@M@3@I@Z 00000001800aea00 f i GuHeightField.obj
 0001:000ada20       ?getTriangleNormalInternal@HeightField@Gu@physx@@QEBA?AV?$PxVec3T@M@3@I@Z 00000001800aea20 f i GuHeightField.obj
 0001:000add50       ?isCollisionVertexPreca@HeightField@Gu@physx@@QEBA_NIIIG@Z 00000001800aed50 f   GuHeightField.obj
 0001:000addf0       ?isConvexVertex@HeightField@Gu@physx@@QEBA_NIII@Z 00000001800aedf0 f i GuHeightField.obj
 0001:000adec0       ?isKindOf@PxHeightField@physx@@MEBA_NPEBD@Z 00000001800aeec0 f i GuHeightField.obj
 0001:000adf50       ?isSolidVertex@HeightField@Gu@physx@@QEBA_NIIIGAEA_N@Z 00000001800aef50 f   GuHeightField.obj
 0001:000ae1e0       ?load@HeightField@Gu@physx@@QEAA_NAEAVPxInputStream@3@@Z 00000001800af1e0 f   GuHeightField.obj
 0001:000ae540       ?loadFromDesc@HeightField@Gu@physx@@QEAA_NAEBVPxHeightFieldDesc@3@@Z 00000001800af540 f   GuHeightField.obj
 0001:000ae740       ?modifySamples@HeightField@Gu@physx@@UEAA_NHHAEBVPxHeightFieldDesc@3@_N@Z 00000001800af740 f   GuHeightField.obj
 0001:000aeab0       ?onRefCountZero@HeightField@Gu@physx@@UEAAXXZ 00000001800afab0 f   GuHeightField.obj
 0001:000aeb80       ?parseTrianglesForCollisionVertices@HeightField@Gu@physx@@QEAAXG@Z 00000001800afb80 f   GuHeightField.obj
 0001:000af090       ?releaseMemory@HeightField@Gu@physx@@QEAAXXZ 00000001800b0090 f   GuHeightField.obj
 0001:000af0e0       ?resizeAndClear@?$PxBitMapBase@VPxAllocator@physx@@@physx@@QEAAXI@Z 00000001800b00e0 f i GuHeightField.obj
 0001:000af190       ?save@HeightField@Gu@physx@@QEAA_NAEAVPxOutputStream@3@_N@Z 00000001800b0190 f   GuHeightField.obj
 0001:000af3d0       ?saveCells@HeightField@Gu@physx@@UEBAIPEAXI@Z 00000001800b03d0 f   GuHeightField.obj
 0001:000af410       ?computeLocalBounds@HeightFieldUtil@Gu@physx@@QEBAXAEAVPxBounds3@3@@Z 00000001800b0410 f   GuHeightFieldUtil.obj
 0001:000af8e0       ?getTriangle@HeightFieldUtil@Gu@physx@@QEBAIAEBV?$PxTransformT@M@3@AEAVPxTriangle@3@PEAI2I_N3@Z 00000001800b08e0 f   GuHeightFieldUtil.obj
 0001:000b03e0       ?getTriangleAdjacencyIndices@HeightField@Gu@physx@@QEBAXIIIIAEAI00@Z 00000001800b13e0 f i GuHeightFieldUtil.obj
 0001:000b0590       ?getTriangleVertexIndices@HeightField@Gu@physx@@QEBAXIAEAI00@Z 00000001800b1590 f i GuHeightFieldUtil.obj
 0001:000b0650       ?overlapAABBTriangles@HeightFieldUtil@Gu@physx@@QEBAXAEBVPxBounds3@3@AEAVOverlapReport@23@I@Z 00000001800b1650 f   GuHeightFieldUtil.obj
 0001:000b0ab0       ??$gjk@U?$RelativeConvex@VTriangleV@Gu@physx@@@Gu@physx@@U?$LocalConvex@VConvexHullV@Gu@physx@@@23@@Gu@physx@@YA?AW4GjkStatus@01@AEBU?$RelativeConvex@VTriangleV@Gu@physx@@@01@AEBU?$LocalConvex@VConvexHullV@Gu@physx@@@01@AEBT__m128@@2AEAT5@333@Z 00000001800b1ab0 f i GuOverlapTestsHF.obj
 0001:000b19f0       ?GeomOverlapCallback_BoxHeightfield@@YA_NAEBVPxGeometry@physx@@AEBV?$PxTransformT@M@2@01PEAUTriggerCache@Gu@2@PEAUPxQueryThreadContext@2@@Z 00000001800b29f0 f   GuOverlapTestsHF.obj
 0001:000b1f50       ?GeomOverlapCallback_CapsuleHeightfield@@YA_NAEBVPxGeometry@physx@@AEBV?$PxTransformT@M@2@01PEAUTriggerCache@Gu@2@PEAUPxQueryThreadContext@2@@Z 00000001800b2f50 f   GuOverlapTestsHF.obj
 0001:000b2550       ?GeomOverlapCallback_ConvexHeightfield@@YA_NAEBVPxGeometry@physx@@AEBV?$PxTransformT@M@2@01PEAUTriggerCache@Gu@2@PEAUPxQueryThreadContext@2@@Z 00000001800b3550 f   GuOverlapTestsHF.obj
 0001:000b2f90       ?GeomOverlapCallback_SphereHeightfield@@YA_NAEBVPxGeometry@physx@@AEBV?$PxTransformT@M@2@01PEAUTriggerCache@Gu@2@PEAUPxQueryThreadContext@2@@Z 00000001800b3f90 f   GuOverlapTestsHF.obj
 0001:000b3b50       ??$gjkRaycast@U?$LocalConvex@VTriangleV@Gu@physx@@@Gu@physx@@U?$LocalConvex@VConvexHullV@Gu@physx@@@23@@Gu@physx@@YA_NAEBU?$LocalConvex@VTriangleV@Gu@physx@@@01@AEBU?$LocalConvex@VConvexHullV@Gu@physx@@@01@AEBT__m128@@222AEAT4@33M@Z 00000001800b4b50 f i GuSweepsHF.obj
 0001:000b4950       ??$traceSegment@VBoxTraceSegmentReport@@$0A@$00@HeightFieldTraceUtil@Gu@physx@@QEBAXAEBV?$PxVec3T@M@2@0MPEAVBoxTraceSegmentReport@@AEBVPxBounds3@2@_NPEBV32@@Z 00000001800b5950 f i GuSweepsHF.obj
 0001:000b4950       ??$traceSegment@VCapsuleTraceSegmentReport@@$0A@$00@HeightFieldTraceUtil@Gu@physx@@QEBAXAEBV?$PxVec3T@M@2@0MPEAVCapsuleTraceSegmentReport@@AEBVPxBounds3@2@_NPEBV32@@Z 00000001800b5950 f i GuSweepsHF.obj
 0001:000b4950       ??$traceSegment@VConvexTraceSegmentReport@@$0A@$00@HeightFieldTraceUtil@Gu@physx@@QEBAXAEBV?$PxVec3T@M@2@0MPEAVConvexTraceSegmentReport@@AEBVPxBounds3@2@_NPEBV32@@Z 00000001800b5950 f i GuSweepsHF.obj
 0001:000b5120       ??0ConvexTraceSegmentReport@@QEAA@AEBVHeightFieldUtil@Gu@physx@@AEBUConvexHullData@23@AEBVPxMeshScale@3@AEBV?$PxTransformT@M@3@3AEBV?$PxVec3T@M@3@MV?$PxFlags@W4Enum@PxHitFlag@physx@@G@3@M@Z 00000001800b6120 f i GuSweepsHF.obj
 0001:000b5aa0       ??_EBoxTraceSegmentReport@@UEAAPEAXI@Z 00000001800b6aa0 f i GuSweepsHF.obj
 0001:000b5aa0       ??_GBoxTraceSegmentReport@@UEAAPEAXI@Z 00000001800b6aa0 f i GuSweepsHF.obj
 0001:000b5ad0       ??_ECapsuleTraceSegmentReport@@UEAAPEAXI@Z 00000001800b6ad0 f i GuSweepsHF.obj
 0001:000b5ad0       ??_GCapsuleTraceSegmentReport@@UEAAPEAXI@Z 00000001800b6ad0 f i GuSweepsHF.obj
 0001:000b5b00       ??_EConvexTraceSegmentReport@@UEAAPEAXI@Z 00000001800b6b00 f i GuSweepsHF.obj
 0001:000b5b00       ??_GConvexTraceSegmentReport@@UEAAPEAXI@Z 00000001800b6b00 f i GuSweepsHF.obj
 0001:000b5b30       ??_EHeightFieldTraceSegmentReport@@UEAAPEAXI@Z 00000001800b6b30 f i GuSweepsHF.obj
 0001:000b5b30       ??_GHeightFieldTraceSegmentReport@@UEAAPEAXI@Z 00000001800b6b30 f i GuSweepsHF.obj
 0001:000b5b60       ?finalizeHit@ConvexTraceSegmentReport@@QEAA_NAEAUPxGeomSweepHit@physx@@AEBVPxHeightFieldGeometry@3@AEBV?$PxTransformT@M@3@AEBVPxConvexMeshGeometry@3@2AEBV?$PxVec3T@M@3@M@Z 00000001800b6b60 f i GuSweepsHF.obj
 0001:000b5d90       ?onEvent@BoxTraceSegmentReport@@UEAA_NIPEBI@Z 00000001800b6d90 f i GuSweepsHF.obj
 0001:000b61e0       ?onEvent@CapsuleTraceSegmentReport@@UEAA_NIPEBI@Z 00000001800b71e0 f i GuSweepsHF.obj
 0001:000b6400       ?onEvent@ConvexTraceSegmentReport@@UEAA_NIPEBI@Z 00000001800b7400 f i GuSweepsHF.obj
 0001:000b69c0       ?prepare@?$OverlapTraceSegment@VBoxTraceSegmentReport@@@HeightFieldTraceUtil@Gu@physx@@QEAAXAEBV?$PxVec3T@M@4@00AEAM1@Z 00000001800b79c0 f i GuSweepsHF.obj
 0001:000b69c0       ?prepare@?$OverlapTraceSegment@VCapsuleTraceSegmentReport@@@HeightFieldTraceUtil@Gu@physx@@QEAAXAEBV?$PxVec3T@M@4@00AEAM1@Z 00000001800b79c0 f i GuSweepsHF.obj
 0001:000b69c0       ?prepare@?$OverlapTraceSegment@VConvexTraceSegmentReport@@@HeightFieldTraceUtil@Gu@physx@@QEAAXAEBV?$PxVec3T@M@4@00AEAM1@Z 00000001800b79c0 f i GuSweepsHF.obj
 0001:000b6c80       ?sweepBox_HeightFieldGeom@@YA_NAEBVPxGeometry@physx@@AEBV?$PxTransformT@M@2@AEBVPxBoxGeometry@2@1AEBVBox@Gu@2@AEBV?$PxVec3T@M@2@MAEAUPxGeomSweepHit@2@V?$PxFlags@W4Enum@PxHitFlag@physx@@G@2@MPEAUPxQueryThreadContext@2@@Z 00000001800b7c80 f   GuSweepsHF.obj
 0001:000b7ad0       ?sweepCapsule_HeightFieldGeom@@YA_NAEBVPxGeometry@physx@@AEBV?$PxTransformT@M@2@AEBVPxCapsuleGeometry@2@1AEBVCapsule@Gu@2@AEBV?$PxVec3T@M@2@MAEAUPxGeomSweepHit@2@V?$PxFlags@W4Enum@PxHitFlag@physx@@G@2@MPEAUPxQueryThreadContext@2@@Z 00000001800b8ad0 f   GuSweepsHF.obj
 0001:000b8420       ?sweepConvex_HeightFieldGeom@@YA_NAEBVPxGeometry@physx@@AEBV?$PxTransformT@M@2@AEBVPxConvexMeshGeometry@2@1AEBV?$PxVec3T@M@2@MAEAUPxGeomSweepHit@2@V?$PxFlags@W4Enum@PxHitFlag@physx@@G@2@MPEAUPxQueryThreadContext@2@@Z 00000001800b9420 f   GuSweepsHF.obj
 0001:000b8df0       ?testVertexIndex@?$OverlapTraceSegment@VBoxTraceSegmentReport@@@HeightFieldTraceUtil@Gu@physx@@QEAA_NI@Z 00000001800b9df0 f i GuSweepsHF.obj
 0001:000b8df0       ?testVertexIndex@?$OverlapTraceSegment@VCapsuleTraceSegmentReport@@@HeightFieldTraceUtil@Gu@physx@@QEAA_NI@Z 00000001800b9df0 f i GuSweepsHF.obj
 0001:000b8df0       ?testVertexIndex@?$OverlapTraceSegment@VConvexTraceSegmentReport@@@HeightFieldTraceUtil@Gu@physx@@QEAA_NI@Z 00000001800b9df0 f i GuSweepsHF.obj
 0001:000b8f50       ?transformFast@PxBounds3@physx@@SA?AV12@AEBV?$PxTransformT@M@2@AEBV12@@Z 00000001800b9f50 f i GuSweepsHF.obj
 0001:000b9330       ?visitCells@?$OverlapTraceSegment@VBoxTraceSegmentReport@@@HeightFieldTraceUtil@Gu@physx@@QEAA_NAEBUOverlapRectangle@1234@@Z 00000001800ba330 f i GuSweepsHF.obj
 0001:000b9330       ?visitCells@?$OverlapTraceSegment@VCapsuleTraceSegmentReport@@@HeightFieldTraceUtil@Gu@physx@@QEAA_NAEBUOverlapRectangle@1234@@Z 00000001800ba330 f i GuSweepsHF.obj
 0001:000b9330       ?visitCells@?$OverlapTraceSegment@VConvexTraceSegmentReport@@@HeightFieldTraceUtil@Gu@physx@@QEAA_NAEBUOverlapRectangle@1234@@Z 00000001800ba330 f i GuSweepsHF.obj
 0001:000b9520       ?intersectOBBOBB@Gu@physx@@YA_NAEBV?$PxVec3T@M@2@0AEBV?$PxMat33T@M@2@001_N@Z 00000001800ba520 f   GuIntersectionBoxBox.obj
 0001:000b9b70       ?intersectCapsuleTriangle@Gu@physx@@YA_NAEBV?$PxVec3T@M@2@000AEBVCapsule@12@AEBUCapsuleTriangleOverlapData@12@@Z 00000001800bab70 f   GuIntersectionCapsuleTriangle.obj
 0001:000ba760       ?intersectEdgeEdge@Gu@physx@@YA_NAEBV?$PxVec3T@M@2@0000AEAMAEAV32@@Z 00000001800bb760 f   GuIntersectionEdgeEdge.obj
 0001:000baa80       ?intersectRayAABB2@Gu@physx@@YA_NAEBT__m128@@0000AEAT3@1@Z 00000001800bba80 f   GuIntersectionRayBox.obj
 0001:000bab40       ?intersectRayAABB2@Gu@physx@@YA_NAEBV?$PxVec3T@M@2@000MAEAM1@Z 00000001800bbb40 f   GuIntersectionRayBox.obj
 0001:000bacf0       ?intersectRayAABB@Gu@physx@@YAHAEBV?$PxVec3T@M@2@000AEAM1@Z 00000001800bbcf0 f   GuIntersectionRayBox.obj
 0001:000bae00       ?rayAABBIntersect2@Gu@physx@@YAIAEBV?$PxVec3T@M@2@000AEAV32@AEAM@Z 00000001800bbe00 f   GuIntersectionRayBox.obj
 0001:000bb000       ?intersectRayCapsuleInternal@Gu@physx@@YAIAEBV?$PxVec3T@M@2@000MQEAM@Z 00000001800bc000 f   GuIntersectionRayCapsule.obj
 0001:000bb4c0       ?intersectRaySphere@Gu@physx@@YA_NAEBV?$PxVec3T@M@2@0M0MAEAMPEAV32@@Z 00000001800bc4c0 f   GuIntersectionRaySphere.obj
 0001:000bb5b0       ?intersectRaySphereBasic@Gu@physx@@YA_NAEBV?$PxVec3T@M@2@0M0MAEAMPEAV32@@Z 00000001800bc5b0 f   GuIntersectionRaySphere.obj
 0001:000bb710       ?intersectSphereBox@Gu@physx@@YA_NAEBVSphere@12@AEBVBox@12@@Z 00000001800bc710 f   GuIntersectionSphereBox.obj
 0001:000bb940       ?intersectTetrahedronBox@Gu@physx@@YA_NAEBV?$PxVec3T@M@2@000AEBVPxBounds3@2@@Z 00000001800bc940 f   GuIntersectionTetrahedronBox.obj
 0001:000bbd10       ?intersectTriangleBox@Gu@physx@@YAHAEBVBoxPadded@12@AEBV?$PxVec3T@M@2@11@Z 00000001800bcd10 f   GuIntersectionTriangleBox.obj
 0001:000bc2e0       ?intersectTriangleBoxBV4@@YAHAEBV?$PxVec3T@M@physx@@00AEBV?$PxMat33T@M@2@00@Z 00000001800bd2e0 f   GuIntersectionTriangleBox.obj
 0001:000bc720       ?intersectTriangleBox_ReferenceCode@Gu@physx@@YAHAEBV?$PxVec3T@M@2@0000@Z 00000001800bd720 f   GuIntersectionTriangleBox.obj
 0001:000bcef0       ?intersectTriangleBox_Unsafe@Gu@physx@@YAHAEBV?$PxVec3T@M@2@0000@Z 00000001800bdef0 f   GuIntersectionTriangleBox.obj
 0001:000bd2b0       ?trianglesIntersect@Gu@physx@@YA_NAEBV?$PxVec3T@M@2@00000_N@Z 00000001800be2b0 f   GuIntersectionTriangleTriangle.obj
 0001:000be6d0       ??0BV4Tree@Gu@physx@@QEAA@W4PxEMPTY@2@@Z 00000001800bf6d0 f   GuBV4.obj
 0001:000be6e0       ??0BV4Tree@Gu@physx@@QEAA@XZ 00000001800bf6e0 f   GuBV4.obj
 0001:000be710       ??0SourceMesh@Gu@physx@@QEAA@XZ 00000001800bf710 f   GuBV4.obj
 0001:000be740       ??0TetrahedronSourceMesh@Gu@physx@@QEAA@XZ 00000001800bf740 f   GuBV4.obj
 0001:000be770       ??1BV4Tree@Gu@physx@@QEAA@XZ 00000001800bf770 f   GuBV4.obj
 0001:000be7d0       ??1SourceMesh@Gu@physx@@UEAA@XZ 00000001800bf7d0 f   GuBV4.obj
 0001:000be7d0       ??1TetrahedronSourceMesh@Gu@physx@@UEAA@XZ 00000001800bf7d0 f   GuBV4.obj
 0001:000be820       ??4BV4Tree@Gu@physx@@QEAAXAEAV012@@Z 00000001800bf820 f   GuBV4.obj
 0001:000be8b0       ??4SourceMesh@Gu@physx@@QEAAXAEAV012@@Z 00000001800bf8b0 f   GuBV4.obj
 0001:000be900       ??_ESourceMesh@Gu@physx@@UEAAPEAXI@Z 00000001800bf900 f i GuBV4.obj
 0001:000be900       ??_ETetrahedronSourceMesh@Gu@physx@@UEAAPEAXI@Z 00000001800bf900 f i GuBV4.obj
 0001:000be900       ??_GSourceMesh@Gu@physx@@UEAAPEAXI@Z 00000001800bf900 f i GuBV4.obj
 0001:000be900       ??_GTetrahedronSourceMesh@Gu@physx@@UEAAPEAXI@Z 00000001800bf900 f i GuBV4.obj
 0001:000be9a0       ??_ESourceMeshBase@Gu@physx@@UEAAPEAXI@Z 00000001800bf9a0 f i GuBV4.obj
 0001:000be9a0       ??_GSourceMeshBase@Gu@physx@@UEAAPEAXI@Z 00000001800bf9a0 f i GuBV4.obj
 0001:000bea40       ?exportExtraData@BV4Tree@Gu@physx@@QEAAXAEAVPxSerializationContext@3@@Z 00000001800bfa40 f   GuBV4.obj
 0001:000beaa0       ?getPrimitiveBox@SourceMesh@Gu@physx@@UEAAXIAEAT__m128@@0@Z 00000001800bfaa0 f   GuBV4.obj
 0001:000beb40       ?getPrimitiveBox@TetrahedronSourceMesh@Gu@physx@@UEAAXIAEAT__m128@@0@Z 00000001800bfb40 f   GuBV4.obj
 0001:000bec00       ?importExtraData@BV4Tree@Gu@physx@@QEAAXAEAVPxDeserializationContext@3@@Z 00000001800bfc00 f   GuBV4.obj
 0001:000bec50       ?init@BV32Tree@Gu@physx@@QEAA_NPEAVSourceMeshBase@23@AEBVPxBounds3@3@@Z 00000001800bfc50 f   GuBV32.obj
 0001:000bec50       ?init@BV4Tree@Gu@physx@@QEAA_NPEAVSourceMeshBase@23@AEBVPxBounds3@3@@Z 00000001800bfc50 f   GuBV4.obj
 0001:000becf0       ?load@BV4Tree@Gu@physx@@QEAA_NAEAVPxInputStream@3@_N@Z 00000001800bfcf0 f   GuBV4.obj
 0001:000bef30       ?refit@BV4Tree@Gu@physx@@QEAA_NAEAVPxBounds3@3@M@Z 00000001800bff30 f   GuBV4.obj
 0001:000bf5a0       ?refit@SourceMesh@Gu@physx@@UEAAXIAEAVPxBounds3@3@@Z 00000001800c05a0 f   GuBV4.obj
 0001:000bf740       ?refit@TetrahedronSourceMesh@Gu@physx@@UEAAXIAEAVPxBounds3@3@@Z 00000001800c0740 f   GuBV4.obj
 0001:000bf960       ?remapTopology@SourceMesh@Gu@physx@@UEAAXPEBI@Z 00000001800c0960 f   GuBV4.obj
 0001:000bfbf0       ?remapTopology@TetrahedronSourceMesh@Gu@physx@@UEAAXPEBI@Z 00000001800c0bf0 f   GuBV4.obj
 0001:000bfe70       ??0BV4_AABBTree@Gu@physx@@QEAA@XZ 00000001800c0e70 f   GuBV4Build.obj
 0001:000bfe80       ??0BVData@@QEAA@XZ         00000001800c0e80 f   GuBV4Build.obj
 0001:000bfeb0       ??0BuildStats@Gu@physx@@QEAA@XZ 00000001800c0eb0 f i GuBV4Build.obj
 0001:000bfec0       ??1BV4_AABBTree@Gu@physx@@QEAA@XZ 00000001800c0ec0 f   GuBV4Build.obj
 0001:000bfed0       ??4BuildStats@Gu@physx@@QEAAAEAU012@$$QEAU012@@Z 00000001800c0ed0 f i GuBV4Build.obj
 0001:000bfee0       ??4BuildStats@Gu@physx@@QEAAAEAU012@AEBU012@@Z 00000001800c0ee0 f i GuBV4Build.obj
 0001:000bfef0       ?BuildBV4Ex@Gu@physx@@YA_NAEAVBV4Tree@12@AEAVSourceMeshBase@12@MI_NW4BV4_BuildStrategy@12@@Z 00000001800c0ef0 f   GuBV4Build.obj
 0001:000c0dc0       ?allocateNode@BV4BuildParams@@QEAAPEAUBV4Node@@XZ 00000001800c1dc0 f   GuBV4Build.obj
 0001:000c1230       ?buildFromMesh@BV4_AABBTree@Gu@physx@@QEAA_NAEAVSourceMeshBase@23@IW4BV4_BuildStrategy@23@@Z 00000001800c2230 f   GuBV4Build.obj
 0001:000c2160       ?increaseCount@BuildStats@Gu@physx@@QEAAXI@Z 00000001800c3160 f i GuBV4Build.obj
 0001:000c2bc0       ?release@BV4_AABBTree@Gu@physx@@QEAAXXZ 00000001800c3bc0 f   GuBV4Build.obj
 0001:000c2c70       ?releaseNodes@BV4BuildParams@@QEAAXXZ 00000001800c3c70 f   GuBV4Build.obj
 0001:000c2ce0       ?reset@BuildStats@Gu@physx@@QEAAXXZ 00000001800c3ce0 f i GuBV4Build.obj
 0001:000c2cf0       ?setCount@BuildStats@Gu@physx@@QEAAXI@Z 00000001800c3cf0 f i GuBV4Build.obj
 0001:000c3350       ?walk@BV4_AABBTree@Gu@physx@@QEBAIP6A_NPEBVAABBTreeNode@23@IPEAX@Z1@Z 00000001800c4350 f   GuBV4Build.obj
 0001:000c3410       ?walkDistance@BV4_AABBTree@Gu@physx@@QEBAIP6A_NPEBVAABBTreeNode@23@IPEAX@ZP6A_N01@Z1@Z 00000001800c4410 f   GuBV4Build.obj
 0001:000c7430       ?GenericSweep_AABB_CB@@YAXAEBVBox@Gu@physx@@AEBV?$PxVec3T@M@3@MAEBVBV4Tree@23@P6A_NPEAX111IAEAM@Z3I@Z 00000001800c8430 f   GuBV4_AABBSweep.obj
 0001:000c7590       ?Sweep_AABB_BV4@@YAHAEBVBox@Gu@physx@@AEBV?$PxVec3T@M@3@MAEBVBV4Tree@23@PEIAVSweepHit@23@I@Z 00000001800c8590 f   GuBV4_AABBSweep.obj
 0001:000d02d0       ?BV4_OverlapBoxAll@@YAIAEBVBox@Gu@physx@@AEBVBV4Tree@23@PEIBV?$PxMat44T@M@3@PEAIIAEA_N@Z 00000001800d12d0 f   GuBV4_BoxOverlap.obj
 0001:000d0ae0       ?BV4_OverlapBoxAny@@YAHAEBVBox@Gu@physx@@AEBVBV4Tree@23@PEIBV?$PxMat44T@M@3@@Z 00000001800d1ae0 f   GuBV4_BoxOverlap.obj
 0001:000d12e0       ?BV4_OverlapBoxCB@@YAXAEBVBox@Gu@physx@@AEBVBV4Tree@23@P6A_NPEAXAEBV?$PxVec3T@M@3@333IPEBI@Z2@Z 00000001800d22e0 f   GuBV4_BoxOverlap.obj
 0001:000d19a0       ?BV4_OverlapBoxCB@@YAXAEBVBox@Gu@physx@@AEBVBV4Tree@23@P6A_NPEAXAEBV?$PxVec3T@M@3@33IPEBI@Z2@Z 00000001800d29a0 f   GuBV4_BoxOverlap.obj
 0001:000d1e50       ?BV4_OverlapCapsuleAll@@YAIAEBVCapsule@Gu@physx@@AEBVBV4Tree@23@PEIBV?$PxMat44T@M@3@PEAIIAEA_N@Z 00000001800d2e50 f   GuBV4_BoxOverlap.obj
 0001:000d2570       ?BV4_OverlapCapsuleAny@@YAHAEBVCapsule@Gu@physx@@AEBVBV4Tree@23@PEIBV?$PxMat44T@M@3@@Z 00000001800d3570 f   GuBV4_BoxOverlap.obj
 0001:000d5420       ?BV4_CapsuleSweepSingle@@YAHAEBVCapsule@Gu@physx@@AEBV?$PxVec3T@M@3@MAEBVBV4Tree@23@PEIAVSweepHit@23@I@Z 00000001800d6420 f   GuBV4_CapsuleSweep.obj
 0001:000d94e0       ?BV4_CapsuleSweepSingleAA@@YAHAEBVCapsule@Gu@physx@@AEBV?$PxVec3T@M@3@MAEBVBV4Tree@23@PEIAVSweepHit@23@I@Z 00000001800da4e0 f   GuBV4_CapsuleSweepAA.obj
 0001:000e9b80       ?BV4_OverlapMeshVsMesh@@YA_NAEAV?$PxReportCallback@UPxGeomIndexPair@physx@@@physx@@AEBVBV4Tree@Gu@2@1PEBV?$PxMat44T@M@2@2AEBV?$PxTransformT@M@2@3AEBVPxMeshScale@2@4V?$PxFlags@W4Enum@PxMeshMeshQueryFlag@physx@@I@2@M@Z 00000001800eab80 f   GuBV4_MeshMeshOverlap.obj
 0001:000e9dc0       ?BV4_OverlapMeshVsMesh@@YA_NAEAV?$PxReportCallback@UPxGeomIndexPair@physx@@@physx@@AEBVBV4Tree@Gu@2@1PEBV?$PxMat44T@M@2@2V?$PxFlags@W4Enum@PxMeshMeshQueryFlag@physx@@I@2@M@Z 00000001800eadc0 f   GuBV4_MeshMeshOverlap.obj
 0001:000f35d0       ??D?$PxMat33T@M@physx@@QEBA?BV?$PxVec3T@M@1@AEBV21@@Z 00000001800f45d0 f i GuBV4_OBBSweep.obj
 0001:000f3660       ?BV4_BoxSweepSingle@@YAHAEBVBox@Gu@physx@@AEBV?$PxVec3T@M@3@MAEBVBV4Tree@23@PEIBV?$PxMat44T@M@3@PEIAVSweepHit@23@I@Z 00000001800f4660 f   GuBV4_OBBSweep.obj
 0001:000f3d90       ?BV4_GenericSweepCB@@YAXAEBVBox@Gu@physx@@AEBV?$PxVec3T@M@3@MAEBVBV4Tree@23@P6A_NPEAX111IAEAM@Z3_N@Z 00000001800f4d90 f   GuBV4_OBBSweep.obj
 0001:000f3fc0       ?Sweep_OBB_BV4@@YAHAEBVBox@Gu@physx@@AEBV?$PxVec3T@M@3@MAEBVBV4Tree@23@PEIAVSweepHit@23@I@Z 00000001800f4fc0 f   GuBV4_OBBSweep.obj
 0001:000f6b00       ?BV4_RaycastCB@@YAXAEBV?$PxVec3T@M@physx@@0AEBVBV4Tree@Gu@2@PEIBV?$PxMat44T@M@2@MMIP6A?AW4HitCode@42@PEAX000IMMM@Z3@Z 00000001800f7b00 f   GuBV4_Raycast.obj
 0001:000f6f40       ?BV4_RaycastSingle@@YAHAEBV?$PxVec3T@M@physx@@0AEBVBV4Tree@Gu@2@PEIBV?$PxMat44T@M@2@PEIAUPxGeomRaycastHit@2@MMIV?$PxFlags@W4Enum@PxHitFlag@physx@@G@2@@Z 00000001800f7f40 f   GuBV4_Raycast.obj
 0001:000f9470       ?BV4_OverlapSphereAll@@YAIAEBVSphere@Gu@physx@@AEBVBV4Tree@23@PEIBV?$PxMat44T@M@3@PEAIIAEA_N@Z 00000001800fa470 f   GuBV4_SphereOverlap.obj
 0001:000f9790       ?BV4_OverlapSphereAny@@YAHAEBVSphere@Gu@physx@@AEBVBV4Tree@23@PEIBV?$PxMat44T@M@3@@Z 00000001800fa790 f   GuBV4_SphereOverlap.obj
 0001:000f9a70       ?BV4_PointDistance@@YAXAEBV?$PxVec3T@M@physx@@AEBVBV4Tree@Gu@2@MAEAIAEAMAEAV12@@Z 00000001800faa70 f   GuBV4_SphereOverlap.obj
 0001:00100460       ?BV4_GenericSweepCB_Old@@YAXAEBV?$PxVec3T@M@physx@@00MAEBVBV4Tree@Gu@2@PEIBV?$PxMat44T@M@2@P6A_NPEAX000IAEAM@Z3@Z 0000000180101460 f   GuBV4_SphereSweep.obj
 0001:00100870       ?BV4_SphereSweepSingle@@YAHAEBVSphere@Gu@physx@@AEBV?$PxVec3T@M@3@MAEBVBV4Tree@23@PEIBV?$PxMat44T@M@3@PEIAVSweepHit@23@I@Z 0000000180101870 f   GuBV4_SphereSweep.obj
 0001:00101b70       ?computeSweepData@physx@@YAMAEBVPxTriangleMeshGeometry@1@AEAV?$PxVec3T@M@1@11M@Z 0000000180102b70 f i GuMidphaseBV4.obj
 0001:00102fb0       ?intersectBoxVsMesh_BV4@Gu@physx@@YA_NAEBVBox@12@AEBVTriangleMesh@12@AEBV?$PxTransformT@M@2@AEBVPxMeshScale@2@PEAULimitedResults@12@@Z 0000000180103fb0 f   GuMidphaseBV4.obj
 0001:00103ac0       ?intersectCapsuleVsMesh_BV4@Gu@physx@@YA_NAEBVCapsule@12@AEBVTriangleMesh@12@AEBV?$PxTransformT@M@2@AEBVPxMeshScale@2@PEAULimitedResults@12@@Z 0000000180104ac0 f   GuMidphaseBV4.obj
 0001:00104300       ?intersectMeshVsMesh_BV4@Gu@physx@@YA_NAEAV?$PxReportCallback@UPxGeomIndexPair@physx@@@2@AEBVTriangleMesh@12@AEBV?$PxTransformT@M@2@AEBVPxMeshScale@2@123V?$PxFlags@W4Enum@PxMeshMeshQueryFlag@physx@@I@2@M@Z 0000000180105300 f   GuMidphaseBV4.obj
 0001:00104c20       ?intersectOBB_BV4@Gu@physx@@YAXPEBVTetrahedronMesh@12@AEBVBox@12@AEAU?$TetMeshHitCallback@UPxGeomRaycastHit@physx@@@12@@Z 0000000180105c20 f   GuMidphaseBV4.obj
 0001:00104c40       ?intersectOBB_BV4@Gu@physx@@YAXPEBVTriangleMesh@12@AEBVBox@12@AEAU?$MeshHitCallback@UPxGeomRaycastHit@physx@@@12@_N3@Z 0000000180105c40 f   GuMidphaseBV4.obj
 0001:00104c60       ?intersectSphereVsMesh_BV4@Gu@physx@@YA_NAEBVSphere@12@AEBVTriangleMesh@12@AEBV?$PxTransformT@M@2@AEBVPxMeshScale@2@PEAULimitedResults@12@@Z 0000000180105c60 f   GuMidphaseBV4.obj
 0001:00105390       ?pointMeshDistance_BV4@Gu@physx@@YAXPEBVTriangleMesh@12@AEBVPxTriangleMeshGeometry@2@AEBV?$PxTransformT@M@2@AEBV?$PxVec3T@M@2@MAEAIAEAMAEAV62@@Z 0000000180106390 f   GuMidphaseBV4.obj
 0001:00105a40       ?raycast_triangleMesh_BV4@Gu@physx@@YAIPEBVTriangleMesh@12@AEBVPxTriangleMeshGeometry@2@AEBV?$PxTransformT@M@2@AEBV?$PxVec3T@M@2@3MV?$PxFlags@W4Enum@PxHitFlag@physx@@G@2@IPEIAUPxGeomRaycastHit@2@I@Z 0000000180106a40 f   GuMidphaseBV4.obj
 0001:00106850       ?sweepBox_MeshGeom_BV4@Gu@physx@@YA_NPEBVTriangleMesh@12@AEBVPxTriangleMeshGeometry@2@AEBV?$PxTransformT@M@2@AEBVBox@12@AEBV?$PxVec3T@M@2@MAEAUPxGeomSweepHit@2@V?$PxFlags@W4Enum@PxHitFlag@physx@@G@2@M@Z 0000000180107850 f   GuMidphaseBV4.obj
 0001:00107f70       ?sweepCapsule_MeshGeom_BV4@Gu@physx@@YA_NPEBVTriangleMesh@12@AEBVPxTriangleMeshGeometry@2@AEBV?$PxTransformT@M@2@AEBVCapsule@12@AEBV?$PxVec3T@M@2@MAEAUPxGeomSweepHit@2@V?$PxFlags@W4Enum@PxHitFlag@physx@@G@2@M@Z 0000000180108f70 f   GuMidphaseBV4.obj
 0001:00108a80       ?sweepConvex_MeshGeom_BV4@Gu@physx@@YAXPEBVTriangleMesh@12@AEBVBox@12@AEBV?$PxVec3T@M@2@MAEAUSweepConvexMeshHitCallback@12@_N@Z 0000000180109a80 f   GuMidphaseBV4.obj
 0001:00108ac0       ?transform@PxMeshScale@physx@@QEBA?AV?$PxVec3T@M@2@AEBV32@@Z 0000000180109ac0 f i GuMidphaseBV4.obj
 0001:00108d00       ?findOverlapHeightField@PxMeshQuery@physx@@SAIAEBVPxGeometry@2@AEBV?$PxTransformT@M@2@AEBVPxHeightFieldGeometry@2@1PEAIIIAEA_NV?$PxFlags@W4Enum@PxGeometryQueryFlag@physx@@I@2@@Z 0000000180109d00 f   GuMeshQuery.obj
 0001:00109470       ?findOverlapTriangleMesh@PxMeshQuery@physx@@SAIAEBVPxGeometry@2@AEBV?$PxTransformT@M@2@AEBVPxTriangleMeshGeometry@2@1PEAIIIAEA_NV?$PxFlags@W4Enum@PxGeometryQueryFlag@physx@@I@2@@Z 000000018010a470 f   GuMeshQuery.obj
 0001:00109790       ?findOverlapTriangleMesh@PxMeshQuery@physx@@SA_NAEAV?$PxReportCallback@UPxGeomIndexPair@physx@@@2@AEBVPxTriangleMeshGeometry@2@AEBV?$PxTransformT@M@2@12V?$PxFlags@W4Enum@PxGeometryQueryFlag@physx@@I@2@V?$PxFlags@W4Enum@PxMeshMeshQueryFlag@physx@@I@2@M@Z 000000018010a790 f   GuMeshQuery.obj
 0001:001098c0       ?getTriangle@PxMeshQuery@physx@@SAXAEBVPxHeightFieldGeometry@2@AEBV?$PxTransformT@M@2@IAEAVPxTriangle@2@PEAI3@Z 000000018010a8c0 f   GuMeshQuery.obj
 0001:00109940       ?getTriangle@PxMeshQuery@physx@@SAXAEBVPxTriangleMeshGeometry@2@AEBV?$PxTransformT@M@2@IAEAVPxTriangle@2@PEAI3@Z 000000018010a940 f   GuMeshQuery.obj
 0001:00109e40       ?sweep@PxMeshQuery@physx@@SA_NAEBV?$PxVec3T@M@2@MAEBVPxGeometry@2@AEBV?$PxTransformT@M@2@IPEBVPxTriangle@2@AEAUPxGeomSweepHit@2@V?$PxFlags@W4Enum@PxHitFlag@physx@@G@2@PEBIM_NV?$PxFlags@W4Enum@PxGeometryQueryFlag@physx@@I@2@@Z 000000018010ae40 f   GuMeshQuery.obj
 0001:0010a0c0       ??$collide@$00$00@MeshRayCollider@@SAXAEBV?$PxVec3T@M@physx@@0M_NPEBVRTreeTriangleMesh@Gu@2@AEAU?$MeshHitCallback@UPxGeomRaycastHit@physx@@@42@PEBV12@@Z 000000018010b0c0 f i GuMidphaseRTree.obj
 0001:0010a430       ??$collide@$00$0A@@MeshRayCollider@@SAXAEBV?$PxVec3T@M@physx@@0M_NPEBVRTreeTriangleMesh@Gu@2@AEAU?$MeshHitCallback@UPxGeomRaycastHit@physx@@@42@PEBV12@@Z 000000018010b430 f i GuMidphaseRTree.obj
 0001:0010a670       ??$collide@$0A@$00@MeshRayCollider@@SAXAEBV?$PxVec3T@M@physx@@0M_NPEBVRTreeTriangleMesh@Gu@2@AEAU?$MeshHitCallback@UPxGeomRaycastHit@physx@@@42@PEBV12@@Z 000000018010b670 f i GuMidphaseRTree.obj
 0001:0010c9d0       ??0?$RayRTreeCallback@$00$0A@@@QEAA@MAEAU?$MeshHitCallback@UPxGeomRaycastHit@physx@@@Gu@physx@@HPEBXPEBV?$PxVec3T@M@3@AEBV43@3M_N2@Z 000000018010d9d0 f i GuMidphaseRTree.obj
 0001:0010caf0       ??1?$RayRTreeCallback@$00$00@@UEAA@XZ 000000018010daf0 f i GuMidphaseRTree.obj
 0001:0010cb80       ??1?$RayRTreeCallback@$00$0A@@@UEAA@XZ 000000018010db80 f i GuMidphaseRTree.obj
 0001:0010cb80       ??1?$RayRTreeCallback@$0A@$0A@@@UEAA@XZ 000000018010db80 f i GuMidphaseRTree.obj
 0001:0010cc10       ??1?$RayRTreeCallback@$0A@$00@@UEAA@XZ 000000018010dc10 f i GuMidphaseRTree.obj
 0001:0010cc98       ??_E?$RayRTreeCallback@$00$00@@W7EAAPEAXI@Z 000000018010dc98 f i GuMidphaseRTree.obj
 0001:0010cca4       ??_E?$RayRTreeCallback@$00$0A@@@W7EAAPEAXI@Z 000000018010dca4 f i GuMidphaseRTree.obj
 0001:0010cca4       ??_E?$RayRTreeCallback@$0A@$0A@@@W7EAAPEAXI@Z 000000018010dca4 f i GuMidphaseRTree.obj
 0001:0010ccb0       ??_E?$RayRTreeCallback@$0A@$00@@W7EAAPEAXI@Z 000000018010dcb0 f i GuMidphaseRTree.obj
 0001:0010cd20       ??_E?$RayRTreeCallback@$00$00@@UEAAPEAXI@Z 000000018010dd20 f i GuMidphaseRTree.obj
 0001:0010cd20       ??_G?$RayRTreeCallback@$00$00@@UEAAPEAXI@Z 000000018010dd20 f i GuMidphaseRTree.obj
 0001:0010cd60       ??_E?$RayRTreeCallback@$00$0A@@@UEAAPEAXI@Z 000000018010dd60 f i GuMidphaseRTree.obj
 0001:0010cd60       ??_E?$RayRTreeCallback@$0A@$0A@@@UEAAPEAXI@Z 000000018010dd60 f i GuMidphaseRTree.obj
 0001:0010cd60       ??_G?$RayRTreeCallback@$00$0A@@@UEAAPEAXI@Z 000000018010dd60 f i GuMidphaseRTree.obj
 0001:0010cd60       ??_G?$RayRTreeCallback@$0A@$0A@@@UEAAPEAXI@Z 000000018010dd60 f i GuMidphaseRTree.obj
 0001:0010cda0       ??_E?$RayRTreeCallback@$0A@$00@@UEAAPEAXI@Z 000000018010dda0 f i GuMidphaseRTree.obj
 0001:0010cda0       ??_G?$RayRTreeCallback@$0A@$00@@UEAAPEAXI@Z 000000018010dda0 f i GuMidphaseRTree.obj
 0001:0010cde0       ??_ECallback@RTree@Gu@physx@@UEAAPEAXI@Z 000000018010dde0 f i GuMidphaseRTree.obj
 0001:0010cde0       ??_GCallback@RTree@Gu@physx@@UEAAPEAXI@Z 000000018010dde0 f i GuMidphaseRTree.obj
 0001:0010ce10       ??_ERayMeshColliderCallback@@UEAAPEAXI@Z 000000018010de10 f i GuMidphaseRTree.obj
 0001:0010ce10       ??_ESweepCapsuleMeshHitCallback@Gu@physx@@UEAAPEAXI@Z 000000018010de10 f i GuSweepsMesh.obj
 0001:0010ce10       ??_GRayMeshColliderCallback@@UEAAPEAXI@Z 000000018010de10 f i GuMidphaseRTree.obj
 0001:0010ce10       ??_GSweepCapsuleMeshHitCallback@Gu@physx@@UEAAPEAXI@Z 000000018010de10 f i GuSweepsMesh.obj
 0001:0010ce40       ?collideOBB@MeshRayCollider@@SAXAEBVBox@Gu@physx@@_NPEBVRTreeTriangleMesh@34@AEAU?$MeshHitCallback@UPxGeomRaycastHit@physx@@@34@1@Z 000000018010de40 f   GuMidphaseRTree.obj
 0001:0010d310       ?intersectBoxVsMesh_RTREE@Gu@physx@@YA_NAEBVBox@12@AEBVTriangleMesh@12@AEBV?$PxTransformT@M@2@AEBVPxMeshScale@2@PEAULimitedResults@12@@Z 000000018010e310 f   GuMidphaseRTree.obj
 0001:0010d380       ?intersectCapsuleVsMesh_RTREE@Gu@physx@@YA_NAEBVCapsule@12@AEBVTriangleMesh@12@AEBV?$PxTransformT@M@2@AEBVPxMeshScale@2@PEAULimitedResults@12@@Z 000000018010e380 f   GuMidphaseRTree.obj
 0001:0010d400       ?intersectOBB_RTREE@Gu@physx@@YAXPEBVTriangleMesh@12@AEBVBox@12@AEAU?$MeshHitCallback@UPxGeomRaycastHit@physx@@@12@_N3@Z 000000018010e400 f   GuMidphaseRTree.obj
 0001:0010d430       ?intersectSphereVsMesh_RTREE@Gu@physx@@YA_NAEBVSphere@12@AEBVTriangleMesh@12@AEBV?$PxTransformT@M@2@AEBVPxMeshScale@2@PEAULimitedResults@12@@Z 000000018010e430 f   GuMidphaseRTree.obj
 0001:0010d460       ?pointMeshDistance_RTREE@Gu@physx@@YAXPEBVTriangleMesh@12@AEBVPxTriangleMeshGeometry@2@AEBV?$PxTransformT@M@2@AEBV?$PxVec3T@M@2@MAEAIAEAMAEAV62@@Z 000000018010e460 f   GuMidphaseRTree.obj
 0001:0010e250       ?processHit@RayMeshColliderCallback@@UEAA_NAEBUPxGeomRaycastHit@physx@@AEBV?$PxVec3T@M@3@11AEAMPEBI@Z 000000018010f250 f i GuMidphaseRTree.obj
 0001:0010e9f0       ?processResults@?$RayRTreeCallback@$00$00@@UEAA_NIPEAI@Z 000000018010f9f0 f i GuMidphaseRTree.obj
 0001:0010ed60       ?processResults@?$RayRTreeCallback@$00$00@@UEAA_NIPEAIAEAM@Z 000000018010fd60 f i GuMidphaseRTree.obj
 0001:0010f0e0       ?processResults@?$RayRTreeCallback@$00$0A@@@UEAA_NIPEAI@Z 00000001801100e0 f i GuMidphaseRTree.obj
 0001:0010f0e0       ?processResults@?$RayRTreeCallback@$0A@$0A@@@UEAA_NIPEAI@Z 00000001801100e0 f i GuMidphaseRTree.obj
 0001:0010f340       ?processResults@?$RayRTreeCallback@$00$0A@@@UEAA_NIPEAIAEAM@Z 0000000180110340 f i GuMidphaseRTree.obj
 0001:0010f340       ?processResults@?$RayRTreeCallback@$0A@$0A@@@UEAA_NIPEAIAEAM@Z 0000000180110340 f i GuMidphaseRTree.obj
 0001:0010f5d0       ?processResults@?$RayRTreeCallback@$0A@$00@@UEAA_NIPEAI@Z 00000001801105d0 f i GuMidphaseRTree.obj
 0001:0010fc10       ?processResults@?$RayRTreeCallback@$0A@$00@@UEAA_NIPEAIAEAM@Z 0000000180110c10 f i GuMidphaseRTree.obj
 0001:00110260       ?raycast_triangleMesh_RTREE@Gu@physx@@YAIPEBVTriangleMesh@12@AEBVPxTriangleMeshGeometry@2@AEBV?$PxTransformT@M@2@AEBV?$PxVec3T@M@2@3MV?$PxFlags@W4Enum@PxHitFlag@physx@@G@2@IPEIAUPxGeomRaycastHit@2@I@Z 0000000180111260 f   GuMidphaseRTree.obj
 0001:001109e0       ?sweepBox_MeshGeom_RTREE@Gu@physx@@YA_NPEBVTriangleMesh@12@AEBVPxTriangleMeshGeometry@2@AEBV?$PxTransformT@M@2@AEBVBox@12@AEBV?$PxVec3T@M@2@MAEAUPxGeomSweepHit@2@V?$PxFlags@W4Enum@PxHitFlag@physx@@G@2@M@Z 00000001801119e0 f   GuMidphaseRTree.obj
 0001:00111f20       ?sweepCapsule_MeshGeom_RTREE@Gu@physx@@YA_NPEBVTriangleMesh@12@AEBVPxTriangleMeshGeometry@2@AEBV?$PxTransformT@M@2@AEBVCapsule@12@AEBV?$PxVec3T@M@2@MAEAUPxGeomSweepHit@2@V?$PxFlags@W4Enum@PxHitFlag@physx@@G@2@M@Z 0000000180112f20 f   GuMidphaseRTree.obj
 0001:001126d0       ?sweepConvex_MeshGeom_RTREE@Gu@physx@@YAXPEBVTriangleMesh@12@AEBVBox@12@AEBV?$PxVec3T@M@2@MAEAUSweepConvexMeshHitCallback@12@_N@Z 00000001801136d0 f   GuMidphaseRTree.obj
 0001:00113080       ??_E?$PxReportCallback@UPxGeomIndexPair@physx@@@physx@@UEAAPEAXI@Z 0000000180114080 f i GuOverlapTestsMesh.obj
 0001:00113080       ??_G?$PxReportCallback@UPxGeomIndexPair@physx@@@physx@@UEAAPEAXI@Z 0000000180114080 f i GuOverlapTestsMesh.obj
 0001:00113110       ?GeomOverlapCallback_BoxMesh@@YA_NAEBVPxGeometry@physx@@AEBV?$PxTransformT@M@2@01PEAUTriggerCache@Gu@2@PEAUPxQueryThreadContext@2@@Z 0000000180114110 f   GuOverlapTestsMesh.obj
 0001:00113220       ?GeomOverlapCallback_CapsuleMesh@@YA_NAEBVPxGeometry@physx@@AEBV?$PxTransformT@M@2@01PEAUTriggerCache@Gu@2@PEAUPxQueryThreadContext@2@@Z 0000000180114220 f   GuOverlapTestsMesh.obj
 0001:00113330       ?GeomOverlapCallback_ConvexMesh@@YA_NAEBVPxGeometry@physx@@AEBV?$PxTransformT@M@2@01PEAUTriggerCache@Gu@2@PEAUPxQueryThreadContext@2@@Z 0000000180114330 f   GuOverlapTestsMesh.obj
 0001:00113830       ?GeomOverlapCallback_MeshMesh@@YA_NAEBVPxGeometry@physx@@AEBV?$PxTransformT@M@2@01PEAUTriggerCache@Gu@2@PEAUPxQueryThreadContext@2@@Z 0000000180114830 f   GuOverlapTestsMesh.obj
 0001:00113900       ?GeomOverlapCallback_SphereMesh@@YA_NAEBVPxGeometry@physx@@AEBV?$PxTransformT@M@2@01PEAUTriggerCache@Gu@2@PEAUPxQueryThreadContext@2@@Z 0000000180114900 f   GuOverlapTestsMesh.obj
 0001:00113cf0       ??0RTree@Gu@physx@@QEAA@W4PxEMPTY@2@@Z 0000000180114cf0 f   GuRTree.obj
 0001:00113d00       ?exportExtraData@RTree@Gu@physx@@QEAAXAEAVPxSerializationContext@3@@Z 0000000180114d00 f   GuRTree.obj
 0001:00113d40       ?importExtraData@RTree@Gu@physx@@QEAAXAEAVPxDeserializationContext@3@@Z 0000000180114d40 f   GuRTree.obj
 0001:00113d70       ?load@RTree@Gu@physx@@QEAA_NAEAVPxInputStream@3@I_N@Z 0000000180114d70 f   GuRTree.obj
 0001:00114070       ?refitAllStaticTree@RTree@Gu@physx@@QEAAXAEAUCallbackRefit@123@PEAVPxBounds3@3@@Z 0000000180115070 f   GuRTree.obj
 0001:001145c0       ?validate@RTree@Gu@physx@@QEAAXPEAUCallbackRefit@123@@Z 00000001801155c0 f   GuRTree.obj
 0001:00114800       ?validateRecursive@RTree@Gu@physx@@IEAAXIURTreeNodeQ@23@PEAURTreePage@23@PEAUCallbackRefit@123@@Z 0000000180115800 f   GuRTree.obj
 0001:001149c0       ??$traverseRay@$00@RTree@Gu@physx@@QEBAXAEBV?$PxVec3T@M@2@0IPEAIPEAUCallbackRaycast@012@PEBV32@M@Z 00000001801159c0 f i GuRTreeQueries.obj
 0001:00114d60       ??$traverseRay@$0A@@RTree@Gu@physx@@QEBAXAEBV?$PxVec3T@M@2@0IPEAIPEAUCallbackRaycast@012@PEBV32@M@Z 0000000180115d60 f i GuRTreeQueries.obj
 0001:001150b0       ?traverseAABB@RTree@Gu@physx@@QEBAXAEBV?$PxVec3T@M@3@0IPEAIPEAUCallback@123@@Z 00000001801160b0 f   GuRTreeQueries.obj
 0001:00115270       ?traverseOBB@RTree@Gu@physx@@QEBAXAEBVBox@23@IPEAIPEAUCallback@123@@Z 0000000180116270 f   GuRTreeQueries.obj
 0001:00115b50       ??0SweepBoxMeshHitCallback@Gu@physx@@QEAA@W4Enum@CallbackMode@12@AEBVPxMat34Padded@2@M_NAEBVBox@12@AEBV?$PxVec3T@M@2@44AEBV?$PxFlags@W4Enum@PxHitFlag@physx@@G@2@M2M@Z 0000000180116b50 f   GuSweepsMesh.obj
 0001:00115c60       ??0SweepCapsuleMeshHitCallback@Gu@physx@@QEAA@AEAUPxGeomSweepHit@2@AEBV?$PxMat34T@M@2@M_NAEBVCapsule@12@AEBV?$PxVec3T@M@2@AEBV?$PxFlags@W4Enum@PxHitFlag@physx@@G@2@2M@Z 0000000180116c60 f   GuSweepsMesh.obj
 0001:00115d30       ??0SweepConvexMeshHitCallback@Gu@physx@@QEAA@AEBUConvexHullData@12@AEBVPxMeshScale@2@AEBVFastVertex2ShapeScaling@Cm@2@AEBV?$PxTransformT@M@2@3AEBV?$PxVec3T@M@2@MV?$PxFlags@W4Enum@PxHitFlag@physx@@G@2@_NM6M@Z 0000000180116d30 f   GuSweepsMesh.obj
 0001:00116690       ??_ESweepBoxMeshHitCallback@Gu@physx@@UEAAPEAXI@Z 0000000180117690 f i GuSweepsMesh.obj
 0001:00116690       ??_GSweepBoxMeshHitCallback@Gu@physx@@UEAAPEAXI@Z 0000000180117690 f i GuSweepsMesh.obj
 0001:001166c0       ??_ESweepConvexMeshHitCallback@Gu@physx@@UEAAPEAXI@Z 00000001801176c0 f i GuSweepsMesh.obj
 0001:001166c0       ??_GSweepConvexMeshHitCallback@Gu@physx@@UEAAPEAXI@Z 00000001801176c0 f i GuSweepsMesh.obj
 0001:001166f0       ??_ESweepShapeMeshHitCallback@Gu@physx@@UEAAPEAXI@Z 00000001801176f0 f i GuSweepsMesh.obj
 0001:001166f0       ??_GSweepShapeMeshHitCallback@Gu@physx@@UEAAPEAXI@Z 00000001801176f0 f i GuSweepsMesh.obj
 0001:00116720       ?finalizeHit@SweepBoxMeshHitCallback@Gu@physx@@QEBA_NAEAUPxGeomSweepHit@3@AEBVPxTriangleMeshGeometry@3@AEBV?$PxTransformT@M@3@2AEBV?$PxVec3T@M@3@_N4@Z 0000000180117720 f   GuSweepsMesh.obj
 0001:00116de0       ?finalizeHit@SweepCapsuleMeshHitCallback@Gu@physx@@QEBA_NAEAUPxGeomSweepHit@3@AEBVCapsule@23@AEBVPxTriangleMeshGeometry@3@AEBV?$PxTransformT@M@3@_N@Z 0000000180117de0 f   GuSweepsMesh.obj
 0001:00116f90       ?finalizeHit@SweepConvexMeshHitCallback@Gu@physx@@QEAA_NAEAUPxGeomSweepHit@3@AEBVPxTriangleMeshGeometry@3@AEBV?$PxTransformT@M@3@AEBVPxConvexMeshGeometry@3@2AEBV?$PxVec3T@M@3@M_N555@Z 0000000180117f90 f   GuSweepsMesh.obj
 0001:00117460       ?processHit@SweepBoxMeshHitCallback@Gu@physx@@UEAA_NAEBUPxGeomRaycastHit@3@AEBV?$PxVec3T@M@3@11AEAMPEBI@Z 0000000180118460 f   GuSweepsMesh.obj
 0001:00117c50       ?processHit@SweepCapsuleMeshHitCallback@Gu@physx@@UEAA_NAEBUPxGeomRaycastHit@3@AEBV?$PxVec3T@M@3@11AEAMPEBI@Z 0000000180118c50 f   GuSweepsMesh.obj
 0001:001181b0       ?processHit@SweepConvexMeshHitCallback@Gu@physx@@UEAA_NAEBUPxGeomRaycastHit@3@AEBV?$PxVec3T@M@3@11AEAMPEBI@Z 00000001801191b0 f   GuSweepsMesh.obj
 0001:00118900       ?sweepBox_MeshGeom@@YA_NAEBVPxGeometry@physx@@AEBV?$PxTransformT@M@2@AEBVPxBoxGeometry@2@1AEBVBox@Gu@2@AEBV?$PxVec3T@M@2@MAEAUPxGeomSweepHit@2@V?$PxFlags@W4Enum@PxHitFlag@physx@@G@2@MPEAUPxQueryThreadContext@2@@Z 0000000180119900 f   GuSweepsMesh.obj
 0001:00118990       ?sweepCapsule_MeshGeom@@YA_NAEBVPxGeometry@physx@@AEBV?$PxTransformT@M@2@AEBVPxCapsuleGeometry@2@1AEBVCapsule@Gu@2@AEBV?$PxVec3T@M@2@MAEAUPxGeomSweepHit@2@V?$PxFlags@W4Enum@PxHitFlag@physx@@G@2@MPEAUPxQueryThreadContext@2@@Z 0000000180119990 f   GuSweepsMesh.obj
 0001:00118a20       ?sweepConvex_MeshGeom@@YA_NAEBVPxGeometry@physx@@AEBV?$PxTransformT@M@2@AEBVPxConvexMeshGeometry@2@1AEBV?$PxVec3T@M@2@MAEAUPxGeomSweepHit@2@V?$PxFlags@W4Enum@PxHitFlag@physx@@G@2@MPEAUPxQueryThreadContext@2@@Z 0000000180119a20 f   GuSweepsMesh.obj
 0001:00119560       ??0TriangleMesh@Gu@physx@@QEAA@AEBUPxTriangleMeshInternalData@2@@Z 000000018011a560 f   GuTriangleMesh.obj
 0001:00119640       ??0TriangleMesh@Gu@physx@@QEAA@PEAVMeshFactory@12@AEAVTriangleMeshData@12@@Z 000000018011a640 f   GuTriangleMesh.obj
 0001:001199c0       ??1TriangleMesh@Gu@physx@@UEAA@XZ 000000018011a9c0 f   GuTriangleMesh.obj
 0001:00119c30       ??_ETriangleMesh@Gu@physx@@UEAAPEAXI@Z 000000018011ac30 f i GuTriangleMesh.obj
 0001:00119c30       ??_GTriangleMesh@Gu@physx@@UEAAPEAXI@Z 000000018011ac30 f i GuTriangleMesh.obj
 0001:00119ca0       ?exportExtraData@TriangleMesh@Gu@physx@@UEAAXAEAVPxSerializationContext@3@@Z 000000018011aca0 f   GuTriangleMesh.obj
 0001:00119e70       ?getLocalBounds@TriangleMesh@Gu@physx@@UEBA?AVPxBounds3@3@XZ 000000018011ae70 f i GuTriangleMesh.obj
 0001:00119f00       ?getMassInformation@TriangleMesh@Gu@physx@@UEBAXAEAMAEAV?$PxMat33T@M@3@AEAV?$PxVec3T@M@3@@Z 000000018011af00 f i GuTriangleMesh.obj
 0001:00119f80       ?getNbTriangles@TriangleMesh@Gu@physx@@UEBAIXZ 000000018011af80 f i GuTriangleMesh.obj
 0001:00119f90       ?getPreferSDFProjection@TriangleMesh@Gu@physx@@UEBA_NXZ 000000018011af90 f i GuTriangleMesh.obj
 0001:00119fa0       ?getSDF@TriangleMesh@Gu@physx@@UEBAPEBMXZ 000000018011afa0 f i GuTriangleMesh.obj
 0001:00119fb0       ?getSDFDimensions@TriangleMesh@Gu@physx@@UEBAXAEAI00@Z 000000018011afb0 f i GuTriangleMesh.obj
 0001:00119fe0       ?getTriangleMaterialIndex@TriangleMesh@Gu@physx@@UEBAGI@Z 000000018011afe0 f i GuTriangleMesh.obj
 0001:0011a000       ?getTriangleMeshFlags@TriangleMesh@Gu@physx@@UEBA?AV?$PxFlags@W4Enum@PxTriangleMeshFlag@physx@@E@3@XZ 000000018011b000 f i GuTriangleMesh.obj
 0001:0011a010       ?getTrianglesRemap@TriangleMesh@Gu@physx@@UEBAPEBIXZ 000000018011b010 f i GuTriangleMesh.obj
 0001:0011a020       ?getVerticesForModification@TriangleMesh@Gu@physx@@UEAAPEAV?$PxVec3T@M@3@XZ 000000018011b020 f   GuTriangleMesh.obj
 0001:0011a060       ?importExtraData@TriangleMesh@Gu@physx@@QEAAXAEAVPxDeserializationContext@3@@Z 000000018011b060 f   GuTriangleMesh.obj
 0001:0011a1f0       ?isKindOf@PxTriangleMesh@physx@@MEBA_NPEBD@Z 000000018011b1f0 f i GuTriangleMesh.obj
 0001:0011a280       ?onRefCountZero@TriangleMesh@Gu@physx@@UEAAXXZ 000000018011b280 f   GuTriangleMesh.obj
 0001:0011a350       ?refitBVH@TriangleMesh@Gu@physx@@UEAA?AVPxBounds3@3@XZ 000000018011b350 f   GuTriangleMesh.obj
 0001:0011a420       ?requestEdgeList@TriangleMesh@Gu@physx@@QEBAPEBVEdgeList@23@XZ 000000018011b420 f   GuTriangleMesh.obj
 0001:0011a500       ?setAllEdgesActive@TriangleMesh@Gu@physx@@QEAAXXZ 000000018011b500 f   GuTriangleMesh.obj
 0001:0011a5f0       ?setPreferSDFProjection@TriangleMesh@Gu@physx@@UEAAX_N@Z 000000018011b5f0 f i GuTriangleMesh.obj
 0001:0011a620       ??0BV4TriangleMesh@Gu@physx@@QEAA@AEBUPxTriangleMeshInternalData@2@@Z 000000018011b620 f   GuTriangleMeshBV4.obj
 0001:0011a780       ??0BV4TriangleMesh@Gu@physx@@QEAA@PEAVMeshFactory@12@AEAVTriangleMeshData@12@@Z 000000018011b780 f   GuTriangleMeshBV4.obj
 0001:0011a810       ??_EBV4TriangleMesh@Gu@physx@@UEAAPEAXI@Z 000000018011b810 f i GuTriangleMeshBV4.obj
 0001:0011a810       ??_GBV4TriangleMesh@Gu@physx@@UEAAPEAXI@Z 000000018011b810 f i GuTriangleMeshBV4.obj
 0001:0011a8a0       ?createObject@BV4TriangleMesh@Gu@physx@@SAPEAVTriangleMesh@23@AEAPEAEAEAVPxDeserializationContext@3@@Z 000000018011b8a0 f   GuTriangleMeshBV4.obj
 0001:0011a980       ?exportExtraData@BV4TriangleMesh@Gu@physx@@UEAAXAEAVPxSerializationContext@3@@Z 000000018011b980 f   GuTriangleMeshBV4.obj
 0001:0011a9c0       ?getConcreteTypeName@BV4TriangleMesh@Gu@physx@@UEBAPEBDXZ 000000018011b9c0 f i GuTriangleMeshBV4.obj
 0001:0011a9d0       ?getInternalData@BV4TriangleMesh@Gu@physx@@UEBA_NAEAUPxTriangleMeshInternalData@3@_N@Z 000000018011b9d0 f   GuTriangleMeshBV4.obj
 0001:0011aac0       ?getMidphaseID@BV4TriangleMesh@Gu@physx@@UEBA?AW4Enum@PxMeshMidPhase@3@XZ 000000018011bac0 f i GuTriangleMeshBV4.obj
 0001:0011aac0       ?getMidphaseID@BV4TriangleMeshBuilder@physx@@UEBA?AW4Enum@PxMeshMidPhase@2@XZ 000000018011bac0 f i GuCookingTriangleMesh.obj
 0001:0011aac0       ?length@charNode@@UEBAHXZ  000000018011bac0 f i libvcruntime:undname.obj
 0001:0011aac0       ?raw_length@charNode@@UEBAHXZ 000000018011bac0 f i libvcruntime:undname.obj
 0001:0011aac0       DllMain                    000000018011bac0 f i LIBCMT:dll_dllmain_stub.obj
 0001:0011aac0       _get_startup_argv_mode     000000018011bac0 f i LIBCMT:argv_mode.obj
 0001:0011aad0       ?getVerticesForModification@BV4TriangleMesh@Gu@physx@@UEAAPEAV?$PxVec3T@M@3@XZ 000000018011bad0 f   GuTriangleMeshBV4.obj
 0001:0011aad0       ?getVerticesForModification@RTreeTriangleMesh@Gu@physx@@UEAAPEAV?$PxVec3T@M@3@XZ 000000018011bad0 f   GuTriangleMeshRTree.obj
 0001:0011aae0       ?refitBVH@BV4TriangleMesh@Gu@physx@@UEAA?AVPxBounds3@3@XZ 000000018011bae0 f   GuTriangleMeshBV4.obj
 0001:0011ac50       PxGetTriangleMeshInternalData 000000018011bc50 f   GuTriangleMeshBV4.obj
 0001:0011ac70       ??0RTreeTriangleMesh@Gu@physx@@QEAA@PEAVMeshFactory@12@AEAVTriangleMeshData@12@@Z 000000018011bc70 f   GuTriangleMeshRTree.obj
 0001:0011ade0       ??_E?$RefitCallback@G@physx@@UEAAPEAXI@Z 000000018011bde0 f i GuTriangleMeshRTree.obj
 0001:0011ade0       ??_E?$RefitCallback@I@physx@@UEAAPEAXI@Z 000000018011bde0 f i GuTriangleMeshRTree.obj
 0001:0011ade0       ??_G?$RefitCallback@G@physx@@UEAAPEAXI@Z 000000018011bde0 f i GuTriangleMeshRTree.obj
 0001:0011ade0       ??_G?$RefitCallback@I@physx@@UEAAPEAXI@Z 000000018011bde0 f i GuTriangleMeshRTree.obj
 0001:0011ae10       ??_ERTreeTriangleMesh@Gu@physx@@UEAAPEAXI@Z 000000018011be10 f i GuTriangleMeshRTree.obj
 0001:0011ae10       ??_GRTreeTriangleMesh@Gu@physx@@UEAAPEAXI@Z 000000018011be10 f i GuTriangleMeshRTree.obj
 0001:0011aec0       ?createObject@RTreeTriangleMesh@Gu@physx@@SAPEAVTriangleMesh@23@AEAPEAEAEAVPxDeserializationContext@3@@Z 000000018011bec0 f   GuTriangleMeshRTree.obj
 0001:0011af50       ?exportExtraData@RTreeTriangleMesh@Gu@physx@@UEAAXAEAVPxSerializationContext@3@@Z 000000018011bf50 f   GuTriangleMeshRTree.obj
 0001:0011af90       ?getConcreteTypeName@RTreeTriangleMesh@Gu@physx@@UEBAPEBDXZ 000000018011bf90 f i GuTriangleMeshRTree.obj
 0001:0011afa0       ?recomputeBounds@?$RefitCallback@G@physx@@UEAAXIAEAT__m128@@0@Z 000000018011bfa0 f i GuTriangleMeshRTree.obj
 0001:0011b2d0       ?recomputeBounds@?$RefitCallback@I@physx@@UEAAXIAEAT__m128@@0@Z 000000018011c2d0 f i GuTriangleMeshRTree.obj
 0001:0011b5f0       ?refitBVH@RTreeTriangleMesh@Gu@physx@@UEAA?AVPxBounds3@3@XZ 000000018011c5f0 f   GuTriangleMeshRTree.obj
 0001:0011b710       ??0BV32Tree@Gu@physx@@QEAA@XZ 000000018011c710 f   GuBV32.obj
 0001:0011b740       ??1BV32Tree@Gu@physx@@QEAA@XZ 000000018011c740 f   GuBV32.obj
 0001:0011b750       ?createSOAformatNode@BV32Tree@Gu@physx@@QEAAXAEAUBV32DataPacked@23@AEBUBV32Data@23@IAEAI2@Z 000000018011c750 f   GuBV32.obj
 0001:0011bbb0       ?load@BV32Tree@Gu@physx@@QEAA_NAEAVPxInputStream@3@_N@Z 000000018011cbb0 f   GuBV32.obj
 0001:0011bef0       ?release@BV32Tree@Gu@physx@@QEAAXXZ 000000018011cef0 f   GuBV32.obj
 0001:0011bfb0       ??0BV32Node@@QEAA@XZ       000000018011cfb0 f i GuBV32Build.obj
 0001:0011c430       ?BuildBV32Ex@Gu@physx@@YA_NAEAVBV32Tree@12@AEAVSourceMeshBase@12@MI@Z 000000018011d430 f   GuBV32Build.obj
 0001:0011d430       ??0BVTetrahedronMesh@Gu@physx@@QEAA@AEAVTetrahedronMeshData@12@AEAVSoftBodyCollisionData@12@PEAVMeshFactory@12@@Z 000000018011e430 f   GuTetrahedronMesh.obj
 0001:0011d690       ??0SoftBodyMesh@Gu@physx@@QEAA@PEAVMeshFactory@12@AEAVSoftBodyMeshData@12@@Z 000000018011e690 f   GuTetrahedronMesh.obj
 0001:0011da30       ??0TetrahedronMesh@Gu@physx@@QEAA@PEAVMeshFactory@12@AEAVTetrahedronMeshData@12@@Z 000000018011ea30 f   GuTetrahedronMesh.obj
 0001:0011db20       ??1SoftBodyAuxData@Gu@physx@@UEAA@XZ 000000018011eb20 f   GuTetrahedronMesh.obj
 0001:0011dda0       ??1TetrahedronMesh@Gu@physx@@UEAA@XZ 000000018011eda0 f   GuTetrahedronMesh.obj
 0001:0011de40       ??_EBVTetrahedronMesh@Gu@physx@@UEAAPEAXI@Z 000000018011ee40 f i GuTetrahedronMesh.obj
 0001:0011de40       ??_GBVTetrahedronMesh@Gu@physx@@UEAAPEAXI@Z 000000018011ee40 f i GuTetrahedronMesh.obj
 0001:0011dfc0       ??_ESoftBodyAuxData@Gu@physx@@UEAAPEAXI@Z 000000018011efc0 f i GuTetrahedronMesh.obj
 0001:0011dfc0       ??_GSoftBodyAuxData@Gu@physx@@UEAAPEAXI@Z 000000018011efc0 f i GuTetrahedronMesh.obj
 0001:0011e030       ??_ESoftBodyMesh@Gu@physx@@UEAAPEAXI@Z 000000018011f030 f i GuTetrahedronMesh.obj
 0001:0011e030       ??_GSoftBodyMesh@Gu@physx@@UEAAPEAXI@Z 000000018011f030 f i GuTetrahedronMesh.obj
 0001:0011e100       ??_ETetrahedronMesh@Gu@physx@@UEAAPEAXI@Z 000000018011f100 f i GuTetrahedronMesh.obj
 0001:0011e100       ??_GTetrahedronMesh@Gu@physx@@UEAAPEAXI@Z 000000018011f100 f i GuTetrahedronMesh.obj
 0001:0011e170       ?exportExtraData@SoftBodyMesh@Gu@physx@@UEAAXAEAVPxSerializationContext@3@@Z 000000018011f170 f   GuTetrahedronMesh.obj
 0001:0011e260       ?getConcreteTypeName@SoftBodyAuxData@Gu@physx@@UEBAPEBDXZ 000000018011f260 f i GuTetrahedronMesh.obj
 0001:0011e270       ?getConcreteTypeName@SoftBodyMesh@Gu@physx@@UEBAPEBDXZ 000000018011f270 f i GuTetrahedronMesh.obj
 0001:0011e280       ?getConcreteTypeName@TetrahedronMesh@Gu@physx@@UEBAPEBDXZ 000000018011f280 f i GuTetrahedronMesh.obj
 0001:0011e290       ?getLocalBounds@TetrahedronMesh@Gu@physx@@UEBA?AVPxBounds3@3@XZ 000000018011f290 f i GuTetrahedronMesh.obj
 0001:0011e320       ?getNbTetrahedrons@TetrahedronMesh@Gu@physx@@UEBAIXZ 000000018011f320 f i GuTetrahedronMesh.obj
 0001:0011e330       ?getBounds@BVH@Gu@physx@@UEBAPEBVPxBounds3@3@XZ 000000018011f330 f i GuBVH.obj
 0001:0011e330       ?getTetrahedraRemap@BVTetrahedronMesh@Gu@physx@@UEBAPEBIXZ 000000018011f330 f i GuTetrahedronMesh.obj
 0001:0011e340       ?getTetrahedronMeshFlags@TetrahedronMesh@Gu@physx@@UEBA?AV?$PxFlags@W4Enum@PxTetrahedronMeshFlag@physx@@E@3@XZ 000000018011f340 f i GuTetrahedronMesh.obj
 0001:0011e350       ?getTetrahedrons@TetrahedronMesh@Gu@physx@@UEBAPEBXXZ 000000018011f350 f i GuTetrahedronMesh.obj
 0001:0011e360       ?isKindOf@PxSoftBodyAuxData@physx@@MEBA_NPEBD@Z 000000018011f360 f i GuTetrahedronMesh.obj
 0001:0011e3f0       ?isKindOf@PxSoftBodyMesh@physx@@MEBA_NPEBD@Z 000000018011f3f0 f i GuTetrahedronMesh.obj
 0001:0011e480       ?isKindOf@PxTetrahedronMesh@physx@@MEBA_NPEBD@Z 000000018011f480 f i GuTetrahedronMesh.obj
 0001:0011e510       ?onRefCountZero@SoftBodyAuxData@Gu@physx@@UEAAXXZ 000000018011f510 f i GuTetrahedronMesh.obj
 0001:0011e510       ?release@SimulationTetrahedronMeshData@Gu@physx@@UEAAXXZ 000000018011f510 f i GuCookingTetrahedronMesh.obj
 0001:0011e530       ?onRefCountZero@SoftBodyMesh@Gu@physx@@UEAAXXZ 000000018011f530 f   GuTetrahedronMesh.obj
 0001:0011e5d0       ?onRefCountZero@TetrahedronMesh@Gu@physx@@UEAAXXZ 000000018011f5d0 f   GuTetrahedronMesh.obj
 0001:0011e670       ?addAxisToSimMeshBarycentric@Gu@physx@@YA?AV?$PxVec4T@M@2@AEBVPxTetrahedronMesh@2@IAEBV32@AEBV?$PxVec3T@M@2@@Z 000000018011f670 f   GuTetrahedronMeshUtils.obj
 0001:0011e930       ?closestPtPointTetrahedron@Gu@physx@@YA?AV?$PxVec3T@M@2@AEBV32@0000@Z 000000018011f930 f i GuTetrahedronMeshUtils.obj
 0001:0011fa70       ?computeBarycentric@physx@@YAXAEBV?$PxVec3T@M@1@0000AEAV?$PxVec4T@M@1@@Z 0000000180120a70 f i GuTetrahedronMeshUtils.obj
 0001:0011fd20       ?convertSoftbodyCollisionToSimMeshTets@Gu@physx@@YAXAEBVPxTetrahedronMesh@2@AEBVSoftBodyAuxData@12@AEBVBVTetrahedronMesh@12@IAEBV?$PxVec4T@M@2@AEAIAEAV62@@Z 0000000180120d20 f   GuTetrahedronMeshUtils.obj
 0001:00122900       ?pcmContactBoxBox@Gu@physx@@YA_NAEBVPxGeometry@2@0AEBUPxTransformPadded@2@1AEBUNarrowPhaseParams@12@AEAUCache@12@AEAVPxContactBuffer@2@PEAVPxRenderOutput@2@@Z 0000000180123900 f   GuPCMContactBoxBox.obj
 0001:001237a0       ??$gjkPenetration@U?$RelativeConvex@VBoxV@Gu@physx@@@Gu@physx@@U?$LocalConvex@VConvexHullNoScaleV@Gu@physx@@@23@@Gu@physx@@YA?AW4GjkStatus@01@AEBU?$RelativeConvex@VBoxV@Gu@physx@@@01@AEBU?$LocalConvex@VConvexHullNoScaleV@Gu@physx@@@01@AEBT__m128@@2_NPEIAE4AEAEAEAUGjkOutput@01@@Z 00000001801247a0 f i GuPCMContactBoxConvex.obj
 0001:00123810       ??$gjkPenetration@U?$RelativeConvex@VBoxV@Gu@physx@@@Gu@physx@@U?$LocalConvex@VConvexHullNoScaleV@Gu@physx@@@23@@Gu@physx@@YA?AW4GjkStatus@01@AEBU?$RelativeConvex@VBoxV@Gu@physx@@@01@AEBU?$LocalConvex@VConvexHullNoScaleV@Gu@physx@@@01@AEBT__m128@@2_NPEIAE4PEIAT5@5AEAEAEAUGjkOutput@01@@Z 0000000180124810 f i GuPCMContactBoxConvex.obj
 0001:001253f0       ?pcmContactBoxConvex@Gu@physx@@YA_NAEBVPxGeometry@2@0AEBUPxTransformPadded@2@1AEBUNarrowPhaseParams@12@AEAUCache@12@AEAVPxContactBuffer@2@PEAVPxRenderOutput@2@@Z 00000001801263f0 f   GuPCMContactBoxConvex.obj
 0001:001261f0       ?support@?$LocalConvex@VConvexHullNoScaleV@Gu@physx@@@Gu@physx@@UEBA?AT__m128@@AEBT4@@Z 00000001801271f0 f i GuPCMContactBoxConvex.obj
 0001:00126240       ?support@?$LocalConvex@VConvexHullNoScaleV@Gu@physx@@@Gu@physx@@UEBA?AT__m128@@AEBT4@AEAH@Z 0000000180127240 f i GuPCMContactBoxConvex.obj
 0001:001262a0       ?supportPoint@?$LocalConvex@VConvexHullNoScaleV@Gu@physx@@@Gu@physx@@UEBA?AT__m128@@H@Z 00000001801272a0 f i GuPCMContactBoxConvex.obj
 0001:001262d0       ?pcmContactCapsuleBox@Gu@physx@@YA_NAEBVPxGeometry@2@0AEBUPxTransformPadded@2@1AEBUNarrowPhaseParams@12@AEAUCache@12@AEAVPxContactBuffer@2@PEAVPxRenderOutput@2@@Z 00000001801272d0 f   GuPCMContactCapsuleBox.obj
 0001:00127230       ?pcmContactCapsuleCapsule@Gu@physx@@YA_NAEBVPxGeometry@2@0AEBUPxTransformPadded@2@1AEBUNarrowPhaseParams@12@AEAUCache@12@AEAVPxContactBuffer@2@PEAVPxRenderOutput@2@@Z 0000000180128230 f   GuPCMContactCapsuleCapsule.obj
 0001:001279d0       ??$gjkPenetration@U?$LocalConvex@VCapsuleV@Gu@physx@@@Gu@physx@@U?$LocalConvex@VConvexHullNoScaleV@Gu@physx@@@23@@Gu@physx@@YA?AW4GjkStatus@01@AEBU?$LocalConvex@VCapsuleV@Gu@physx@@@01@AEBU?$LocalConvex@VConvexHullNoScaleV@Gu@physx@@@01@AEBT__m128@@2_NPEIAE4AEAEAEAUGjkOutput@01@@Z 00000001801289d0 f i GuPCMContactCapsuleConvex.obj
 0001:00127a40       ??$gjkPenetration@U?$LocalConvex@VCapsuleV@Gu@physx@@@Gu@physx@@U?$LocalConvex@VConvexHullNoScaleV@Gu@physx@@@23@@Gu@physx@@YA?AW4GjkStatus@01@AEBU?$LocalConvex@VCapsuleV@Gu@physx@@@01@AEBU?$LocalConvex@VConvexHullNoScaleV@Gu@physx@@@01@AEBT__m128@@2_NPEIAE4PEIAT5@5AEAEAEAUGjkOutput@01@@Z 0000000180128a40 f i GuPCMContactCapsuleConvex.obj
 0001:00129100       ?pcmContactCapsuleConvex@Gu@physx@@YA_NAEBVPxGeometry@2@0AEBUPxTransformPadded@2@1AEBUNarrowPhaseParams@12@AEAUCache@12@AEAVPxContactBuffer@2@PEAVPxRenderOutput@2@@Z 000000018012a100 f   GuPCMContactCapsuleConvex.obj
 0001:0012a2f0       ??_EPCMCapsuleVsHeightfieldContactGenerationCallback@@UEAAPEAXI@Z 000000018012b2f0 f i GuPCMContactCapsuleHeightField.obj
 0001:0012a2f0       ??_GPCMCapsuleVsHeightfieldContactGenerationCallback@@UEAAPEAXI@Z 000000018012b2f0 f i GuPCMContactCapsuleHeightField.obj
 0001:0012a320       ?pcmContactCapsuleHeightField@Gu@physx@@YA_NAEBVPxGeometry@2@0AEBUPxTransformPadded@2@1AEBUNarrowPhaseParams@12@AEAUCache@12@AEAVPxContactBuffer@2@PEAVPxRenderOutput@2@@Z 000000018012b320 f   GuPCMContactCapsuleHeightField.obj
 0001:0012b230       ?reportTouchedTris@?$PCMHeightfieldContactGenerationCallback@UPCMCapsuleVsHeightfieldContactGenerationCallback@@@Gu@physx@@UEAA_NIPEBI@Z 000000018012c230 f i GuPCMContactCapsuleHeightField.obj
 0001:0012b8a0       ?generateContacts@PCMCapsuleVsMeshContactGeneration@Gu@physx@@SAXAEBT__m128@@0000I000PEAVMeshPersistentContact@23@AEAI@Z 000000018012c8a0 f   GuPCMContactCapsuleMesh.obj
 0001:0012bcc0       ?generateEE@PCMCapsuleVsMeshContactGeneration@Gu@physx@@QEAAXAEBT__m128@@000I00PEAVMeshPersistentContact@23@AEAI@Z 000000018012ccc0 f   GuPCMContactCapsuleMesh.obj
 0001:0012bf30       ?generateEEMTD@PCMCapsuleVsMeshContactGeneration@Gu@physx@@SAXAEBT__m128@@000I00PEAVMeshPersistentContact@23@AEAI@Z 000000018012cf30 f   GuPCMContactCapsuleMesh.obj
 0001:0012c160       ?pcmContactCapsuleMesh@Gu@physx@@YA_NAEBVPxGeometry@2@0AEBUPxTransformPadded@2@1AEBUNarrowPhaseParams@12@AEAUCache@12@AEAVPxContactBuffer@2@PEAVPxRenderOutput@2@@Z 000000018012d160 f   GuPCMContactCapsuleMesh.obj
 0001:0012d9d0       ?pcmDistanceSegmentTriangleSquaredExported@@YA?AT__m128@@AEBT1@0000AEAT1@11@Z 000000018012e9d0 f   GuPCMContactCapsuleMesh.obj
 0001:0012de30       ?processTriangle@PCMCapsuleVsMeshContactGeneration@Gu@physx@@QEAA_NPEBV?$PxVec3T@M@3@IEPEBI@Z 000000018012ee30 f   GuPCMContactCapsuleMesh.obj
 0001:0012ea30       ?processTriangle@PCMCapsuleVsMeshContactGeneration@Gu@physx@@SA_NAEBVTriangleV@23@IAEBVCapsuleV@23@AEBT__m128@@EPEAVMeshPersistentContact@23@AEAI@Z 000000018012fa30 f   GuPCMContactCapsuleMesh.obj
 0001:0012ed60       ?addContactsToPatch@PCMConvexVsMeshContactGeneration@Gu@physx@@QEAAXAEBT__m128@@I@Z 000000018012fd60 f   GuPCMContactConvexCommon.obj
 0001:0012f6a0       ?doSupport@?$SupportLocalImpl@VTriangleV@Gu@physx@@@Gu@physx@@UEBA?AT__m128@@AEBT4@@Z 00000001801306a0 f i GuPCMContactConvexCommon.obj
 0001:0012f730       ?doSupport@?$SupportLocalImpl@VTriangleV@Gu@physx@@@Gu@physx@@UEBAXAEBT__m128@@AEAT4@1@Z 0000000180130730 f i GuPCMContactConvexCommon.obj
 0001:0012f7a0       ?generateLastContacts@PCMConvexVsMeshContactGeneration@Gu@physx@@QEAAXXZ 00000001801307a0 f   GuPCMContactConvexCommon.obj
 0001:0012fd00       ?populateVerts@?$SupportLocalImpl@VTriangleV@Gu@physx@@@Gu@physx@@UEBAXPEBEIPEBV?$PxVec3T@M@3@PEAT__m128@@@Z 0000000180130d00 f i GuPCMContactConvexCommon.obj
 0001:0012fe40       ?processTriangle@PCMConvexVsMeshContactGeneration@Gu@physx@@QEAA_NPEBV?$PxVec3T@M@3@IEPEBI@Z 0000000180130e40 f   GuPCMContactConvexCommon.obj
 0001:00130390       ?processTriangle@PCMConvexVsMeshContactGeneration@Gu@physx@@SA_NAEBUPolygonalData@23@PEBVSupportLocal@23@PEBV?$PxVec3T@M@3@IEAEBT__m128@@_NAEBVPxTransformV@aos@3@AEBVPxMatTransformV@93@PEAVMeshPersistentContact@23@AEAI@Z 0000000180131390 f   GuPCMContactConvexCommon.obj
 0001:00130610       ??$gjkPenetration@U?$RelativeConvex@VConvexHullNoScaleV@Gu@physx@@@Gu@physx@@U?$LocalConvex@VConvexHullNoScaleV@Gu@physx@@@23@@Gu@physx@@YA?AW4GjkStatus@01@AEBU?$RelativeConvex@VConvexHullNoScaleV@Gu@physx@@@01@AEBU?$LocalConvex@VConvexHullNoScaleV@Gu@physx@@@01@AEBT__m128@@2_NPEIAE4AEAEAEAUGjkOutput@01@@Z 0000000180131610 f i GuPCMContactConvexConvex.obj
 0001:00130680       ??$gjkPenetration@U?$RelativeConvex@VConvexHullNoScaleV@Gu@physx@@@Gu@physx@@U?$LocalConvex@VConvexHullNoScaleV@Gu@physx@@@23@@Gu@physx@@YA?AW4GjkStatus@01@AEBU?$RelativeConvex@VConvexHullNoScaleV@Gu@physx@@@01@AEBU?$LocalConvex@VConvexHullNoScaleV@Gu@physx@@@01@AEBT__m128@@2_NPEIAE4PEIAT5@5AEAEAEAUGjkOutput@01@@Z 0000000180131680 f i GuPCMContactConvexConvex.obj
 0001:00131b90       ??$gjkPenetration@U?$RelativeConvex@VConvexHullNoScaleV@Gu@physx@@@Gu@physx@@U?$LocalConvex@VConvexHullV@Gu@physx@@@23@@Gu@physx@@YA?AW4GjkStatus@01@AEBU?$RelativeConvex@VConvexHullNoScaleV@Gu@physx@@@01@AEBU?$LocalConvex@VConvexHullV@Gu@physx@@@01@AEBT__m128@@2_NPEIAE4AEAEAEAUGjkOutput@01@@Z 0000000180132b90 f i GuPCMContactConvexConvex.obj
 0001:00131c00       ??$gjkPenetration@U?$RelativeConvex@VConvexHullNoScaleV@Gu@physx@@@Gu@physx@@U?$LocalConvex@VConvexHullV@Gu@physx@@@23@@Gu@physx@@YA?AW4GjkStatus@01@AEBU?$RelativeConvex@VConvexHullNoScaleV@Gu@physx@@@01@AEBU?$LocalConvex@VConvexHullV@Gu@physx@@@01@AEBT__m128@@2_NPEIAE4PEIAT5@5AEAEAEAUGjkOutput@01@@Z 0000000180132c00 f i GuPCMContactConvexConvex.obj
 0001:001331a0       ??$gjkPenetration@U?$RelativeConvex@VConvexHullV@Gu@physx@@@Gu@physx@@U?$LocalConvex@VConvexHullNoScaleV@Gu@physx@@@23@@Gu@physx@@YA?AW4GjkStatus@01@AEBU?$RelativeConvex@VConvexHullV@Gu@physx@@@01@AEBU?$LocalConvex@VConvexHullNoScaleV@Gu@physx@@@01@AEBT__m128@@2_NPEIAE4AEAEAEAUGjkOutput@01@@Z 00000001801341a0 f i GuPCMContactConvexConvex.obj
 0001:00133210       ??$gjkPenetration@U?$RelativeConvex@VConvexHullV@Gu@physx@@@Gu@physx@@U?$LocalConvex@VConvexHullNoScaleV@Gu@physx@@@23@@Gu@physx@@YA?AW4GjkStatus@01@AEBU?$RelativeConvex@VConvexHullV@Gu@physx@@@01@AEBU?$LocalConvex@VConvexHullNoScaleV@Gu@physx@@@01@AEBT__m128@@2_NPEIAE4PEIAT5@5AEAEAEAUGjkOutput@01@@Z 0000000180134210 f i GuPCMContactConvexConvex.obj
 0001:00135200       ?pcmContactConvexConvex@Gu@physx@@YA_NAEBVPxGeometry@2@0AEBUPxTransformPadded@2@1AEBUNarrowPhaseParams@12@AEAUCache@12@AEAVPxContactBuffer@2@PEAVPxRenderOutput@2@@Z 0000000180136200 f   GuPCMContactConvexConvex.obj
 0001:00136310       ?support@?$RelativeConvex@VConvexHullNoScaleV@Gu@physx@@@Gu@physx@@UEBA?AT__m128@@AEBT4@@Z 0000000180137310 f i GuPCMContactConvexConvex.obj
 0001:001363c0       ?support@?$RelativeConvex@VConvexHullNoScaleV@Gu@physx@@@Gu@physx@@UEBA?AT__m128@@AEBT4@AEAH@Z 00000001801373c0 f i GuPCMContactConvexConvex.obj
 0001:00136480       ?supportPoint@?$RelativeConvex@VConvexHullNoScaleV@Gu@physx@@@Gu@physx@@UEBA?AT__m128@@H@Z 0000000180137480 f i GuPCMContactConvexConvex.obj
 0001:00136510       ?PCMContactConvexHeightfield@Gu@physx@@YA_NAEBUPolygonalData@12@PEBVSupportLocal@12@AEBT__m128@@AEBVPxBounds3@2@AEBVPxHeightFieldGeometry@2@AEBV?$PxTransformT@M@2@5MAEAVPxContactBuffer@2@AEBVFastVertex2ShapeScaling@Cm@2@_NAEAVMultiplePersistentContactManifold@12@PEAVPxRenderOutput@2@@Z 0000000180137510 f   GuPCMContactConvexHeightField.obj
 0001:001373a0       ?pcmContactBoxHeightField@Gu@physx@@YA_NAEBVPxGeometry@2@0AEBUPxTransformPadded@2@1AEBUNarrowPhaseParams@12@AEAUCache@12@AEAVPxContactBuffer@2@PEAVPxRenderOutput@2@@Z 00000001801383a0 f   GuPCMContactConvexHeightField.obj
 0001:00137640       ?pcmContactConvexHeightField@Gu@physx@@YA_NAEBVPxGeometry@2@0AEBUPxTransformPadded@2@1AEBUNarrowPhaseParams@12@AEAUCache@12@AEAVPxContactBuffer@2@PEAVPxRenderOutput@2@@Z 0000000180138640 f   GuPCMContactConvexHeightField.obj
 0001:00138390       ?PCMContactConvexMesh@Gu@physx@@YA_NAEBUPolygonalData@12@PEBVSupportLocal@12@AEBT__m128@@AEBVPxBounds3@2@AEBVPxTriangleMeshGeometry@2@AEBV?$PxTransformT@M@2@5MAEAVPxContactBuffer@2@AEBVFastVertex2ShapeScaling@Cm@2@7_N8AEAVMultiplePersistentContactManifold@12@PEAVPxRenderOutput@2@@Z 0000000180139390 f   GuPCMContactConvexMesh.obj
 0001:00138e90       ?pcmContactBoxMesh@Gu@physx@@YA_NAEBVPxGeometry@2@0AEBUPxTransformPadded@2@1AEBUNarrowPhaseParams@12@AEAUCache@12@AEAVPxContactBuffer@2@PEAVPxRenderOutput@2@@Z 0000000180139e90 f   GuPCMContactConvexMesh.obj
 0001:001391d0       ?pcmContactConvexMesh@Gu@physx@@YA_NAEBVPxGeometry@2@0AEBUPxTransformPadded@2@1AEBUNarrowPhaseParams@12@AEAUCache@12@AEAVPxContactBuffer@2@PEAVPxRenderOutput@2@@Z 000000018013a1d0 f   GuPCMContactConvexMesh.obj
 0001:00139de0       ?addGJKEPAContacts@Gu@physx@@YA_NPEBUGjkConvex@12@0AEBVPxMatTransformV@aos@2@W4GjkStatus@12@PEAVPersistentContact@12@T__m128@@4AEAUGjkOutput@12@AEAVPersistentContactManifold@12@@Z 000000018013ade0 f   GuPCMContactGenBoxConvex.obj
 0001:0013a290       ?computeMTD@Gu@physx@@YA_NAEBUPolygonalData@12@0PEBVSupportLocal@12@1AEAT__m128@@2@Z 000000018013b290 f   GuPCMContactGenBoxConvex.obj
 0001:0013a8c0       ?generateFullContactManifold@Gu@physx@@YA_NAEBUPolygonalData@12@0PEBVSupportLocal@12@1PEAVPersistentContact@12@AEAIAEBT__m128@@444MM_NPEAVPxRenderOutput@2@M@Z 000000018013b8c0 f   GuPCMContactGenBoxConvex.obj
 0001:0013c830       ?computeMTD@Gu@physx@@YA_NAEBVCapsuleV@12@AEBUPolygonalData@12@PEBVSupportLocal@12@AEAT__m128@@3@Z 000000018013d830 f   GuPCMContactGenSphereCapsule.obj
 0001:0013c920       ?generateCapsuleBoxFullContactManifold@Gu@physx@@YA_NAEBVCapsuleV@12@AEBUPolygonalData@12@PEBVSupportLocal@12@AEBVPxMatTransformV@aos@2@PEAVPersistentContact@12@AEAIAEBT__m128@@AEAT9@6M_NMPEAVPxRenderOutput@2@@Z 000000018013d920 f   GuPCMContactGenSphereCapsule.obj
 0001:0013cac0       ?generateFullContactManifold@Gu@physx@@YA_NAEBVCapsuleV@12@AEBUPolygonalData@12@PEBVSupportLocal@12@AEBVPxMatTransformV@aos@2@PEAVPersistentContact@12@AEAIAEBT__m128@@AEAT9@6M_NM@Z 000000018013dac0 f   GuPCMContactGenSphereCapsule.obj
 0001:0013ccb0       ?generateSphereFullContactManifold@Gu@physx@@YA_NAEBVCapsuleV@12@AEBUPolygonalData@12@PEBVSupportLocal@12@PEAVPersistentContact@12@AEAIAEBT__m128@@AEAT7@_N@Z 000000018013dcb0 f   GuPCMContactGenSphereCapsule.obj
 0001:0013e1a0       ?pcmContactPlaneBox@Gu@physx@@YA_NAEBVPxGeometry@2@0AEBUPxTransformPadded@2@1AEBUNarrowPhaseParams@12@AEAUCache@12@AEAVPxContactBuffer@2@PEAVPxRenderOutput@2@@Z 000000018013f1a0 f   GuPCMContactPlaneBox.obj
 0001:0013ed60       ?pcmContactPlaneCapsule@Gu@physx@@YA_NAEBVPxGeometry@2@0AEBUPxTransformPadded@2@1AEBUNarrowPhaseParams@12@AEAUCache@12@AEAVPxContactBuffer@2@PEAVPxRenderOutput@2@@Z 000000018013fd60 f   GuPCMContactPlaneCapsule.obj
 0001:0013f4e0       ?pcmContactPlaneConvex@Gu@physx@@YA_NAEBVPxGeometry@2@0AEBUPxTransformPadded@2@1AEBUNarrowPhaseParams@12@AEAUCache@12@AEAVPxContactBuffer@2@PEAVPxRenderOutput@2@@Z 00000001801404e0 f   GuPCMContactPlaneConvex.obj
 0001:00140160       ?pcmContactSphereBox@Gu@physx@@YA_NAEBVPxGeometry@2@0AEBUPxTransformPadded@2@1AEBUNarrowPhaseParams@12@AEAUCache@12@AEAVPxContactBuffer@2@PEAVPxRenderOutput@2@@Z 0000000180141160 f   GuPCMContactSphereBox.obj
 0001:001405c0       ?pcmContactSphereCapsule@Gu@physx@@YA_NAEBVPxGeometry@2@0AEBUPxTransformPadded@2@1AEBUNarrowPhaseParams@12@AEAUCache@12@AEAVPxContactBuffer@2@PEAVPxRenderOutput@2@@Z 00000001801415c0 f   GuPCMContactSphereCapsule.obj
 0001:00140a30       ?pcmContactSphereConvex@Gu@physx@@YA_NAEBVPxGeometry@2@0AEBUPxTransformPadded@2@1AEBUNarrowPhaseParams@12@AEAUCache@12@AEAVPxContactBuffer@2@PEAVPxRenderOutput@2@@Z 0000000180141a30 f   GuPCMContactSphereConvex.obj
 0001:00141700       ??1?$PxArray@USortedTriangle@Gu@physx@@V?$PxInlineAllocator@$0IAA@V?$PxReflectionAllocator@USortedTriangle@Gu@physx@@@physx@@@3@@physx@@QEAA@XZ 0000000180142700 f i GuPCMContactSphereHeightField.obj
 0001:001417c0       ?pcmContactSphereHeightField@Gu@physx@@YA_NAEBVPxGeometry@2@0AEBUPxTransformPadded@2@1AEBUNarrowPhaseParams@12@AEAUCache@12@AEAVPxContactBuffer@2@PEAVPxRenderOutput@2@@Z 00000001801427c0 f   GuPCMContactSphereHeightField.obj
 0001:00142830       ??$PxSort@USortedTriangle@Gu@physx@@U?$PxLess@USortedTriangle@Gu@physx@@@3@V?$PxReflectionAllocator@USortedTriangle@Gu@physx@@@3@@physx@@YAXPEAUSortedTriangle@Gu@0@IAEBU?$PxLess@USortedTriangle@Gu@physx@@@0@AEBV?$PxReflectionAllocator@USortedTriangle@Gu@physx@@@0@I@Z 0000000180143830 f i GuPCMContactSphereMesh.obj
 0001:00142d50       ??$processTriangleCache@$0BA@VPCMSphereVsMeshContactGeneration@Gu@physx@@@PCMMeshContactGeneration@Gu@physx@@QEAA_NAEAU?$TriangleCache@$0BA@@12@@Z 0000000180143d50 f i GuPCMContactSphereMesh.obj
 0001:00143220       ?addToPatch@PCMSphereVsMeshContactGeneration@Gu@physx@@QEAAXAEBT__m128@@0T4@I@Z 0000000180144220 f   GuPCMContactSphereMesh.obj
 0001:001438e0       ?allocate@?$PxArray@IV?$PxInlineAllocator@$0PAA@V?$PxReflectionAllocator@I@physx@@@physx@@@physx@@IEAAPEAII@Z 00000001801448e0 f i GuPCMContactSphereMesh.obj
 0001:001439a0       ?allocate@?$PxArray@USortedTriangle@Gu@physx@@V?$PxInlineAllocator@$0IAA@V?$PxReflectionAllocator@USortedTriangle@Gu@physx@@@physx@@@3@@physx@@IEAAPEAUSortedTriangle@Gu@2@I@Z 00000001801449a0 f i GuPCMContactSphereMesh.obj
 0001:00143a60       ?generateLastContacts@PCMSphereVsMeshContactGeneration@Gu@physx@@QEAAXXZ 0000000180144a60 f   GuPCMContactSphereMesh.obj
 0001:00144090       ?growAndPushBack@?$PxArray@USortedTriangle@Gu@physx@@V?$PxInlineAllocator@$0IAA@V?$PxReflectionAllocator@USortedTriangle@Gu@physx@@@physx@@@3@@physx@@IEAAAEAUSortedTriangle@Gu@2@AEBU342@@Z 0000000180145090 f i GuPCMContactSphereMesh.obj
 0001:001441a0       ?pcmContactSphereMesh@Gu@physx@@YA_NAEBVPxGeometry@2@0AEBUPxTransformPadded@2@1AEBUNarrowPhaseParams@12@AEAUCache@12@AEAVPxContactBuffer@2@PEAVPxRenderOutput@2@@Z 00000001801451a0 f   GuPCMContactSphereMesh.obj
 0001:00145710       ?processTriangle@PCMSphereVsMeshContactGeneration@Gu@physx@@QEAA_NPEBV?$PxVec3T@M@3@IEPEBI@Z 0000000180146710 f   GuPCMContactSphereMesh.obj
 0001:00145b00       ?recreate@?$PxArray@IV?$PxInlineAllocator@$0PAA@V?$PxReflectionAllocator@I@physx@@@physx@@@physx@@IEAAXI@Z 0000000180146b00 f i GuPCMContactSphereMesh.obj
 0001:00145bc0       ?pcmContactSpherePlane@Gu@physx@@YA_NAEBVPxGeometry@2@0AEBUPxTransformPadded@2@1AEBUNarrowPhaseParams@12@AEAUCache@12@AEAVPxContactBuffer@2@PEAVPxRenderOutput@2@@Z 0000000180146bc0 f   GuPCMContactSpherePlane.obj
 0001:00145d40       ?pcmContactSphereSphere@Gu@physx@@YA_NAEBVPxGeometry@2@0AEBUPxTransformPadded@2@1AEBUNarrowPhaseParams@12@AEAUCache@12@AEAVPxContactBuffer@2@PEAVPxRenderOutput@2@@Z 0000000180146d40 f   GuPCMContactSphereSphere.obj
 0001:00146610       ?pcmContactGeometryCustomGeometry@Gu@physx@@YA_NAEBVPxGeometry@2@0AEBUPxTransformPadded@2@1AEBUNarrowPhaseParams@12@AEAUCache@12@AEAVPxContactBuffer@2@PEAVPxRenderOutput@2@@Z 0000000180147610 f   GuPCMContactCustomGeometry.obj
 0001:001466c0       ?getPCMConvexData@Gu@physx@@YAXAEBVConvexHullV@12@_NAEAUPolygonalData@12@@Z 00000001801476c0 f   GuPCMShapeConvex.obj
 0001:00146700       ?getPCMConvexData@Gu@physx@@YA_NAEBVPxConvexMeshGeometry@2@AEAVFastVertex2ShapeScaling@Cm@2@AEAVPxBounds3@2@AEAUPolygonalData@12@@Z 0000000180147700 f   GuPCMShapeConvex.obj
 0001:00146c60       ?getPolygonalData@PCMPolygonalBox@Gu@physx@@QEBAXPEIAUPolygonalData@23@@Z 0000000180147c60 f   GuPCMShapeConvex.obj
 0001:00146ce0       ?generatePolyDataContactManifold@PCMConvexVsMeshContactGeneration@Gu@physx@@QEAA_NAEBVTriangleV@23@IIEPEAVMeshPersistentContact@23@AEAIAEBT__m128@@AEAT6@@Z 0000000180147ce0 f   GuPCMTriangleContactGen.obj
 0001:00146e00       ?generateTriangleFullContactManifold@PCMConvexVsMeshContactGeneration@Gu@physx@@QEAA_NAEBVTriangleV@23@IPEBIEAEBUPolygonalData@23@PEBV?$SupportLocalImpl@VTriangleV@Gu@physx@@@23@PEBVSupportLocal@23@PEAVMeshPersistentContact@23@AEAIAEBT__m128@@AEAT9@@Z 0000000180147e00 f   GuPCMTriangleContactGen.obj
 0001:00147330       ?generateTriangleFullContactManifold@PCMConvexVsMeshContactGeneration@Gu@physx@@SA_NAEBVTriangleV@23@IEAEBUPolygonalData@23@PEBV?$SupportLocalImpl@VTriangleV@Gu@physx@@@23@PEBVSupportLocal@23@PEAVMeshPersistentContact@23@AEAIAEBT__m128@@AEAT9@PEAVPxRenderOutput@3@@Z 0000000180148330 f   GuPCMTriangleContactGen.obj
 0001:001493c0       ?addBatchManifoldContacts2@PersistentContactManifold@Gu@physx@@QEAAXPEBVPersistentContact@23@I@Z 000000018014a3c0 f   GuPersistentContactManifold.obj
 0001:00149430       ?addBatchManifoldContacts@PersistentContactManifold@Gu@physx@@QEAAXPEBVPersistentContact@23@IM@Z 000000018014a430 f   GuPersistentContactManifold.obj
 0001:001494b0       ?addBatchManifoldContactsCluster@PersistentContactManifold@Gu@physx@@QEAAXPEBVPersistentContact@23@I@Z 000000018014a4b0 f   GuPersistentContactManifold.obj
 0001:00149730       ?addManifoldContactPoints@MultiplePersistentContactManifold@Gu@physx@@QEAAXPEAVMeshPersistentContact@23@IPEAPEAUPCMContactPatch@23@IAEBT__m128@@2E@Z 000000018014a730 f   GuPersistentContactManifold.obj
 0001:00149b20       ?addManifoldContactsToContactBuffer@MultiplePersistentContactManifold@Gu@physx@@QEAA_NAEAVPxContactBuffer@3@AEBVPxTransformV@aos@3@1AEBT__m128@@@Z 000000018014ab20 f   GuPersistentContactManifold.obj
 0001:00149de0       ?addManifoldContactsToContactBuffer@MultiplePersistentContactManifold@Gu@physx@@QEAA_NAEAVPxContactBuffer@3@AEBVPxTransformV@aos@3@@Z 000000018014ade0 f   GuPersistentContactManifold.obj
 0001:0014a060       ?addManifoldContactsToContactBuffer@PersistentContactManifold@Gu@physx@@QEAAXAEAVPxContactBuffer@3@AEBT__m128@@1AEBVPxTransformV@aos@3@11@Z 000000018014b060 f   GuPersistentContactManifold.obj
 0001:0014a1f0       ?addManifoldContactsToContactBuffer@PersistentContactManifold@Gu@physx@@QEAAXAEAVPxContactBuffer@3@AEBT__m128@@AEBVPxMatTransformV@aos@3@@Z 000000018014b1f0 f   GuPersistentContactManifold.obj
 0001:0014a2a0       ?addManifoldContactsToContactBuffer@PersistentContactManifold@Gu@physx@@QEAAXAEAVPxContactBuffer@3@AEBT__m128@@AEBVPxTransformV@aos@3@1@Z 000000018014b2a0 f   GuPersistentContactManifold.obj
 0001:0014a400       ?addManifoldPoint2@PersistentContactManifold@Gu@physx@@QEAAIAEBT__m128@@000@Z 000000018014b400 f   GuPersistentContactManifold.obj
 0001:0014a530       ?addManifoldPoint@Gu@physx@@YAXPEAVPersistentContact@12@AEAVPersistentContactManifold@12@AEAUGjkOutput@12@AEBVPxMatTransformV@aos@2@T__m128@@@Z 000000018014b530 f   GuPersistentContactManifold.obj
 0001:0014a6e0       ?addManifoldPoint@PersistentContactManifold@Gu@physx@@QEAAIAEBT__m128@@000@Z 000000018014b6e0 f   GuPersistentContactManifold.obj
 0001:0014ab20       ?drawLine@MultiplePersistentContactManifold@Gu@physx@@SAXAEAVPxRenderOutput@3@AEBT__m128@@1I@Z 000000018014bb20 f   GuPersistentContactManifold.obj
 0001:0014abd0       ?drawLine@MultiplePersistentContactManifold@Gu@physx@@SAXAEAVPxRenderOutput@3@V?$PxVec3T@M@3@1I@Z 000000018014bbd0 f   GuPersistentContactManifold.obj
 0001:0014ac40       ?drawManifold@MultiplePersistentContactManifold@Gu@physx@@QEBAXAEAVPxRenderOutput@3@AEBVPxTransformV@aos@3@1@Z 000000018014bc40 f   GuPersistentContactManifold.obj
 0001:0014acc0       ?drawManifold@SinglePersistentContactManifold@Gu@physx@@QEBAXAEAVPxRenderOutput@3@AEBVPxTransformV@aos@3@1@Z 000000018014bcc0 f   GuPersistentContactManifold.obj
 0001:0014b2f0       ?drawPoint@MultiplePersistentContactManifold@Gu@physx@@SAXAEAVPxRenderOutput@3@AEBT__m128@@MI@Z 000000018014c2f0 f   GuPersistentContactManifold.obj
 0001:0014b500       ?drawPolygon@MultiplePersistentContactManifold@Gu@physx@@SAXAEAVPxRenderOutput@3@AEBVPxTransformV@aos@3@PEAT__m128@@II@Z 000000018014c500 f   GuPersistentContactManifold.obj
 0001:0014b780       ?findRotationMatrixFromZAxis@Gu@physx@@YA?AUMat33V@aos@2@AEBT__m128@@@Z 000000018014c780 f   GuPersistentContactManifold.obj
 0001:0014ba00       ?fromBuffer@MultiplePersistentContactManifold@Gu@physx@@QEAAXPEIAE@Z 000000018014ca00 f   GuPersistentContactManifold.obj
 0001:0014bb60       ?reduceBatchContacts2@PersistentContactManifold@Gu@physx@@QEAAXPEBVPersistentContact@23@I@Z 000000018014cb60 f   GuPersistentContactManifold.obj
 0001:0014bd60       ?reduceBatchContacts@PersistentContactManifold@Gu@physx@@QEAAXPEBVPersistentContact@23@IM@Z 000000018014cd60 f   GuPersistentContactManifold.obj
 0001:0014c220       ?reduceBatchContactsCapsule@SinglePersistentContactManifold@Gu@physx@@QEAA?AT__m128@@PEBVMeshPersistentContact@23@IAEAUPCMContactPatch@23@@Z 000000018014d220 f   GuPersistentContactManifold.obj
 0001:0014c4b0       ?reduceBatchContactsCluster@PersistentContactManifold@Gu@physx@@QEAAXPEBVPersistentContact@23@I@Z 000000018014d4b0 f   GuPersistentContactManifold.obj
 0001:0014c940       ?reduceBatchContactsConvex@SinglePersistentContactManifold@Gu@physx@@QEAA?AT__m128@@PEBVMeshPersistentContact@23@IAEAUPCMContactPatch@23@@Z 000000018014d940 f   GuPersistentContactManifold.obj
 0001:0014cf30       ?reduceContacts@SinglePersistentContactManifold@Gu@physx@@SAIPEAVMeshPersistentContact@23@I@Z 000000018014df30 f   GuPersistentContactManifold.obj
 0001:0014d4b0       ?reduceContactsForPCM@PersistentContactManifold@Gu@physx@@QEAAIAEBT__m128@@00@Z 000000018014e4b0 f   GuPersistentContactManifold.obj
 0001:0014da50       ?refreshContactPoints@SinglePersistentContactManifold@Gu@physx@@QEAA?AT__m128@@AEBVPxMatTransformV@aos@3@AEBT4@1@Z 000000018014ea50 f   GuPersistentContactManifold.obj
 0001:0014dba0       ?replaceManifoldPoint@PersistentContactManifold@Gu@physx@@QEAA_NAEBT__m128@@000@Z 000000018014eba0 f   GuPersistentContactManifold.obj
 0001:0014dc60       ?toBuffer@MultiplePersistentContactManifold@Gu@physx@@QEBAXPEIAE@Z 000000018014ec60 f   GuPersistentContactManifold.obj
 0001:0014dd40       ?contains@Gu@physx@@YA_NPEAT__m128@@IAEBT3@11@Z 000000018014ed40 f   GuPCMContactGenUtil.obj
 0001:0014df00       ?getPolygonIndex@Gu@physx@@YAHAEBUPolygonalData@12@PEBVSupportLocal@12@AEBT__m128@@AEAH@Z 000000018014ef00 f   GuPCMContactGenUtil.obj
 0001:0014e1a0       ?getWitnessPolygonIndex@Gu@physx@@YAIAEBUPolygonalData@12@PEBVSupportLocal@12@AEBT__m128@@2M@Z 000000018014f1a0 f   GuPCMContactGenUtil.obj
 0001:0014e6f0       ?sweepBoxBox@Gu@physx@@YA_NAEBVBox@12@0AEBV?$PxVec3T@M@2@MV?$PxFlags@W4Enum@PxHitFlag@physx@@G@2@AEAUPxGeomSweepHit@2@@Z 000000018014f6f0 f   GuSweepBoxBox.obj
 0001:0014fd30       ?sweepBoxSphere@Gu@physx@@YA_NAEBVBox@12@MAEBV?$PxVec3T@M@2@1MAEAMAEAV42@V?$PxFlags@W4Enum@PxHitFlag@physx@@G@2@@Z 0000000180150d30 f   GuSweepBoxSphere.obj
 0001:001509e0       ?sweepBoxTriangle@Gu@physx@@YA_NAEBVPxTriangle@2@AEBVPxBounds3@2@AEBV?$PxVec3T@M@2@2AEAV52@3AEAM_N@Z 00000001801519e0 f   GuSweepBoxTriangle_FeatureBased.obj
 0001:00152100       ?triBoxSweepTestBoxSpace@Gu@physx@@YAHAEBVPxTriangle@2@AEBV?$PxVec3T@M@2@11MAEAM_N@Z 0000000180153100 f   GuSweepBoxTriangle_SAT.obj
 0001:00153a10       ?sweepCapsuleBox@Gu@physx@@YA_NAEBVCapsule@12@AEBV?$PxTransformT@M@2@AEBV?$PxVec3T@M@2@2MAEAV52@AEAM3V?$PxFlags@W4Enum@PxHitFlag@physx@@G@2@@Z 0000000180154a10 f   GuSweepCapsuleBox.obj
 0001:00153d60       ?distancePointSegmentSquared@Gu@physx@@YAMAEBVSegment@12@AEBV?$PxVec3T@M@2@PEAM@Z 0000000180154d60 f i GuSweepCapsuleCapsule.obj
 0001:00153e70       ?edgeEdgeDist@@YAXAEAV?$PxVec3T@M@physx@@0AEBV12@111@Z 0000000180154e70 f   GuSweepCapsuleCapsule.obj
 0001:001540e0       ?sweepCapsuleCapsule@Gu@physx@@YA_NAEBVCapsule@12@0AEBV?$PxVec3T@M@2@MAEAMAEAV42@3IAEAG@Z 00000001801550e0 f   GuSweepCapsuleCapsule.obj
 0001:00154ef0       ?sweepCapsuleTriangles_Precise@Gu@physx@@YA_NIPEIBVPxTriangle@2@AEBVCapsule@12@AEBV?$PxVec3T@M@2@MPEIBIAEAUPxGeomSweepHit@2@AEAV52@V?$PxFlags@W4Enum@PxHitFlag@physx@@G@2@_NPEBVBoxPadded@12@@Z 0000000180155ef0 f   GuSweepCapsuleTriangle.obj
 0001:00157060       ?sweepSphereCapsule@Gu@physx@@YA_NAEBVSphere@12@AEBVCapsule@12@AEBV?$PxVec3T@M@2@MAEAMAEAV52@4V?$PxFlags@W4Enum@PxHitFlag@physx@@G@2@@Z 0000000180158060 f   GuSweepSphereCapsule.obj
 0001:00157700       ?sweepSphereSphere@Gu@physx@@YA_NAEBV?$PxVec3T@M@2@M0M0AEAMAEAV32@@Z 0000000180158700 f   GuSweepSphereSphere.obj
 0001:00157970       ?sweepSphereTriangles@Gu@physx@@YA_NIPEIBVPxTriangle@2@AEBV?$PxVec3T@M@2@M1MPEIBIAEAUPxGeomSweepHit@2@AEAV42@_N555@Z 0000000180158970 f   GuSweepSphereTriangle.obj
 0001:00158240       ?sweepSphereVSQuad@Gu@physx@@YA_NPEIBV?$PxVec3T@M@2@AEBV32@1M1AEAM@Z 0000000180159240 f   GuSweepSphereTriangle.obj
 0001:00159220       ?sweepSphereVSTri@Gu@physx@@YA_NPEIBV?$PxVec3T@M@2@AEBV32@1M1AEAMAEA_N_N@Z 000000018015a220 f   GuSweepSphereTriangle.obj
 0001:00159f40       ??$gjk@U?$LocalConvex@VTriangleV@Gu@physx@@@Gu@physx@@U?$LocalConvex@VBoxV@Gu@physx@@@23@@Gu@physx@@YA?AW4GjkStatus@01@AEBU?$LocalConvex@VTriangleV@Gu@physx@@@01@AEBU?$LocalConvex@VBoxV@Gu@physx@@@01@AEBT__m128@@2AEAT5@333@Z 000000018015af40 f i GuSweepTriangleUtils.obj
 0001:0015ac20       ?computeBoxTriImpactData@Gu@physx@@YAXAEAV?$PxVec3T@M@2@0AEBV32@1AEBVPxTriangle@2@M@Z 000000018015bc20 f   GuSweepTriangleUtils.obj
 0001:0015aea0       ?computeEdgeEdgeNormal@Gu@physx@@YAXAEAV?$PxVec3T@M@2@AEBV32@1111M@Z 000000018015bea0 f   GuSweepTriangleUtils.obj
 0001:0015b150       ?computeSphereTriImpactData@Gu@physx@@YAXAEAV?$PxVec3T@M@2@0AEBV32@1MAEBVPxTriangle@2@@Z 000000018015c150 f   GuSweepTriangleUtils.obj
 0001:0015b630       ??0ShapeData@Gu@physx@@QEAA@AEBVPxGeometry@2@AEBV?$PxTransformT@M@2@M@Z 000000018015c630 f   GuBounds.obj
 0001:0015bba0       ?computeBounds@Gu@physx@@YAXAEAVPxBounds3@2@AEBVPxGeometry@2@AEBV?$PxTransformT@M@2@MM@Z 000000018015cba0 f   GuBounds.obj
 0001:0015c720       ?computeBoundsAroundVertices@Gu@physx@@YAXAEAVPxBounds3@2@IPEIBV?$PxVec3T@M@2@@Z 000000018015d720 f   GuBounds.obj
 0001:0015c7d0       ?computeGlobalBox@Gu@physx@@YAXAEAVPxBounds3@2@IPEIBV32@PEIBI@Z 000000018015d7d0 f   GuBounds.obj
 0001:0015c860       ?computeLocalBoundsAndGeomEpsilon@Gu@physx@@YAXPEBV?$PxVec3T@M@2@IAEAVPxBounds3@2@AEAM@Z 000000018015d860 f   GuBounds.obj
 0001:0015d980       ?computeTightBounds@Gu@physx@@YAXAEAVPxBounds3@2@IPEIBV?$PxVec3T@M@2@AEBV?$PxTransformT@M@2@AEBVPxMeshScale@2@MM@Z 000000018015e980 f   GuBounds.obj
 0001:0015dd40       ??0AABBTree@Gu@physx@@QEAA@XZ 000000018015ed40 f   GuAABBTree.obj
 0001:0015dd70       ??0BVHPartialRefitData@Gu@physx@@QEAA@XZ 000000018015ed70 f   GuAABBTree.obj
 0001:0015dda0       ??0NodeAllocator@Gu@physx@@QEAA@XZ 000000018015eda0 f   GuAABBTree.obj
 0001:0015ddc0       ??1AABBTree@Gu@physx@@QEAA@XZ 000000018015edc0 f   GuAABBTree.obj
 0001:0015dde0       ??1BVHPartialRefitData@Gu@physx@@QEAA@XZ 000000018015ede0 f   GuAABBTree.obj
 0001:0015de80       ??1NodeAllocator@Gu@physx@@QEAA@XZ 000000018015ee80 f   GuAABBTree.obj
 0001:0015ded0       ?_buildHierarchy@AABBTreeBuildNode@Gu@physx@@QEAAXAEBVAABBTreeBuildParams@23@AEAUBuildStats@23@AEAVNodeAllocator@23@QEAI@Z 000000018015eed0 f   GuAABBTree.obj
 0001:0015df60       ?_buildHierarchySAH@AABBTreeBuildNode@Gu@physx@@QEAAXAEBVAABBTreeBuildParams@23@AEAUSAH_Buffers@23@AEAUBuildStats@23@AEAVNodeAllocator@23@QEAI@Z 000000018015ef60 f   GuAABBTree.obj
 0001:0015e010       ?addRuntimeChilds@AABBTree@Gu@physx@@AEAAXAEAIAEBVAABBTreeMergeData@23@@Z 000000018015f010 f   GuAABBTree.obj
 0001:0015e110       ?build@AABBTree@Gu@physx@@QEAA_NAEBVAABBTreeBuildParams@23@AEAVNodeAllocator@23@@Z 000000018015f110 f   GuAABBTree.obj
 0001:0015e330       ?buildAABBTree@Gu@physx@@YAPEAIAEBVAABBTreeBuildParams@12@AEAVNodeAllocator@12@AEAUBuildStats@12@@Z 000000018015f330 f   GuAABBTree.obj
 0001:0015e3d0       ?buildAABBTree@Gu@physx@@YAXIAEBVAABBTreeBounds@12@AEAV?$PxArray@UBVHNode@Gu@physx@@V?$PxReflectionAllocator@UBVHNode@Gu@physx@@@3@@2@@Z 000000018015f3d0 f   GuAABBTree.obj
 0001:0015e7a0       ?buildEnd@AABBTree@Gu@physx@@AEAAXAEBVAABBTreeBuildParams@23@AEAVNodeAllocator@23@AEBUBuildStats@23@@Z 000000018015f7a0 f   GuAABBTree.obj
 0001:0015e9c0       ?createUpdateMap@BVHPartialRefitData@Gu@physx@@QEAAXI@Z 000000018015f9c0 f   GuAABBTree.obj
 0001:0015eae0       ?flattenTree@Gu@physx@@YAXAEBVNodeAllocator@12@PEAUBVHNode@12@PEBI@Z 000000018015fae0 f   GuAABBTree.obj
 0001:0015ecd0       ?fullRefit@BVHCoreData@Gu@physx@@QEAAXPEBVPxBounds3@3@@Z 000000018015fcd0 f   GuAABBTree.obj
 0001:0015ee90       ?getBiNode@NodeAllocator@Gu@physx@@QEAAPEAVAABBTreeBuildNode@23@XZ 000000018015fe90 f   GuAABBTree.obj
 0001:0015efc0       ?getParentIndices@BVHPartialRefitData@Gu@physx@@IEAAPEAIXZ 000000018015ffc0 f   GuAABBTree.obj
 0001:0015f050       ?growAndPushBack@?$PxArray@PEAVAABBTreeBuildNode@Gu@physx@@V?$PxReflectionAllocator@PEAVAABBTreeBuildNode@Gu@physx@@@3@@physx@@IEAAAEAPEAVAABBTreeBuildNode@Gu@2@AEBQEAV342@@Z 0000000180160050 f i GuAABBTree.obj
 0001:0015f170       ?growAndPushBack@?$PxArray@USlab@NodeAllocator@Gu@physx@@V?$PxReflectionAllocator@USlab@NodeAllocator@Gu@physx@@@4@@physx@@IEAAAEAUSlab@NodeAllocator@Gu@2@AEBU3452@@Z 0000000180160170 f i GuAABBTree.obj
 0001:0015f230       ?init@AABBTreeBounds@Gu@physx@@QEAAXIPEBVPxBounds3@3@@Z 0000000180160230 f   GuAABBTree.obj
 0001:0015f2f0       ?init@NodeAllocator@Gu@physx@@QEAAXII@Z 00000001801602f0 f   GuAABBTree.obj
 0001:0015f630       ?initTree@AABBTree@Gu@physx@@QEAAXAEBVAABBTreeMergeData@23@@Z 0000000180160630 f   GuAABBTree.obj
 0001:0015f760       ?markNodeForRefit@BVHPartialRefitData@Gu@physx@@QEAAXI@Z 0000000180160760 f   GuAABBTree.obj
 0001:0015f870       ?mergeRuntimeLeaf@AABBTree@Gu@physx@@AEAAXAEAUBVHNode@23@AEBVAABBTreeMergeData@23@I@Z 0000000180160870 f   GuAABBTree.obj
 0001:0015fac0       ?mergeRuntimeNode@AABBTree@Gu@physx@@AEAAXAEAUBVHNode@23@AEBVAABBTreeMergeData@23@I@Z 0000000180160ac0 f   GuAABBTree.obj
 0001:0015fde0       ?mergeTree@AABBTree@Gu@physx@@QEAAXAEBVAABBTreeMergeData@23@@Z 0000000180160de0 f   GuAABBTree.obj
 0001:00160070       ?progressiveBuild@AABBTree@Gu@physx@@QEAAIAEBVAABBTreeBuildParams@23@AEAVNodeAllocator@23@AEAUBuildStats@23@II@Z 0000000180161070 f   GuAABBTree.obj
 0001:00160320       ?refitMarkedNodes@BVHPartialRefitData@Gu@physx@@QEAAXPEBVPxBounds3@3@@Z 0000000180161320 f   GuAABBTree.obj
 0001:00160490       ?release@AABBTree@Gu@physx@@QEAAX_N@Z 0000000180161490 f   GuAABBTree.obj
 0001:00160580       ?release@AABBTreeBounds@Gu@physx@@QEAAXXZ 0000000180161580 f   GuAABBTree.obj
 0001:001605d0       ?release@NodeAllocator@Gu@physx@@QEAAXXZ 00000001801615d0 f   GuAABBTree.obj
 0001:00160680       ?releasePartialRefitData@BVHPartialRefitData@Gu@physx@@QEAAX_N@Z 0000000180161680 f   GuAABBTree.obj
 0001:00160710       ?reshuffle@Gu@physx@@YAIIQEIAIPEIBV?$PxVec3T@M@2@MI@Z 0000000180161710 f   GuAABBTree.obj
 0001:00160850       ?resize@?$PxArray@USlab@NodeAllocator@Gu@physx@@V?$PxReflectionAllocator@USlab@NodeAllocator@Gu@physx@@@4@@physx@@QEAAXIAEBUSlab@NodeAllocator@Gu@2@@Z 0000000180161850 f i GuAABBTree.obj
 0001:001608d0       ?resize@AABBTreeBounds@Gu@physx@@QEAAXII@Z 00000001801618d0 f   GuAABBTree.obj
 0001:00160970       ?shiftIndices@AABBTree@Gu@physx@@QEAAXI@Z 0000000180161970 f   GuAABBTree.obj
 0001:00160990       ?shiftOrigin@AABBTree@Gu@physx@@QEAAXAEBV?$PxVec3T@M@3@@Z 0000000180161990 f   GuAABBTree.obj
 0001:00160d00       ?subdivide@AABBTreeBuildNode@Gu@physx@@QEAAXAEBVAABBTreeBuildParams@23@AEAUBuildStats@23@AEAVNodeAllocator@23@QEAI@Z 0000000180161d00 f   GuAABBTree.obj
 0001:00160f00       ?subdivideSAH@AABBTreeBuildNode@Gu@physx@@QEAAXAEBVAABBTreeBuildParams@23@AEAUSAH_Buffers@23@AEAUBuildStats@23@AEAVNodeAllocator@23@QEAI@Z 0000000180161f00 f   GuAABBTree.obj
 0001:00160ff0       ?traverseRuntimeNode@AABBTree@Gu@physx@@AEAAXAEAUBVHNode@23@AEBVAABBTreeMergeData@23@I@Z 0000000180161ff0 f   GuAABBTree.obj
 0001:00161130       ?initMap@AABBTreeUpdateMap@Gu@physx@@QEAAXIAEBVAABBTree@23@@Z 0000000180162130 f   GuAABBTreeUpdateMap.obj
 0001:001612c0       ?invalidate@AABBTreeUpdateMap@Gu@physx@@QEAAXIIAEAVAABBTree@23@@Z 00000001801622c0 f   GuAABBTreeUpdateMap.obj
 0001:00161560       ?visualizeTree@@YAXAEAVPxRenderOutput@physx@@IPEBVAABBTree@Gu@2@@Z 0000000180162560 f   GuSqInternal.obj
 0001:001615d0       ?visualizeTree@@YAXAEAVPxRenderOutput@physx@@IPEBVBVH@Gu@2@@Z 00000001801625d0 f   GuSqInternal.obj
 0001:00161640       ?visualizeTree@@YAXAEAVPxRenderOutput@physx@@IPEBVIncrementalAABBTree@Gu@2@PEAVDebugVizCallback@2@@Z 0000000180162640 f   GuSqInternal.obj
 0001:001616c0       ??$PxSort@PEAXU?$PxLess@PEAX@physx@@V?$PxReflectionAllocator@UAABBTreeIndices@Gu@physx@@@2@@physx@@YAXPEAPEAXIAEBU?$PxLess@PEAX@0@AEBV?$PxReflectionAllocator@UAABBTreeIndices@Gu@physx@@@0@I@Z 00000001801626c0 f i GuIncrementalAABBTree.obj
 0001:00161b20       ??$PxSort@PEAXU?$PxLess@PEAX@physx@@V?$PxReflectionAllocator@UIncrementalAABBTreeNodePair@Gu@physx@@@2@@physx@@YAXPEAPEAXIAEBU?$PxLess@PEAX@0@AEBV?$PxReflectionAllocator@UIncrementalAABBTreeNodePair@Gu@physx@@@0@I@Z 0000000180162b20 f i GuIncrementalAABBTree.obj
 0001:00161f80       ??0IncrementalAABBTree@Gu@physx@@QEAA@XZ 0000000180162f80 f   GuIncrementalAABBTree.obj
 0001:00162000       ??1?$PxPoolBase@UAABBTreeIndices@Gu@physx@@V?$PxReflectionAllocator@UAABBTreeIndices@Gu@physx@@@3@@physx@@QEAA@XZ 0000000180163000 f i GuIncrementalAABBTree.obj
 0001:00162160       ??1?$PxPoolBase@UIncrementalAABBTreeNodePair@Gu@physx@@V?$PxReflectionAllocator@UIncrementalAABBTreeNodePair@Gu@physx@@@3@@physx@@QEAA@XZ 0000000180163160 f i GuIncrementalAABBTree.obj
 0001:001622c0       ??1IncrementalAABBTree@Gu@physx@@QEAA@XZ 00000001801632c0 f   GuIncrementalAABBTree.obj
 0001:00162300       ?allocate@?$PxArray@PEAXV?$PxReflectionAllocator@UAABBTreeIndices@Gu@physx@@@physx@@@physx@@IEAAPEAPEAXI@Z 0000000180163300 f i GuIncrementalAABBTree.obj
 0001:00162390       ?allocate@?$PxArray@PEAXV?$PxReflectionAllocator@UIncrementalAABBTreeNodePair@Gu@physx@@@physx@@@physx@@IEAAPEAPEAXI@Z 0000000180163390 f i GuIncrementalAABBTree.obj
 0001:00162420       ?allocate@?$PxPoolBase@UAABBTreeIndices@Gu@physx@@V?$PxReflectionAllocator@UAABBTreeIndices@Gu@physx@@@3@@physx@@QEAAPEAUAABBTreeIndices@Gu@2@XZ 0000000180163420 f i GuIncrementalAABBTree.obj
 0001:00162510       ?allocate@?$PxPoolBase@UIncrementalAABBTreeNodePair@Gu@physx@@V?$PxReflectionAllocator@UIncrementalAABBTreeNodePair@Gu@physx@@@3@@physx@@QEAAPEAUIncrementalAABBTreeNodePair@Gu@2@XZ 0000000180163510 f i GuIncrementalAABBTree.obj
 0001:00162600       ?build@IncrementalAABBTree@Gu@physx@@QEAA_NAEBVAABBTreeBuildParams@23@AEAV?$PxArray@PEAVIncrementalAABBTreeNode@Gu@physx@@V?$PxReflectionAllocator@PEAVIncrementalAABBTreeNode@Gu@physx@@@3@@3@@Z 0000000180163600 f   GuIncrementalAABBTree.obj
 0001:001627e0       ?clone@IncrementalAABBTree@Gu@physx@@AEAAXAEAV?$PxArray@PEAVIncrementalAABBTreeNode@Gu@physx@@V?$PxReflectionAllocator@PEAVIncrementalAABBTreeNode@Gu@physx@@@3@@3@PEBIPEAPEAVIncrementalAABBTreeNode@23@@Z 00000001801637e0 f   GuIncrementalAABBTree.obj
 0001:00162cd0       ?copy@IncrementalAABBTree@Gu@physx@@QEAAXAEBVBVH@23@AEAV?$PxArray@PEAVIncrementalAABBTreeNode@Gu@physx@@V?$PxReflectionAllocator@PEAVIncrementalAABBTreeNode@Gu@physx@@@3@@3@@Z 0000000180163cd0 f   GuIncrementalAABBTree.obj
 0001:00162d80       ?copyNode@IncrementalAABBTree@Gu@physx@@AEAAXAEAVIncrementalAABBTreeNode@23@AEBUBVHNode@23@PEBU523@PEAV423@PEBIAEAV?$PxArray@PEAVIncrementalAABBTreeNode@Gu@physx@@V?$PxReflectionAllocator@PEAVIncrementalAABBTreeNode@Gu@physx@@@3@@3@@Z 0000000180163d80 f   GuIncrementalAABBTree.obj
 0001:00162f40       ?fixupTreeIndices@IncrementalAABBTree@Gu@physx@@QEAAXPEAVIncrementalAABBTreeNode@23@II@Z 0000000180163f40 f   GuIncrementalAABBTree.obj
 0001:00162f70       ?getTreeLeafDepth@IncrementalAABBTree@Gu@physx@@QEAAIPEAVIncrementalAABBTreeNode@23@@Z 0000000180163f70 f   GuIncrementalAABBTree.obj
 0001:00162f90       ?growAndPushBack@?$PxArray@PEAVIncrementalAABBTreeNode@Gu@physx@@V?$PxReflectionAllocator@PEAVIncrementalAABBTreeNode@Gu@physx@@@3@@physx@@IEAAAEAPEAVIncrementalAABBTreeNode@Gu@2@AEBQEAV342@@Z 0000000180163f90 f i GuIncrementalAABBTree.obj
 0001:001630b0       ?growAndPushBack@?$PxArray@PEAXV?$PxReflectionAllocator@UAABBTreeIndices@Gu@physx@@@physx@@@physx@@IEAAAEAPEAXAEBQEAX@Z 00000001801640b0 f i GuIncrementalAABBTree.obj
 0001:00163170       ?growAndPushBack@?$PxArray@PEAXV?$PxReflectionAllocator@UIncrementalAABBTreeNodePair@Gu@physx@@@physx@@@physx@@IEAAAEAPEAXAEBQEAX@Z 0000000180164170 f i GuIncrementalAABBTree.obj
 0001:00163230       ?hierarchyCheck@IncrementalAABBTree@Gu@physx@@QEAAXIPEBVPxBounds3@3@@Z 0000000180164230 f   GuIncrementalAABBTree.obj
 0001:00163380       ?hierarchyCheck@IncrementalAABBTree@Gu@physx@@QEAAXPEBVPxBounds3@3@@Z 0000000180164380 f   GuIncrementalAABBTree.obj
 0001:001634f0       ?insert@IncrementalAABBTree@Gu@physx@@QEAAPEAVIncrementalAABBTreeNode@23@IPEBVPxBounds3@3@AEAV?$PxArray@PEAVIncrementalAABBTreeNode@Gu@physx@@V?$PxReflectionAllocator@PEAVIncrementalAABBTreeNode@Gu@physx@@@3@@3@@Z 00000001801644f0 f   GuIncrementalAABBTree.obj
 0001:00163bd0       ?recreate@?$PxArray@PEAXV?$PxReflectionAllocator@UAABBTreeIndices@Gu@physx@@@physx@@@physx@@IEAAXI@Z 0000000180164bd0 f i GuIncrementalAABBTree.obj
 0001:00163c70       ?recreate@?$PxArray@PEAXV?$PxReflectionAllocator@UIncrementalAABBTreeNodePair@Gu@physx@@@physx@@@physx@@IEAAXI@Z 0000000180164c70 f i GuIncrementalAABBTree.obj
 0001:00163d10       ?release@IncrementalAABBTree@Gu@physx@@QEAAXXZ 0000000180164d10 f   GuIncrementalAABBTree.obj
 0001:00163d40       ?releaseNode@IncrementalAABBTree@Gu@physx@@AEAAXPEAVIncrementalAABBTreeNode@23@@Z 0000000180164d40 f   GuIncrementalAABBTree.obj
 0001:00163dd0       ?remove@IncrementalAABBTree@Gu@physx@@QEAAPEAVIncrementalAABBTreeNode@23@PEAV423@IPEBVPxBounds3@3@@Z 0000000180164dd0 f   GuIncrementalAABBTree.obj
 0001:001640f0       ?rotateTree@IncrementalAABBTree@Gu@physx@@AEAAXPEAVIncrementalAABBTreeNode@23@AEAV?$PxArray@PEAVIncrementalAABBTreeNode@Gu@physx@@V?$PxReflectionAllocator@PEAVIncrementalAABBTreeNode@Gu@physx@@@3@@3@IPEBVPxBounds3@3@_N@Z 00000001801650f0 f   GuIncrementalAABBTree.obj
 0001:00164a50       ?shiftOrigin@IncrementalAABBTree@Gu@physx@@QEAAXAEBV?$PxVec3T@M@3@@Z 0000000180165a50 f   GuIncrementalAABBTree.obj
 0001:00164ab0       ?splitLeafNode@IncrementalAABBTree@Gu@physx@@AEAAPEAVIncrementalAABBTreeNode@23@PEAV423@IAEBT__m128@@1PEBVPxBounds3@3@@Z 0000000180165ab0 f   GuIncrementalAABBTree.obj
 0001:00164da0       ?update@IncrementalAABBTree@Gu@physx@@QEAAPEAVIncrementalAABBTreeNode@23@PEAV423@IPEBVPxBounds3@3@AEAV?$PxArray@PEAVIncrementalAABBTreeNode@Gu@physx@@V?$PxReflectionAllocator@PEAVIncrementalAABBTreeNode@Gu@physx@@@3@@3@@Z 0000000180165da0 f   GuIncrementalAABBTree.obj
 0001:00164e60       ?updateFast@IncrementalAABBTree@Gu@physx@@QEAAPEAVIncrementalAABBTreeNode@23@PEAV423@IPEBVPxBounds3@3@AEAV?$PxArray@PEAVIncrementalAABBTreeNode@Gu@physx@@V?$PxReflectionAllocator@PEAVIncrementalAABBTreeNode@Gu@physx@@@3@@3@@Z 0000000180165e60 f   GuIncrementalAABBTree.obj
 0001:00165080       ??0SAH_Buffers@Gu@physx@@QEAA@I@Z 0000000180166080 f   GuSAH.obj
 0001:00165190       ??1SAH_Buffers@Gu@physx@@QEAA@XZ 0000000180166190 f   GuSAH.obj
 0001:00165260       ?split@SAH_Buffers@Gu@physx@@QEAA_NAEAIIPEIBIPEIBVPxBounds3@3@PEIBV?$PxVec3T@M@3@@Z 0000000180166260 f   GuSAH.obj
 0001:00165940       ??0BVH@Gu@physx@@QEAA@AEBUPxBVHInternalData@2@@Z 0000000180166940 f   GuBVH.obj
 0001:00165a00       ??0BVH@Gu@physx@@QEAA@PEAVMeshFactory@12@@Z 0000000180166a00 f   GuBVH.obj
 0001:00165a70       ??0BVH@Gu@physx@@QEAA@PEAVMeshFactory@12@AEAVBVHData@12@@Z 0000000180166a70 f   GuBVH.obj
 0001:00165b20       ??1BVHData@Gu@physx@@QEAA@XZ 0000000180166b20 f i GuBVH.obj
 0001:00169310       ??_EBVH@Gu@physx@@WBA@EAAPEAXI@Z 000000018016a310 f i GuBVH.obj
 0001:00169320       ??_EBVH@Gu@physx@@UEAAPEAXI@Z 000000018016a320 f i GuBVH.obj
 0001:00169320       ??_GBVH@Gu@physx@@UEAAPEAXI@Z 000000018016a320 f i GuBVH.obj
 0001:001693b0       ??_ERefCountable@Cm@physx@@UEAAPEAXI@Z 000000018016a3b0 f i GuBVH.obj
 0001:001693b0       ??_GRefCountable@Cm@physx@@UEAAPEAXI@Z 000000018016a3b0 f i GuBVH.obj
 0001:001695e0       ?allocate@?$PxArray@PEBUBVHNode@Gu@physx@@V?$PxInlineAllocator@$0IAA@V?$PxReflectionAllocator@PEBUBVHNode@Gu@physx@@@physx@@@3@@physx@@IEAAPEAPEBUBVHNode@Gu@2@I@Z 000000018016a5e0 f i GuBVH.obj
 0001:001696a0       ?build@BVHData@Gu@physx@@QEAA_NIPEBXIMIW4BVHBuildStrategy@23@@Z 000000018016a6a0 f   GuBVH.obj
 0001:00169aa0       ?cull@BVH@Gu@physx@@UEBA_NIPEBVPxPlane@3@AEAUOverlapCallback@PxBVH@3@V?$PxFlags@W4Enum@PxGeometryQueryFlag@physx@@I@3@@Z 000000018016aaa0 f   GuBVH.obj
 0001:0016a3e0       ?getConcreteTypeName@PxBVH@physx@@UEBAPEBDXZ 000000018016b3e0 f i GuBVH.obj
 0001:0016a3f0       ?init@BVH@Gu@physx@@QEAA_NIPEAVAABBTreeBounds@23@PEBXIW4BVHBuildStrategy@23@IM@Z 000000018016b3f0 f   GuBVH.obj
 0001:0016a800       ?isKindOf@PxBVH@physx@@MEBA_NPEBD@Z 000000018016b800 f i GuBVH.obj
 0001:0016a870       ?load@BVH@Gu@physx@@QEAA_NAEAVPxInputStream@3@@Z 000000018016b870 f   GuBVH.obj
 0001:0016aa00       ?onRefCountZero@BVH@Gu@physx@@UEAAXXZ 000000018016ba00 f   GuBVH.obj
 0001:0016aae0       ?onRefCountZero@RefCountable@Cm@physx@@UEAAXXZ 000000018016bae0 f i GuBVH.obj
 0001:0016ab00       ?overlap@BVH@Gu@physx@@QEBA_NAEBVShapeData@23@AEAUOverlapCallback@PxBVH@3@V?$PxFlags@W4Enum@PxGeometryQueryFlag@physx@@I@3@@Z 000000018016bb00 f   GuBVH.obj
 0001:0016b330       ?overlap@BVH@Gu@physx@@UEBA_NAEBVPxGeometry@3@AEBV?$PxTransformT@M@3@AEAUOverlapCallback@PxBVH@3@V?$PxFlags@W4Enum@PxGeometryQueryFlag@physx@@I@3@@Z 000000018016c330 f   GuBVH.obj
 0001:0016b390       ?partialRefit@BVH@Gu@physx@@UEAAXXZ 000000018016c390 f   GuBVH.obj
 0001:0016b3a0       ?raycast@BVH@Gu@physx@@UEBA_NAEBV?$PxVec3T@M@3@0MAEAURaycastCallback@PxBVH@3@V?$PxFlags@W4Enum@PxGeometryQueryFlag@physx@@I@3@@Z 000000018016c3a0 f   GuBVH.obj
 0001:0016b4d0       ?recreate@?$PxArray@PEBUBVHNode@Gu@physx@@V?$PxInlineAllocator@$0IAA@V?$PxReflectionAllocator@PEBUBVHNode@Gu@physx@@@physx@@@3@@physx@@IEAAXI@Z 000000018016c4d0 f i GuBVH.obj
 0001:0016b590       ?refit@BVH@Gu@physx@@UEAAXXZ 000000018016c590 f   GuBVH.obj
 0001:0016b5a0       ?release@BVH@Gu@physx@@UEAAXXZ 000000018016c5a0 f   GuBVH.obj
 0001:0016b5d0       ?resizeUninitialized@?$PxArray@PEBUBVHNode@Gu@physx@@V?$PxInlineAllocator@$0IAA@V?$PxReflectionAllocator@PEBUBVHNode@Gu@physx@@@physx@@@3@@physx@@QEAAXI@Z 000000018016c5d0 f i GuBVH.obj
 0001:0016b620       ?save@BVHData@Gu@physx@@QEBA_NAEAVPxOutputStream@3@_N@Z 000000018016c620 f   GuBVH.obj
 0001:0016b790       ?sweep@BVH@Gu@physx@@QEBA_NAEBVShapeData@23@AEBV?$PxVec3T@M@3@MAEAURaycastCallback@PxBVH@3@V?$PxFlags@W4Enum@PxGeometryQueryFlag@physx@@I@3@@Z 000000018016c790 f   GuBVH.obj
 0001:0016b980       ?sweep@BVH@Gu@physx@@UEBA_NAEBVPxGeometry@3@AEBV?$PxTransformT@M@3@AEBV?$PxVec3T@M@3@MAEAURaycastCallback@PxBVH@3@V?$PxFlags@W4Enum@PxGeometryQueryFlag@physx@@I@3@@Z 000000018016c980 f   GuBVH.obj
 0001:0016ba00       ?traverse@BVH@Gu@physx@@UEBA_NAEAUTraversalCallback@PxBVH@3@@Z 000000018016ca00 f   GuBVH.obj
 0001:0016bb70       ?updateBounds@BVH@Gu@physx@@UEAA_NIAEBVPxBounds3@3@@Z 000000018016cb70 f   GuBVH.obj
 0001:0016bc20       ?updateBoundsInternal@BVH@Gu@physx@@QEAA_NIAEBVPxBounds3@3@@Z 000000018016cc20 f   GuBVH.obj
 0001:0016bcd0       PxFindOverlap              000000018016ccd0 f   GuBVH.obj
 0001:0016bdc0       PxGetBVHInternalData       000000018016cdc0 f   GuBVH.obj
 0001:0016be00       ??0IncrementalAABBPrunerCore@Gu@physx@@QEAA@PEBVPruningPool@12@@Z 000000018016ce00 f   GuIncrementalAABBPrunerCore.obj
 0001:0016bf10       ??1IncrementalAABBPrunerCore@Gu@physx@@QEAA@XZ 000000018016cf10 f   GuIncrementalAABBPrunerCore.obj
 0001:0016c080       ??R?$AABBTreeOverlap@$00U?$OBBAABBTests@$00@Gu@physx@@VIncrementalAABBTree@23@VIncrementalAABBTreeNode@23@UOverlapCallbackAdapter@23@@Gu@physx@@QEAA_NAEBVAABBTreeBounds@12@AEBVIncrementalAABBTree@12@AEBU?$OBBAABBTests@$00@12@AEAUOverlapCallbackAdapter@12@@Z 000000018016d080 f i GuIncrementalAABBPrunerCore.obj
 0001:0016c620       ??R?$AABBTreeOverlap@$00UAABBAABBTest@Gu@physx@@VIncrementalAABBTree@23@VIncrementalAABBTreeNode@23@UOverlapCallbackAdapter@23@@Gu@physx@@QEAA_NAEBVAABBTreeBounds@12@AEBVIncrementalAABBTree@12@AEBUAABBAABBTest@12@AEAUOverlapCallbackAdapter@12@@Z 000000018016d620 f i GuIncrementalAABBPrunerCore.obj
 0001:0016c880       ??R?$AABBTreeOverlap@$00UCapsuleAABBTest@Gu@physx@@VIncrementalAABBTree@23@VIncrementalAABBTreeNode@23@UOverlapCallbackAdapter@23@@Gu@physx@@QEAA_NAEBVAABBTreeBounds@12@AEBVIncrementalAABBTree@12@AEBUCapsuleAABBTest@12@AEAUOverlapCallbackAdapter@12@@Z 000000018016d880 f i GuIncrementalAABBPrunerCore.obj
 0001:0016cbc0       ??R?$AABBTreeRaycast@$00$00VIncrementalAABBTree@Gu@physx@@VIncrementalAABBTreeNode@23@URaycastCallbackAdapter@23@@Gu@physx@@QEAA_NAEBVAABBTreeBounds@12@AEBVIncrementalAABBTree@12@AEBV?$PxVec3T@M@2@2AEAM2AEAURaycastCallbackAdapter@12@@Z 000000018016dbc0 f i GuIncrementalAABBPrunerCore.obj
 0001:0016d280       ??R?$AABBTreeRaycast@$0A@$00VIncrementalAABBTree@Gu@physx@@VIncrementalAABBTreeNode@23@URaycastCallbackAdapter@23@@Gu@physx@@QEAA_NAEBVAABBTreeBounds@12@AEBVIncrementalAABBTree@12@AEBV?$PxVec3T@M@2@2AEAM2AEAURaycastCallbackAdapter@12@@Z 000000018016e280 f i GuIncrementalAABBPrunerCore.obj
 0001:0016d8d0       ?addObject@IncrementalAABBPrunerCore@Gu@physx@@QEAA_NII@Z 000000018016e8d0 f   GuIncrementalAABBPrunerCore.obj
 0001:0016d9c0       ?allocate@?$PxArray@PEBVIncrementalAABBTreeNode@Gu@physx@@V?$PxInlineAllocator@$0IAA@V?$PxReflectionAllocator@PEBVIncrementalAABBTreeNode@Gu@physx@@@physx@@@3@@physx@@IEAAPEAPEBVIncrementalAABBTreeNode@Gu@2@I@Z 000000018016e9c0 f i GuIncrementalAABBPrunerCore.obj
 0001:0016da80       ?clear@?$PxHashMapBase@IPEAVIncrementalAABBTreeNode@Gu@physx@@U?$PxHash@I@3@VPxAllocator@3@@physx@@QEAAXXZ 000000018016ea80 f i GuIncrementalAABBPrunerCore.obj
 0001:0016da80       ?clear@?$PxHashMapBase@UPrunerPayload@Gu@physx@@UExtendedBucketPrunerData@23@UExtendedBucketPrunerHash@23@VPxAllocator@3@@physx@@QEAAXXZ 000000018016ea80 f i GuExtendedBucketPruner.obj
 0001:0016db10       ?create@?$PxHashBase@V?$PxPair@$$CBIPEAVIncrementalAABBTreeNode@Gu@physx@@@physx@@IU?$PxHash@I@2@UGetKey@?$PxHashMapBase@IPEAVIncrementalAABBTreeNode@Gu@physx@@U?$PxHash@I@3@VPxAllocator@3@@2@VPxAllocator@2@$00@physx@@QEAAPEAV?$PxPair@$$CBIPEAVIncrementalAABBTreeNode@Gu@physx@@@2@AEBIAEA_N@Z 000000018016eb10 f i GuIncrementalAABBPrunerCore.obj
 0001:0016dc60       ?erase@?$PxHashBase@V?$PxPair@$$CBIPEAVIncrementalAABBTreeNode@Gu@physx@@@physx@@IU?$PxHash@I@2@UGetKey@?$PxHashMapBase@IPEAVIncrementalAABBTreeNode@Gu@physx@@U?$PxHash@I@3@VPxAllocator@3@@2@VPxAllocator@2@$00@physx@@QEAA_NAEBIAEAV?$PxPair@$$CBIPEAVIncrementalAABBTreeNode@Gu@physx@@@2@@Z 000000018016ec60 f i GuIncrementalAABBPrunerCore.obj
 0001:0016ddd0       ?getCurrentWorldBoxes@PruningPool@Gu@physx@@QEAAPEAVPxBounds3@3@XZ 000000018016edd0 f i GuIncrementalAABBPrunerCore.obj
 0001:0016ddd0       ?getCurrentWorldBoxes@PruningPool@Gu@physx@@QEBAPEBVPxBounds3@3@XZ 000000018016edd0 f i GuIncrementalAABBPrunerCore.obj
 0001:0016ddd0       ?getMesh@CollisionTetrahedronMeshData@Gu@physx@@UEAAPEAVPxTetrahedronMeshData@3@XZ 000000018016edd0 f i GuCookingTetrahedronMesh.obj
 0001:0016ddd0       ?getMesh@CollisionTetrahedronMeshData@Gu@physx@@UEBAPEBVPxTetrahedronMeshData@3@XZ 000000018016edd0 f i GuCookingTetrahedronMesh.obj
 0001:0016ddd0       ?getMesh@SimulationTetrahedronMeshData@Gu@physx@@UEAAPEAVPxTetrahedronMeshData@3@XZ 000000018016edd0 f i GuCookingTetrahedronMesh.obj
 0001:0016dde0       ?getGlobalBounds@IncrementalAABBPrunerCore@Gu@physx@@QEBAXAEAVPxBounds3@3@@Z 000000018016ede0 f   GuIncrementalAABBPrunerCore.obj
 0001:0016df10       ?getIndex@PruningPool@Gu@physx@@QEBAII@Z 000000018016ef10 f i GuIncrementalAABBPrunerCore.obj
 0001:0016df20       ?getPayloadData@PruningPool@Gu@physx@@QEBAAEBUPrunerPayload@23@IPEAUPrunerPayloadData@23@@Z 000000018016ef20 f i GuIncrementalAABBPrunerCore.obj
 0001:0016df70       ?overlap@IncrementalAABBPrunerCore@Gu@physx@@QEBA_NAEBVShapeData@23@AEAUPrunerOverlapCallback@23@@Z 000000018016ef70 f   GuIncrementalAABBPrunerCore.obj
 0001:0016eac0       ?raycast@IncrementalAABBPrunerCore@Gu@physx@@QEBA_NAEBV?$PxVec3T@M@3@0AEAMAEAUPrunerRaycastCallback@23@@Z 000000018016fac0 f   GuIncrementalAABBPrunerCore.obj
 0001:0016eba0       ?recreate@?$PxArray@PEAVIncrementalAABBTreeNode@Gu@physx@@V?$PxReflectionAllocator@PEAVIncrementalAABBTreeNode@Gu@physx@@@3@@physx@@IEAAXI@Z 000000018016fba0 f i GuIncrementalAABBPrunerCore.obj
 0001:0016ec90       ?recreate@?$PxArray@PEBVIncrementalAABBTreeNode@Gu@physx@@V?$PxInlineAllocator@$0IAA@V?$PxReflectionAllocator@PEBVIncrementalAABBTreeNode@Gu@physx@@@physx@@@3@@physx@@IEAAXI@Z 000000018016fc90 f i GuIncrementalAABBPrunerCore.obj
 0001:0016ed50       ?release@IncrementalAABBPrunerCore@Gu@physx@@QEAAXXZ 000000018016fd50 f   GuIncrementalAABBPrunerCore.obj
 0001:0016ee50       ?removeMarkedObjects@IncrementalAABBPrunerCore@Gu@physx@@QEAAII@Z 000000018016fe50 f   GuIncrementalAABBPrunerCore.obj
 0001:0016eeb0       ?removeObject@IncrementalAABBPrunerCore@Gu@physx@@QEAA_NIIAEAI@Z 000000018016feb0 f   GuIncrementalAABBPrunerCore.obj
 0001:0016f0c0       ?reserveInternal@?$PxHashBase@V?$PxPair@$$CBIPEAVIncrementalAABBTreeNode@Gu@physx@@@physx@@IU?$PxHash@I@2@UGetKey@?$PxHashMapBase@IPEAVIncrementalAABBTreeNode@Gu@physx@@U?$PxHash@I@3@VPxAllocator@3@@2@VPxAllocator@2@$00@physx@@AEAAXI@Z 00000001801700c0 f i GuIncrementalAABBPrunerCore.obj
 0001:0016f280       ?resizeUninitialized@?$PxArray@PEBVIncrementalAABBTreeNode@Gu@physx@@V?$PxInlineAllocator@$0IAA@V?$PxReflectionAllocator@PEBVIncrementalAABBTreeNode@Gu@physx@@@physx@@@3@@physx@@QEAAXI@Z 0000000180170280 f i GuIncrementalAABBPrunerCore.obj
 0001:0016f2d0       ?setTransform@PruningPool@Gu@physx@@QEAA_NIAEBV?$PxTransformT@M@3@@Z 00000001801702d0 f i GuIncrementalAABBPrunerCore.obj
 0001:0016f330       ?shiftOrigin@IncrementalAABBPrunerCore@Gu@physx@@QEAAXAEBV?$PxVec3T@M@3@@Z 0000000180170330 f   GuIncrementalAABBPrunerCore.obj
 0001:0016f380       ?swapIndex@IncrementalAABBPrunerCore@Gu@physx@@QEAAXII@Z 0000000180170380 f   GuIncrementalAABBPrunerCore.obj
 0001:0016f460       ?sweep@IncrementalAABBPrunerCore@Gu@physx@@QEBA_NAEBVShapeData@23@AEBV?$PxVec3T@M@3@AEAMAEAUPrunerRaycastCallback@23@@Z 0000000180170460 f   GuIncrementalAABBPrunerCore.obj
 0001:0016f610       ?updateMapping@IncrementalAABBPrunerCore@Gu@physx@@AEAAXAEAV?$PxHashMap@IPEAVIncrementalAABBTreeNode@Gu@physx@@U?$PxHash@I@3@VPxAllocator@3@@3@IPEAVIncrementalAABBTreeNode@23@@Z 0000000180170610 f   GuIncrementalAABBPrunerCore.obj
 0001:0016f760       ?updateObject@IncrementalAABBPrunerCore@Gu@physx@@QEAA_NI@Z 0000000180170760 f   GuIncrementalAABBPrunerCore.obj
 0001:0016f900       ?visualize@IncrementalAABBPrunerCore@Gu@physx@@QEBAXAEAVPxRenderOutput@3@I@Z 0000000180170900 f   GuIncrementalAABBPrunerCore.obj
 0001:0016f960       ??0IncrementalAABBPruner@Gu@physx@@QEAA@I_K@Z 0000000180170960 f   GuIncrementalAABBPruner.obj
 0001:0016fa10       ??R?$AABBTreeOverlap@$00USphereAABBTest@Gu@physx@@VIncrementalAABBTree@23@VIncrementalAABBTreeNode@23@UOverlapCallbackAdapter@23@@Gu@physx@@QEAA_NAEBVAABBTreeBounds@12@AEBVIncrementalAABBTree@12@AEBUSphereAABBTest@12@AEAUOverlapCallbackAdapter@12@@Z 0000000180170a10 f i GuIncrementalAABBPruner.obj
 0001:0016fce0       ??_EBasePruner@Gu@physx@@UEAAPEAXI@Z 0000000180170ce0 f i GuIncrementalAABBPruner.obj
 0001:0016fce0       ??_GBasePruner@Gu@physx@@UEAAPEAXI@Z 0000000180170ce0 f i GuIncrementalAABBPruner.obj
 0001:0016fd30       ??_EIncrementalAABBPruner@Gu@physx@@UEAAPEAXI@Z 0000000180170d30 f i GuIncrementalAABBPruner.obj
 0001:0016fd30       ??_GIncrementalAABBPruner@Gu@physx@@UEAAPEAXI@Z 0000000180170d30 f i GuIncrementalAABBPruner.obj
 0001:0016fe40       ?addObjects@IncrementalAABBPruner@Gu@physx@@UEAA_NPEAIPEBVPxBounds3@3@PEBUPrunerPayload@23@PEBV?$PxTransformT@M@3@I_N@Z 0000000180170e40 f   GuIncrementalAABBPruner.obj
 0001:0016ffe0       ?commit@IncrementalAABBPruner@Gu@physx@@UEAAXXZ 0000000180170fe0 f   GuIncrementalAABBPruner.obj
 0001:00170130       ?getGlobalBounds@IncrementalAABBPruner@Gu@physx@@UEBAXAEAVPxBounds3@3@@Z 0000000180171130 f   GuIncrementalAABBPruner.obj
 0001:001701a0       ?getPayloadData@IncrementalAABBPruner@Gu@physx@@UEBAAEBUPrunerPayload@23@IPEAUPrunerPayloadData@23@@Z 00000001801711a0 f i GuIncrementalAABBPruner.obj
 0001:001701f0       ?overlap@IncrementalAABBPruner@Gu@physx@@UEBA_NAEBVShapeData@23@AEAUPrunerOverlapCallback@23@@Z 00000001801711f0 f   GuIncrementalAABBPruner.obj
 0001:00170900       ?preallocate@IncrementalAABBPruner@Gu@physx@@UEAAXI@Z 0000000180171900 f i GuIncrementalAABBPruner.obj
 0001:00170910       ?purge@IncrementalAABBPruner@Gu@physx@@UEAAXXZ 0000000180171910 f   GuIncrementalAABBPruner.obj
 0001:00170960       ?raycast@IncrementalAABBPruner@Gu@physx@@UEBA_NAEBV?$PxVec3T@M@3@0AEAMAEAUPrunerRaycastCallback@23@@Z 0000000180171960 f   GuIncrementalAABBPruner.obj
 0001:001709e0       ?removeObjects@IncrementalAABBPruner@Gu@physx@@UEAAXPEBIIPEAUPrunerPayloadRemovalCallback@23@@Z 00000001801719e0 f   GuIncrementalAABBPruner.obj
 0001:00170b30       ?resize@?$PxArray@PEAVIncrementalAABBTreeNode@Gu@physx@@V?$PxReflectionAllocator@PEAVIncrementalAABBTreeNode@Gu@physx@@@3@@physx@@QEAAXIAEBQEAVIncrementalAABBTreeNode@Gu@2@@Z 0000000180171b30 f i GuIncrementalAABBPruner.obj
 0001:00170bf0       ?resizeUninitialized@?$PxArray@PEAVIncrementalAABBTreeNode@Gu@physx@@V?$PxReflectionAllocator@PEAVIncrementalAABBTreeNode@Gu@physx@@@3@@physx@@QEAAXI@Z 0000000180171bf0 f i GuIncrementalAABBPruner.obj
 0001:00170c30       ?setTransform@IncrementalAABBPruner@Gu@physx@@UEAA_NIAEBV?$PxTransformT@M@3@@Z 0000000180171c30 f i GuIncrementalAABBPruner.obj
 0001:00170c90       ?shiftOrigin@IncrementalAABBPruner@Gu@physx@@UEAAXAEBV?$PxVec3T@M@3@@Z 0000000180171c90 f   GuIncrementalAABBPruner.obj
 0001:00170cd0       ?sweep@IncrementalAABBPruner@Gu@physx@@UEBA_NAEBVShapeData@23@AEBV?$PxVec3T@M@3@AEAMAEAUPrunerRaycastCallback@23@@Z 0000000180171cd0 f   GuIncrementalAABBPruner.obj
 0001:00170df0       ?updateObjects@IncrementalAABBPruner@Gu@physx@@UEAAXPEBIIM0PEBVPxBounds3@3@PEBUPxTransformPadded@3@@Z 0000000180171df0 f   GuIncrementalAABBPruner.obj
 0001:00170fc0       ?visualize@IncrementalAABBPruner@Gu@physx@@UEBAXAEAVPxRenderOutput@3@II@Z 0000000180171fc0 f   GuIncrementalAABBPruner.obj
 0001:001711b0       ??0PruningPool@Gu@physx@@QEAA@_KW4TransformCacheMode@12@@Z 00000001801721b0 f   GuPruningPool.obj
 0001:001711e0       ??1PruningPool@Gu@physx@@QEAA@XZ 00000001801721e0 f   GuPruningPool.obj
 0001:001712b0       ?addObjects@PruningPool@Gu@physx@@QEAAIPEAIPEBVPxBounds3@3@PEBUPrunerPayload@23@PEBV?$PxTransformT@M@3@I@Z 00000001801722b0 f   GuPruningPool.obj
 0001:00171460       ?preallocate@PruningPool@Gu@physx@@QEAAXI@Z 0000000180172460 f   GuPruningPool.obj
 0001:00171470       ?removeObject@PruningPool@Gu@physx@@QEAAIIPEAUPrunerPayloadRemovalCallback@23@@Z 0000000180172470 f   GuPruningPool.obj
 0001:001715b0       ?resize@PruningPool@Gu@physx@@QEAA_NI@Z 00000001801725b0 f   GuPruningPool.obj
 0001:00171890       ?shiftOrigin@PruningPool@Gu@physx@@QEAAXAEBV?$PxVec3T@M@3@@Z 0000000180172890 f   GuPruningPool.obj
 0001:00171c60       ?updateAndInflateBounds@PruningPool@Gu@physx@@QEAAXPEBI0PEBVPxBounds3@3@PEBUPxTransformPadded@3@IM@Z 0000000180172c60 f   GuPruningPool.obj
 0001:00173680       ??0BucketPruner@Gu@physx@@QEAA@_K@Z 0000000180174680 f   GuBucketPruner.obj
 0001:001736d0       ??0BucketPrunerCore@Gu@physx@@QEAA@_N@Z 00000001801746d0 f   GuBucketPruner.obj
 0001:00173a50       ??1BucketPrunerCore@Gu@physx@@QEAA@XZ 0000000180174a50 f   GuBucketPruner.obj
 0001:00173a70       ??R?$BucketPrunerOverlapTraversal@UBucketPrunerAABBAABBTest@@$00@@QEBA_NAEBVBucketPrunerCore@Gu@physx@@AEBUBucketPrunerAABBAABBTest@@AEAUPrunerOverlapCallback@23@AEBVPxBounds3@3@@Z 0000000180174a70 f i GuBucketPruner.obj
 0001:00174030       ??R?$BucketPrunerOverlapTraversal@UOBBAABBTest_SIMD@@$0A@@@QEBA_NAEBVBucketPrunerCore@Gu@physx@@AEBUOBBAABBTest_SIMD@@AEAUPrunerOverlapCallback@23@AEBVPxBounds3@3@@Z 0000000180175030 f i GuBucketPruner.obj
 0001:001748b0       ??R?$BucketPrunerOverlapTraversal@USphereAABBTest_SIMD@@$00@@QEBA_NAEBVBucketPrunerCore@Gu@physx@@AEBUSphereAABBTest_SIMD@@AEAUPrunerOverlapCallback@23@AEBVPxBounds3@3@@Z 00000001801758b0 f i GuBucketPruner.obj
 0001:00174e90       ??_FBucketPrunerCore@Gu@physx@@QEAAXXZ 0000000180175e90 f i GuBucketPruner.obj
 0001:00174ea0       ??_EBucketPruner@Gu@physx@@UEAAPEAXI@Z 0000000180175ea0 f i GuBucketPruner.obj
 0001:00174ea0       ??_GBucketPruner@Gu@physx@@UEAAPEAXI@Z 0000000180175ea0 f i GuBucketPruner.obj
 0001:00174f40       ?addObject@BucketPrunerCore@Gu@physx@@QEAA_NAEBUPrunerPayload@23@AEBVPxBounds3@3@AEBV?$PxTransformT@M@3@I@Z 0000000180175f40 f   GuBucketPruner.obj
 0001:00175250       ?addObjects@BucketPruner@Gu@physx@@UEAA_NPEAIPEBVPxBounds3@3@PEBUPrunerPayload@23@PEBV?$PxTransformT@M@3@I_N@Z 0000000180176250 f   GuBucketPruner.obj
 0001:001752e0       ?addPair@BucketPrunerMap@Gu@physx@@QEAAPEAUBucketPrunerPair@23@AEBUPrunerPayload@23@II@Z 00000001801762e0 f   GuBucketPruner.obj
 0001:001754e0       ?allocateSortedMemory@BucketPrunerCore@Gu@physx@@AEAAXI@Z 00000001801764e0 f   GuBucketPruner.obj
 0001:001756a0       ?classifyBoxes@BucketPrunerCore@Gu@physx@@AEAAXXZ 00000001801766a0 f   GuBucketPruner.obj
 0001:00175e90       ?classifyBoxes@BucketPrunerNode@Gu@physx@@QEAAXMMIPEIAUBucketBox@23@PEIBUPrunerPayload@23@PEIBV?$PxTransformT@M@3@0PEIAU523@PEIAV63@_NI@Z 0000000180176e90 f   GuBucketPruner.obj
 0001:00176710       ?build@CompanionPrunerBucket@@UEAAXXZ 0000000180177710 f   GuSecondaryPruner.obj
 0001:00176710       ?commit@BucketPruner@Gu@physx@@UEAAXXZ 0000000180177710 f   GuBucketPruner.obj
 0001:00176720       ?findPair@BucketPrunerMap@Gu@physx@@QEBAPEBUBucketPrunerPair@23@AEBUPrunerPayload@23@@Z 0000000180177720 f   GuBucketPruner.obj
 0001:00176b10       ?getGlobalBounds@BucketPruner@Gu@physx@@UEBAXAEAVPxBounds3@3@@Z 0000000180177b10 f   GuBucketPruner.obj
 0001:00176b90       ?getGlobalBounds@BucketPrunerCore@Gu@physx@@QEBAXAEAVPxBounds3@3@@Z 0000000180177b90 f   GuBucketPruner.obj
 0001:00176c10       ?getPayloadData@BucketPruner@Gu@physx@@UEBAAEBUPrunerPayload@23@IPEAUPrunerPayloadData@23@@Z 0000000180177c10 f i GuBucketPruner.obj
 0001:00176c70       ?overlap@BucketPruner@Gu@physx@@UEBA_NAEBVShapeData@23@AEAUPrunerOverlapCallback@23@@Z 0000000180177c70 f   GuBucketPruner.obj
 0001:00176c90       ?overlap@BucketPrunerCore@Gu@physx@@QEBA_NAEBVShapeData@23@AEAUPrunerOverlapCallback@23@@Z 0000000180177c90 f   GuBucketPruner.obj
 0001:00176f70       ?preallocate@BucketPruner@Gu@physx@@UEAAXI@Z 0000000180177f70 f i GuBucketPruner.obj
 0001:00177150       ?purge@BucketPrunerMap@Gu@physx@@QEAAXXZ 0000000180178150 f   GuBucketPruner.obj
 0001:001771e0       ?raycast@BucketPruner@Gu@physx@@UEBA_NAEBV?$PxVec3T@M@3@0AEAMAEAUPrunerRaycastCallback@23@@Z 00000001801781e0 f   GuBucketPruner.obj
 0001:00177230       ?raycast@BucketPrunerCore@Gu@physx@@QEBA_NAEBV?$PxVec3T@M@3@0AEAMAEAUPrunerRaycastCallback@23@@Z 0000000180178230 f   GuBucketPruner.obj
 0001:00177270       ?reallocPairs@BucketPrunerMap@Gu@physx@@QEAAXXZ 0000000180178270 f   GuBucketPruner.obj
 0001:001774b0       ?release@BucketPrunerCore@Gu@physx@@QEAAXXZ 00000001801784b0 f   GuBucketPruner.obj
 0001:001775f0       ?removeMarkedObjects@BucketPrunerCore@Gu@physx@@QEAAII@Z 00000001801785f0 f   GuBucketPruner.obj
 0001:001779c0       ?removeObject@BucketPrunerCore@Gu@physx@@QEAA_NAEBUPrunerPayload@23@AEAI@Z 00000001801789c0 f   GuBucketPruner.obj
 0001:00177c80       ?removeObjects@BucketPruner@Gu@physx@@UEAAXPEBIIPEAUPrunerPayloadRemovalCallback@23@@Z 0000000180178c80 f   GuBucketPruner.obj
 0001:00177d30       ?removePair@BucketPrunerMap@Gu@physx@@QEAA_NAEBUPrunerPayload@23@AEAI1@Z 0000000180178d30 f   GuBucketPruner.obj
 0001:00177eb0       ?removePairInternal@BucketPrunerMap@Gu@physx@@QEAAXAEBUPrunerPayload@23@II@Z 0000000180178eb0 f   GuBucketPruner.obj
 0001:00178040       ?resizeCore@BucketPrunerCore@Gu@physx@@AEAAXXZ 0000000180179040 f   GuBucketPruner.obj
 0001:00178290       ?setTransform@BucketPruner@Gu@physx@@UEAA_NIAEBV?$PxTransformT@M@3@@Z 0000000180179290 f i GuBucketPruner.obj
 0001:001782f0       ?shiftOrigin@BucketPruner@Gu@physx@@UEAAXAEBV?$PxVec3T@M@3@@Z 00000001801792f0 f   GuBucketPruner.obj
 0001:001782f0       ?shiftOrigin@CompanionPrunerBucket@@UEAAXAEBV?$PxVec3T@M@physx@@@Z 00000001801792f0 f   GuSecondaryPruner.obj
 0001:00178300       ?shiftOrigin@BucketPrunerCore@Gu@physx@@QEAAXAEBV?$PxVec3T@M@3@@Z 0000000180179300 f   GuBucketPruner.obj
 0001:00179130       ?sweep@BucketPruner@Gu@physx@@UEBA_NAEBVShapeData@23@AEBV?$PxVec3T@M@3@AEAMAEAUPrunerRaycastCallback@23@@Z 000000018017a130 f   GuBucketPruner.obj
 0001:00179150       ?sweep@BucketPrunerCore@Gu@physx@@QEBA_NAEBVShapeData@23@AEBV?$PxVec3T@M@3@AEAMAEAUPrunerRaycastCallback@23@@Z 000000018017a150 f   GuBucketPruner.obj
 0001:00179220       ?updateObject@BucketPrunerCore@Gu@physx@@QEAA_NAEBVPxBounds3@3@AEBUPrunerPayload@23@AEBV?$PxTransformT@M@3@@Z 000000018017a220 f   GuBucketPruner.obj
 0001:00179280       ?updateObjects@BucketPruner@Gu@physx@@UEAAXPEBIIM0PEBVPxBounds3@3@PEBUPxTransformPadded@3@@Z 000000018017a280 f   GuBucketPruner.obj
 0001:00179390       ?visualize@BucketPruner@Gu@physx@@UEBAXAEAVPxRenderOutput@3@II@Z 000000018017a390 f   GuBucketPruner.obj
 0001:00179390       ?visualize@CompanionPrunerBucket@@UEBAXAEAVPxRenderOutput@physx@@I@Z 000000018017a390 f   GuSecondaryPruner.obj
 0001:001793a0       ?visualize@BucketPrunerCore@Gu@physx@@QEBAXAEAVPxRenderOutput@3@I@Z 000000018017a3a0 f   GuBucketPruner.obj
 0001:001796c0       ?addObject@MaverickNode@Gu@physx@@QEAA_NAEBUPrunerPayload@23@IAEBVPxBounds3@3@AEBV?$PxTransformT@M@3@I@Z 000000018017a6c0 f   GuMaverickNode.obj
 0001:001797a0       ?removeMarkedObjects@MaverickNode@Gu@physx@@QEAAII@Z 000000018017a7a0 f   GuMaverickNode.obj
 0001:00179930       ?removeObject@MaverickNode@Gu@physx@@QEAA_NIAEAI@Z 000000018017a930 f   GuMaverickNode.obj
 0001:00179ac0       ?shiftOrigin@MaverickNode@Gu@physx@@QEAAXAEBV?$PxVec3T@M@3@@Z 000000018017aac0 f   GuMaverickNode.obj
 0001:00179bb0       ?updateObject@MaverickNode@Gu@physx@@QEAA_NIAEBVPxBounds3@3@AEBV?$PxTransformT@M@3@@Z 000000018017abb0 f   GuMaverickNode.obj
 0001:00179c90       ??0ExtendedBucketPruner@Gu@physx@@QEAA@_KW4CompanionPrunerType@12@PEBVPruningPool@12@@Z 000000018017ac90 f   GuExtendedBucketPruner.obj
 0001:00179ec0       ??1ExtendedBucketPruner@Gu@physx@@QEAA@XZ 000000018017aec0 f   GuExtendedBucketPruner.obj
 0001:0017a030       ??R?$AABBTreeOverlap@$00U?$OBBAABBTests@$00@Gu@physx@@VAABBTree@23@UBVHNode@23@U?$MainTreeOverlapPrunerCallback@U?$OBBAABBTests@$00@Gu@physx@@@@@Gu@physx@@QEAA_NAEBVAABBTreeBounds@12@AEBVAABBTree@12@AEBU?$OBBAABBTests@$00@12@AEAU?$MainTreeOverlapPrunerCallback@U?$OBBAABBTests@$00@Gu@physx@@@@@Z 000000018017b030 f i GuExtendedBucketPruner.obj
 0001:0017a610       ??R?$AABBTreeOverlap@$00U?$OBBAABBTests@$00@Gu@physx@@VAABBTree@23@UBVHNode@23@UOverlapCallbackAdapter@23@@Gu@physx@@QEAA_NAEBVAABBTreeBounds@12@AEBVAABBTree@12@AEBU?$OBBAABBTests@$00@12@AEAUOverlapCallbackAdapter@12@@Z 000000018017b610 f i GuExtendedBucketPruner.obj
 0001:0017abd0       ??R?$AABBTreeOverlap@$00UAABBAABBTest@Gu@physx@@VAABBTree@23@UBVHNode@23@U?$MainTreeOverlapPrunerCallback@UAABBAABBTest@Gu@physx@@@@@Gu@physx@@QEAA_NAEBVAABBTreeBounds@12@AEBVAABBTree@12@AEBUAABBAABBTest@12@AEAU?$MainTreeOverlapPrunerCallback@UAABBAABBTest@Gu@physx@@@@@Z 000000018017bbd0 f i GuExtendedBucketPruner.obj
 0001:0017ae70       ??R?$AABBTreeOverlap@$00UAABBAABBTest@Gu@physx@@VAABBTree@23@UBVHNode@23@UOverlapCallbackAdapter@23@@Gu@physx@@QEAA_NAEBVAABBTreeBounds@12@AEBVAABBTree@12@AEBUAABBAABBTest@12@AEAUOverlapCallbackAdapter@12@@Z 000000018017be70 f i GuExtendedBucketPruner.obj
 0001:0017b100       ??R?$AABBTreeOverlap@$00UCapsuleAABBTest@Gu@physx@@VAABBTree@23@UBVHNode@23@U?$MainTreeOverlapPrunerCallback@UCapsuleAABBTest@Gu@physx@@@@@Gu@physx@@QEAA_NAEBVAABBTreeBounds@12@AEBVAABBTree@12@AEBUCapsuleAABBTest@12@AEAU?$MainTreeOverlapPrunerCallback@UCapsuleAABBTest@Gu@physx@@@@@Z 000000018017c100 f i GuExtendedBucketPruner.obj
 0001:0017b4a0       ??R?$AABBTreeOverlap@$00UCapsuleAABBTest@Gu@physx@@VAABBTree@23@UBVHNode@23@UOverlapCallbackAdapter@23@@Gu@physx@@QEAA_NAEBVAABBTreeBounds@12@AEBVAABBTree@12@AEBUCapsuleAABBTest@12@AEAUOverlapCallbackAdapter@12@@Z 000000018017c4a0 f i GuExtendedBucketPruner.obj
 0001:0017b830       ??R?$AABBTreeOverlap@$00USphereAABBTest@Gu@physx@@VAABBTree@23@UBVHNode@23@U?$MainTreeOverlapPrunerCallback@USphereAABBTest@Gu@physx@@@@@Gu@physx@@QEAA_NAEBVAABBTreeBounds@12@AEBVAABBTree@12@AEBUSphereAABBTest@12@AEAU?$MainTreeOverlapPrunerCallback@USphereAABBTest@Gu@physx@@@@@Z 000000018017c830 f i GuExtendedBucketPruner.obj
 0001:0017bb40       ??R?$AABBTreeOverlap@$00USphereAABBTest@Gu@physx@@VAABBTree@23@UBVHNode@23@UOverlapCallbackAdapter@23@@Gu@physx@@QEAA_NAEBVAABBTreeBounds@12@AEBVAABBTree@12@AEBUSphereAABBTest@12@AEAUOverlapCallbackAdapter@12@@Z 000000018017cb40 f i GuExtendedBucketPruner.obj
 0001:0017be30       ??R?$AABBTreeRaycast@$00$00VAABBTree@Gu@physx@@UBVHNode@23@U?$MainTreeRaycastPrunerCallback@$00@@@Gu@physx@@QEAA_NAEBVAABBTreeBounds@12@AEBVAABBTree@12@AEBV?$PxVec3T@M@2@2AEAM2AEAU?$MainTreeRaycastPrunerCallback@$00@@@Z 000000018017ce30 f i GuExtendedBucketPruner.obj
 0001:0017c550       ??R?$AABBTreeRaycast@$00$00VAABBTree@Gu@physx@@UBVHNode@23@URaycastCallbackAdapter@23@@Gu@physx@@QEAA_NAEBVAABBTreeBounds@12@AEBVAABBTree@12@AEBV?$PxVec3T@M@2@2AEAM2AEAURaycastCallbackAdapter@12@@Z 000000018017d550 f i GuExtendedBucketPruner.obj
 0001:0017cc30       ??R?$AABBTreeRaycast@$0A@$00VAABBTree@Gu@physx@@UBVHNode@23@U?$MainTreeRaycastPrunerCallback@$0A@@@@Gu@physx@@QEAA_NAEBVAABBTreeBounds@12@AEBVAABBTree@12@AEBV?$PxVec3T@M@2@2AEAM2AEAU?$MainTreeRaycastPrunerCallback@$0A@@@@Z 000000018017dc30 f i GuExtendedBucketPruner.obj
 0001:0017d2f0       ??R?$AABBTreeRaycast@$0A@$00VAABBTree@Gu@physx@@UBVHNode@23@URaycastCallbackAdapter@23@@Gu@physx@@QEAA_NAEBVAABBTreeBounds@12@AEBVAABBTree@12@AEBV?$PxVec3T@M@2@2AEAM2AEAURaycastCallbackAdapter@12@@Z 000000018017e2f0 f i GuExtendedBucketPruner.obj
 0001:0017d970       ?addTree@ExtendedBucketPruner@Gu@physx@@QEAAXAEBVAABBTreeMergeData@23@I@Z 000000018017e970 f   GuExtendedBucketPruner.obj
 0001:0017dc40       ?buildMainAABBTree@ExtendedBucketPruner@Gu@physx@@AEAAXXZ 000000018017ec40 f   GuExtendedBucketPruner.obj
 0001:0017dcf0       ?create@?$PxHashBase@V?$PxPair@$$CBUPrunerPayload@Gu@physx@@UExtendedBucketPrunerData@23@@physx@@UPrunerPayload@Gu@2@UExtendedBucketPrunerHash@42@UGetKey@?$PxHashMapBase@UPrunerPayload@Gu@physx@@UExtendedBucketPrunerData@23@UExtendedBucketPrunerHash@23@VPxAllocator@3@@2@VPxAllocator@2@$00@physx@@QEAAPEAV?$PxPair@$$CBUPrunerPayload@Gu@physx@@UExtendedBucketPrunerData@23@@2@AEBUPrunerPayload@Gu@2@AEA_N@Z 000000018017ecf0 f i GuExtendedBucketPruner.obj
 0001:0017dec0       ?eraseInternal@?$PxHashBase@V?$PxPair@$$CBUPrunerPayload@Gu@physx@@UExtendedBucketPrunerData@23@@physx@@UPrunerPayload@Gu@2@UExtendedBucketPrunerHash@42@UGetKey@?$PxHashMapBase@UPrunerPayload@Gu@physx@@UExtendedBucketPrunerData@23@UExtendedBucketPrunerHash@23@VPxAllocator@3@@2@VPxAllocator@2@$00@physx@@AEAA_NPEAI@Z 000000018017eec0 f i GuExtendedBucketPruner.obj
 0001:0017dfe0       ?find@?$PxHashMapBase@UPrunerPayload@Gu@physx@@UExtendedBucketPrunerData@23@UExtendedBucketPrunerHash@23@VPxAllocator@3@@physx@@QEBAPEBV?$PxPair@$$CBUPrunerPayload@Gu@physx@@UExtendedBucketPrunerData@23@@2@AEBUPrunerPayload@Gu@2@@Z 000000018017efe0 f i GuExtendedBucketPruner.obj
 0001:0017e0d0       ?getGlobalBounds@ExtendedBucketPruner@Gu@physx@@QEBAXAEAVPxBounds3@3@@Z 000000018017f0d0 f   GuExtendedBucketPruner.obj
 0001:0017e1a0       ?invalidateObject@ExtendedBucketPruner@Gu@physx@@AEAAXAEBUExtendedBucketPrunerData@23@IAEBUPrunerPayload@23@I@Z 000000018017f1a0 f   GuExtendedBucketPruner.obj
 0001:0017e2e0       ?overlap@ExtendedBucketPruner@Gu@physx@@QEBA_NAEBVShapeData@23@AEAUPrunerOverlapCallback@23@@Z 000000018017f2e0 f   GuExtendedBucketPruner.obj
 0001:0017eac0       ?raycast@ExtendedBucketPruner@Gu@physx@@QEBA_NAEBV?$PxVec3T@M@3@0AEAMAEAUPrunerRaycastCallback@23@@Z 000000018017fac0 f   GuExtendedBucketPruner.obj
 0001:0017eba0       ?refitMarkedNodes@ExtendedBucketPruner@Gu@physx@@QEAAXPEBVPxBounds3@3@@Z 000000018017fba0 f   GuExtendedBucketPruner.obj
 0001:0017f120       ?release@ExtendedBucketPruner@Gu@physx@@QEAAXXZ 0000000180180120 f   GuExtendedBucketPruner.obj
 0001:0017f1f0       ?removeMarkedObjects@ExtendedBucketPruner@Gu@physx@@QEAAII@Z 00000001801801f0 f   GuExtendedBucketPruner.obj
 0001:0017f510       ?removeObject@ExtendedBucketPruner@Gu@physx@@QEAA_NAEBUPrunerPayload@23@II0I@Z 0000000180180510 f   GuExtendedBucketPruner.obj
 0001:0017f700       ?reserveInternal@?$PxHashBase@V?$PxPair@$$CBUPrunerPayload@Gu@physx@@UExtendedBucketPrunerData@23@@physx@@UPrunerPayload@Gu@2@UExtendedBucketPrunerHash@42@UGetKey@?$PxHashMapBase@UPrunerPayload@Gu@physx@@UExtendedBucketPrunerData@23@UExtendedBucketPrunerHash@23@VPxAllocator@3@@2@VPxAllocator@2@$00@physx@@AEAAXI@Z 0000000180180700 f i GuExtendedBucketPruner.obj
 0001:0017f900       ?shiftOrigin@ExtendedBucketPruner@Gu@physx@@QEAAXAEBV?$PxVec3T@M@3@@Z 0000000180180900 f   GuExtendedBucketPruner.obj
 0001:0017f980       ?swapIndex@ExtendedBucketPruner@Gu@physx@@QEAAXIAEBUPrunerPayload@23@I_N@Z 0000000180180980 f   GuExtendedBucketPruner.obj
 0001:0017fa50       ?sweep@ExtendedBucketPruner@Gu@physx@@QEBA_NAEBVShapeData@23@AEBV?$PxVec3T@M@3@AEAMAEAUPrunerRaycastCallback@23@@Z 0000000180180a50 f   GuExtendedBucketPruner.obj
 0001:0017fbe0       ?updateObject@ExtendedBucketPruner@Gu@physx@@QEAA_NAEBVPxBounds3@3@AEBV?$PxTransformT@M@3@AEBUPrunerPayload@23@II@Z 0000000180180be0 f   GuExtendedBucketPruner.obj
 0001:0017fcb0       ?visualize@ExtendedBucketPruner@Gu@physx@@QEBAXAEAVPxRenderOutput@3@I@Z 0000000180180cb0 f   GuExtendedBucketPruner.obj
 0001:0017fd40       ??0?$OBBAABBTests@$00@Gu@physx@@QEAA@AEBV?$PxVec3T@M@2@AEBV?$PxMat33T@M@2@0@Z 0000000180180d40 f i GuSecondaryPruner.obj
 0001:00181c90       ??_ECompanionPruner@Gu@physx@@UEAAPEAXI@Z 0000000180182c90 f i GuSecondaryPruner.obj
 0001:00181c90       ??_GCompanionPruner@Gu@physx@@UEAAPEAXI@Z 0000000180182c90 f i GuSecondaryPruner.obj
 0001:00181ce0       ??_ECompanionPrunerAABBTree@@UEAAPEAXI@Z 0000000180182ce0 f i GuSecondaryPruner.obj
 0001:00181ce0       ??_GCompanionPrunerAABBTree@@UEAAPEAXI@Z 0000000180182ce0 f i GuSecondaryPruner.obj
 0001:00181d90       ??_ECompanionPrunerBucket@@UEAAPEAXI@Z 0000000180182d90 f i GuSecondaryPruner.obj
 0001:00181d90       ??_GCompanionPrunerBucket@@UEAAPEAXI@Z 0000000180182d90 f i GuSecondaryPruner.obj
 0001:00181e10       ??_ECompanionPrunerIncremental@@UEAAPEAXI@Z 0000000180182e10 f i GuSecondaryPruner.obj
 0001:00181e10       ??_GCompanionPrunerIncremental@@UEAAPEAXI@Z 0000000180182e10 f i GuSecondaryPruner.obj
 0001:00181e90       ?addObject@CompanionPrunerAABBTree@@UEAA_NAEBUPrunerPayload@Gu@physx@@IAEBVPxBounds3@4@AEBV?$PxTransformT@M@4@II@Z 0000000180182e90 f   GuSecondaryPruner.obj
 0001:001820d0       ?addObject@CompanionPrunerBucket@@UEAA_NAEBUPrunerPayload@Gu@physx@@IAEBVPxBounds3@4@AEBV?$PxTransformT@M@4@II@Z 00000001801830d0 f i GuSecondaryPruner.obj
 0001:001820f0       ?addObject@CompanionPrunerIncremental@@UEAA_NAEBUPrunerPayload@Gu@physx@@IAEBVPxBounds3@4@AEBV?$PxTransformT@M@4@II@Z 00000001801830f0 f i GuSecondaryPruner.obj
 0001:00182110       ?addObjectInternal@CompanionPrunerAABBTree@@QEAA_NII@Z 0000000180183110 f   GuSecondaryPruner.obj
 0001:001822b0       ?build@CompanionPrunerAABBTree@@UEAAXXZ 00000001801832b0 f   GuSecondaryPruner.obj
 0001:00182780       ?createCompanionPruner@Gu@physx@@YAPEAVCompanionPruner@12@_KW4CompanionPrunerType@12@PEBVPruningPool@12@@Z 0000000180183780 f   GuSecondaryPruner.obj
 0001:00182980       ?getGlobalBounds@CompanionPrunerAABBTree@@UEBAXAEAVPxBounds3@physx@@@Z 0000000180183980 f   GuSecondaryPruner.obj
 0001:00182a90       ?getGlobalBounds@CompanionPrunerBucket@@UEBAXAEAVPxBounds3@physx@@@Z 0000000180183a90 f i GuSecondaryPruner.obj
 0001:00182aa0       ?getGlobalBounds@CompanionPrunerIncremental@@UEBAXAEAVPxBounds3@physx@@@Z 0000000180183aa0 f i GuSecondaryPruner.obj
 0001:00182ab0       ?getNbObjects@CompanionPrunerAABBTree@@UEBAIXZ 0000000180183ab0 f   GuSecondaryPruner.obj
 0001:00182ac0       ?getNbObjects@CompanionPrunerBucket@@UEBAIXZ 0000000180183ac0 f i GuSecondaryPruner.obj
 0001:00182ad0       ?getNbObjects@CompanionPrunerIncremental@@UEBAIXZ 0000000180183ad0 f i GuSecondaryPruner.obj
 0001:00182ae0       ?growAndPushBack@?$PxArray@ULocalData@CompanionPrunerAABBTree@@V?$PxReflectionAllocator@ULocalData@CompanionPrunerAABBTree@@@physx@@@physx@@IEAAAEAULocalData@CompanionPrunerAABBTree@@AEBU34@@Z 0000000180183ae0 f i GuSecondaryPruner.obj
 0001:00182c00       ?overlap@CompanionPrunerAABBTree@@UEBA_NAEBVShapeData@Gu@physx@@AEAUPrunerOverlapCallback@34@@Z 0000000180183c00 f   GuSecondaryPruner.obj
 0001:00183b90       ?overlap@CompanionPrunerBucket@@UEBA_NAEBVShapeData@Gu@physx@@AEAUPrunerOverlapCallback@34@@Z 0000000180184b90 f i GuSecondaryPruner.obj
 0001:00183bb0       ?overlap@CompanionPrunerIncremental@@UEBA_NAEBVShapeData@Gu@physx@@AEAUPrunerOverlapCallback@34@@Z 0000000180184bb0 f i GuSecondaryPruner.obj
 0001:00183bd0       ?raycast@CompanionPrunerAABBTree@@UEBA_NAEBV?$PxVec3T@M@physx@@0AEAMAEAUPrunerRaycastCallback@Gu@3@@Z 0000000180184bd0 f   GuSecondaryPruner.obj
 0001:00183fc0       ?raycast@CompanionPrunerBucket@@UEBA_NAEBV?$PxVec3T@M@physx@@0AEAMAEAUPrunerRaycastCallback@Gu@3@@Z 0000000180184fc0 f i GuSecondaryPruner.obj
 0001:00183fe0       ?raycast@CompanionPrunerIncremental@@UEBA_NAEBV?$PxVec3T@M@physx@@0AEAMAEAUPrunerRaycastCallback@Gu@3@@Z 0000000180184fe0 f i GuSecondaryPruner.obj
 0001:00184000       ?release@CompanionPrunerAABBTree@@UEAAXXZ 0000000180185000 f   GuSecondaryPruner.obj
 0001:00184010       ?release@CompanionPrunerBucket@@UEAAXXZ 0000000180185010 f i GuSecondaryPruner.obj
 0001:00184020       ?release@CompanionPrunerIncremental@@UEAAXXZ 0000000180185020 f i GuSecondaryPruner.obj
 0001:00184030       ?releaseInternal@CompanionPrunerAABBTree@@QEAAXXZ 0000000180185030 f   GuSecondaryPruner.obj
 0001:001840b0       ?removeMarkedObjects@CompanionPrunerAABBTree@@UEAAII@Z 00000001801850b0 f   GuSecondaryPruner.obj
 0001:001840d0       ?removeMarkedObjects@CompanionPrunerBucket@@UEAAII@Z 00000001801850d0 f i GuSecondaryPruner.obj
 0001:001840e0       ?removeMarkedObjects@CompanionPrunerIncremental@@UEAAII@Z 00000001801850e0 f i GuSecondaryPruner.obj
 0001:001840f0       ?removeObject@CompanionPrunerAABBTree@@UEAA_NAEBUPrunerPayload@Gu@physx@@III@Z 00000001801850f0 f   GuSecondaryPruner.obj
 0001:00184190       ?removeObject@CompanionPrunerBucket@@UEAA_NAEBUPrunerPayload@Gu@physx@@III@Z 0000000180185190 f i GuSecondaryPruner.obj
 0001:001841b0       ?removeObject@CompanionPrunerIncremental@@UEAA_NAEBUPrunerPayload@Gu@physx@@III@Z 00000001801851b0 f i GuSecondaryPruner.obj
 0001:001841d0       ?shiftOrigin@CompanionPrunerAABBTree@@UEAAXAEBV?$PxVec3T@M@physx@@@Z 00000001801851d0 f   GuSecondaryPruner.obj
 0001:00184300       ?shiftOrigin@CompanionPrunerIncremental@@UEAAXAEBV?$PxVec3T@M@physx@@@Z 0000000180185300 f i GuSecondaryPruner.obj
 0001:00184310       ?swapIndex@CompanionPrunerIncremental@@UEAAXII@Z 0000000180185310 f i GuSecondaryPruner.obj
 0001:00184320       ?sweep@CompanionPrunerAABBTree@@UEBA_NAEBVShapeData@Gu@physx@@AEBV?$PxVec3T@M@4@AEAMAEAUPrunerRaycastCallback@34@@Z 0000000180185320 f   GuSecondaryPruner.obj
 0001:00184850       ?sweep@CompanionPrunerBucket@@UEBA_NAEBVShapeData@Gu@physx@@AEBV?$PxVec3T@M@4@AEAMAEAUPrunerRaycastCallback@34@@Z 0000000180185850 f i GuSecondaryPruner.obj
 0001:00184870       ?sweep@CompanionPrunerIncremental@@UEBA_NAEBVShapeData@Gu@physx@@AEBV?$PxVec3T@M@4@AEAMAEAUPrunerRaycastCallback@34@@Z 0000000180185870 f i GuSecondaryPruner.obj
 0001:00184890       ?timeStampChange@CompanionPrunerIncremental@@UEAAXXZ 0000000180185890 f i GuSecondaryPruner.obj
 0001:001848b0       ?updateObject@CompanionPrunerAABBTree@@UEAA_NAEBUPrunerPayload@Gu@physx@@IAEBVPxBounds3@4@AEBV?$PxTransformT@M@4@I@Z 00000001801858b0 f   GuSecondaryPruner.obj
 0001:00184930       ?updateObject@CompanionPrunerBucket@@UEAA_NAEBUPrunerPayload@Gu@physx@@IAEBVPxBounds3@4@AEBV?$PxTransformT@M@4@I@Z 0000000180185930 f i GuSecondaryPruner.obj
 0001:00184950       ?updateObject@CompanionPrunerIncremental@@UEAA_NAEBUPrunerPayload@Gu@physx@@IAEBVPxBounds3@4@AEBV?$PxTransformT@M@4@I@Z 0000000180185950 f i GuSecondaryPruner.obj
 0001:00184960       ?visualize@CompanionPrunerAABBTree@@UEBAXAEAVPxRenderOutput@physx@@I@Z 0000000180185960 f   GuSecondaryPruner.obj
 0001:00184980       ?visualize@CompanionPrunerIncremental@@UEBAXAEAVPxRenderOutput@physx@@I@Z 0000000180185980 f i GuSecondaryPruner.obj
 0001:00184990       ??0AABBPruner@Gu@physx@@QEAA@_N_KW4CompanionPrunerType@12@W4BVHBuildStrategy@12@I@Z 0000000180185990 f   GuAABBPruner.obj
 0001:00184ac0       ??1AABBPruner@Gu@physx@@UEAA@XZ 0000000180185ac0 f   GuAABBPruner.obj
 0001:00184c20       ??_EAABBPruner@Gu@physx@@UEAAPEAXI@Z 0000000180185c20 f i GuAABBPruner.obj
 0001:00184c20       ??_GAABBPruner@Gu@physx@@UEAAPEAXI@Z 0000000180185c20 f i GuAABBPruner.obj
 0001:00184c90       ?addObjects@AABBPruner@Gu@physx@@UEAA_NPEAIPEBVPxBounds3@3@PEBUPrunerPayload@23@PEBV?$PxTransformT@M@3@I_N@Z 0000000180185c90 f   GuAABBPruner.obj
 0001:00184df0       ?buildStep@AABBPruner@Gu@physx@@UEAA_N_N@Z 0000000180185df0 f   GuAABBPruner.obj
 0001:00185020       ?commit@AABBPruner@Gu@physx@@UEAAXXZ 0000000180186020 f   GuAABBPruner.obj
 0001:001853e0       ?getGlobalBounds@AABBPruner@Gu@physx@@UEBAXAEAVPxBounds3@3@@Z 00000001801863e0 f   GuAABBPruner.obj
 0001:00185520       ?getPayloadData@AABBPruner@Gu@physx@@UEBAAEBUPrunerPayload@23@IPEAUPrunerPayloadData@23@@Z 0000000180186520 f i GuAABBPruner.obj
 0001:00185580       ?growAndPushBack@?$PxArray@UNewTreeFixup@AABBPruner@Gu@physx@@V?$PxReflectionAllocator@UNewTreeFixup@AABBPruner@Gu@physx@@@4@@physx@@IEAAAEAUNewTreeFixup@AABBPruner@Gu@2@AEBU3452@@Z 0000000180186580 f i GuAABBPruner.obj
 0001:001856a0       ?isDynamic@AABBPruner@Gu@physx@@UEBA_NXZ 00000001801866a0 f i GuAABBPruner.obj
 0001:001856b0       ?merge@AABBPruner@Gu@physx@@UEAAXPEBX@Z 00000001801866b0 f   GuAABBPruner.obj
 0001:00185730       ?overlap@AABBPruner@Gu@physx@@UEBA_NAEBVShapeData@23@AEAUPrunerOverlapCallback@23@@Z 0000000180186730 f   GuAABBPruner.obj
 0001:00185d00       ?preallocate@AABBPruner@Gu@physx@@UEAAXI@Z 0000000180186d00 f i GuAABBPruner.obj
 0001:00185d10       ?prepareBuild@AABBPruner@Gu@physx@@UEAA_NXZ 0000000180186d10 f   GuAABBPruner.obj
 0001:00185ea0       ?purge@AABBPruner@Gu@physx@@UEAAXXZ 0000000180186ea0 f   GuAABBPruner.obj
 0001:00185ec0       ?raycast@AABBPruner@Gu@physx@@UEBA_NAEBV?$PxVec3T@M@3@0AEAMAEAUPrunerRaycastCallback@23@@Z 0000000180186ec0 f   GuAABBPruner.obj
 0001:00185fb0       ?release@AABBPruner@Gu@physx@@QEAAXXZ 0000000180186fb0 f   GuAABBPruner.obj
 0001:001860e0       ?removeObjects@AABBPruner@Gu@physx@@UEAAXPEBIIPEAUPrunerPayloadRemovalCallback@23@@Z 00000001801870e0 f   GuAABBPruner.obj
 0001:001862d0       ?setRebuildRateHint@AABBPruner@Gu@physx@@UEAAXI@Z 00000001801872d0 f   GuAABBPruner.obj
 0001:001862f0       ?setTransform@AABBPruner@Gu@physx@@UEAA_NIAEBV?$PxTransformT@M@3@@Z 00000001801872f0 f i GuAABBPruner.obj
 0001:00186350       ?shiftOrigin@AABBPruner@Gu@physx@@UEAAXAEBV?$PxVec3T@M@3@@Z 0000000180187350 f   GuAABBPruner.obj
 0001:001863c0       ?sweep@AABBPruner@Gu@physx@@UEBA_NAEBVShapeData@23@AEBV?$PxVec3T@M@3@AEAMAEAUPrunerRaycastCallback@23@@Z 00000001801873c0 f   GuAABBPruner.obj
 0001:00186550       ?updateObjects@AABBPruner@Gu@physx@@UEAAXPEBIIM0PEBVPxBounds3@3@PEBUPxTransformPadded@3@@Z 0000000180187550 f   GuAABBPruner.obj
 0001:001866f0       ?visualize@AABBPruner@Gu@physx@@UEBAXAEAVPxRenderOutput@3@II@Z 00000001801876f0 f   GuAABBPruner.obj
 0001:001867a0       ??0ActorShapeMap@Gu@physx@@QEAA@XZ 00000001801877a0 f   GuActorShapeMap.obj
 0001:00186800       ??1ActorShapeMap@Gu@physx@@QEAA@XZ 0000000180187800 f   GuActorShapeMap.obj
 0001:00186860       ?add@ActorShapeMap@Gu@physx@@QEAA_NIPEBX0_K@Z 0000000180187860 f   GuActorShapeMap.obj
 0001:00186a00       ?create@?$PxHashBase@V?$PxPair@$$CBUActorShape@ActorShapeMap@Gu@physx@@_K@physx@@UActorShape@ActorShapeMap@Gu@2@U?$PxHash@UActorShape@ActorShapeMap@Gu@physx@@@2@UGetKey@?$PxHashMapBase@UActorShape@ActorShapeMap@Gu@physx@@_KU?$PxHash@UActorShape@ActorShapeMap@Gu@physx@@@4@VPxAllocator@4@@2@VPxAllocator@2@$00@physx@@QEAAPEAV?$PxPair@$$CBUActorShape@ActorShapeMap@Gu@physx@@_K@2@AEBUActorShape@ActorShapeMap@Gu@2@AEA_N@Z 0000000180187a00 f i GuActorShapeMap.obj
 0001:00186bf0       ?eraseInternal@?$PxHashBase@V?$PxPair@$$CBUActorShape@ActorShapeMap@Gu@physx@@_K@physx@@UActorShape@ActorShapeMap@Gu@2@U?$PxHash@UActorShape@ActorShapeMap@Gu@physx@@@2@UGetKey@?$PxHashMapBase@UActorShape@ActorShapeMap@Gu@physx@@_KU?$PxHash@UActorShape@ActorShapeMap@Gu@physx@@@4@VPxAllocator@4@@2@VPxAllocator@2@$00@physx@@AEAA_NPEAI@Z 0000000180187bf0 f i GuActorShapeMap.obj
 0001:00186d00       ?find@ActorShapeMap@Gu@physx@@QEBA_KIPEBX0@Z 0000000180187d00 f   GuActorShapeMap.obj
 0001:00186df0       ?remove@ActorShapeMap@Gu@physx@@QEAA_NIPEBX0PEA_K@Z 0000000180187df0 f   GuActorShapeMap.obj
 0001:00186f40       ?reserveInternal@?$PxHashBase@V?$PxPair@$$CBUActorShape@ActorShapeMap@Gu@physx@@_K@physx@@UActorShape@ActorShapeMap@Gu@2@U?$PxHash@UActorShape@ActorShapeMap@Gu@physx@@@2@UGetKey@?$PxHashMapBase@UActorShape@ActorShapeMap@Gu@physx@@_KU?$PxHash@UActorShape@ActorShapeMap@Gu@physx@@@4@VPxAllocator@4@@2@VPxAllocator@2@$00@physx@@AEAAXI@Z 0000000180187f40 f i GuActorShapeMap.obj
 0001:00187150       ??0QuerySystem@Gu@physx@@QEAA@_KMAEBVAdapter@12@_N@Z 0000000180188150 f   GuQuerySystem.obj
 0001:00187220       ??1QuerySystem@Gu@physx@@QEAA@XZ 0000000180188220 f   GuQuerySystem.obj
 0001:00187470       ??_GPrunerExt@QuerySystem@Gu@physx@@QEAAPEAXI@Z 0000000180188470 f i GuQuerySystem.obj
 0001:00187580       ?addPruner@QuerySystem@Gu@physx@@QEAAIPEAVPruner@23@I@Z 0000000180188580 f   GuQuerySystem.obj
 0001:001876a0       ?addPrunerShape@QuerySystem@Gu@physx@@QEAA_KAEBUPrunerPayload@23@I_NAEBV?$PxTransformT@M@3@PEBVPxBounds3@3@@Z 00000001801886a0 f   GuQuerySystem.obj
 0001:001877e0       ?addToDirtyList@PrunerExt@QuerySystem@Gu@physx@@QEAAXIIAEBV?$PxTransformT@M@4@PEBVPxBounds3@4@@Z 00000001801887e0 f   GuQuerySystem.obj
 0001:00187a30       ?commitUpdates@QuerySystem@Gu@physx@@QEAAXXZ 0000000180188a30 f   GuQuerySystem.obj
 0001:00187ae0       ?createTreeOfPruners@QuerySystem@Gu@physx@@QEAAXXZ 0000000180188ae0 f   GuQuerySystem.obj
 0001:00187c40       ?flushMemory@QuerySystem@Gu@physx@@QEAAXXZ 0000000180188c40 f   GuQuerySystem.obj
 0001:00187cd0       ?getPayloadData@QuerySystem@Gu@physx@@QEBAAEBUPrunerPayload@23@_KPEAUPrunerPayloadData@23@@Z 0000000180188cd0 f   GuQuerySystem.obj
 0001:00187cf0       ?growAndPushBack@?$PxArray@PEAUPrunerExt@QuerySystem@Gu@physx@@V?$PxReflectionAllocator@PEAUPrunerExt@QuerySystem@Gu@physx@@@4@@physx@@IEAAAEAPEAUPrunerExt@QuerySystem@Gu@2@AEBQEAU3452@@Z 0000000180188cf0 f i GuQuerySystem.obj
 0001:00187e10       ?overlap@QuerySystem@Gu@physx@@QEBAXAEBVShapeData@23@AEAUPrunerOverlapCallback@23@PEBVPrunerFilter@23@@Z 0000000180188e10 f   GuQuerySystem.obj
 0001:00187f10       ?processDirtyLists@QuerySystem@Gu@physx@@AEAAXXZ 0000000180188f10 f   GuQuerySystem.obj
 0001:001881f0       ?raycast@QuerySystem@Gu@physx@@QEBAXAEBV?$PxVec3T@M@3@0AEAMAEAUPrunerRaycastCallback@23@PEBVPrunerFilter@23@@Z 00000001801891f0 f   GuQuerySystem.obj
 0001:00188330       ?recreate@?$PxArray@UData@PrunerExt@QuerySystem@Gu@physx@@V?$PxReflectionAllocator@UData@PrunerExt@QuerySystem@Gu@physx@@@5@@physx@@IEAAXI@Z 0000000180189330 f i GuQuerySystem.obj
 0001:00188620       ?removePruner@QuerySystem@Gu@physx@@QEAAXI@Z 0000000180189620 f   GuQuerySystem.obj
 0001:00188700       ?removePrunerShape@QuerySystem@Gu@physx@@QEAAX_KPEAUPrunerPayloadRemovalCallback@23@@Z 0000000180189700 f   GuQuerySystem.obj
 0001:00188930       ?sweep@QuerySystem@Gu@physx@@QEBAXAEBVShapeData@23@AEBV?$PxVec3T@M@3@AEAMAEAUPrunerRaycastCallback@23@PEBVPrunerFilter@23@@Z 0000000180189930 f   GuQuerySystem.obj
 0001:00188a60       ?sync@QuerySystem@Gu@physx@@QEAAXIPEBI0PEBVPxBounds3@3@PEBUPxTransformPadded@3@I@Z 0000000180189a60 f   GuQuerySystem.obj
 0001:00188b10       ?update@QuerySystem@Gu@physx@@QEAAX_N0@Z 0000000180189b10 f   GuQuerySystem.obj
 0001:00188be0       ?updatePrunerShape@QuerySystem@Gu@physx@@QEAAX_K_NAEBV?$PxTransformT@M@3@PEBVPxBounds3@3@@Z 0000000180189be0 f   GuQuerySystem.obj
 0001:00188dd0       createAABBPruner           0000000180189dd0 f   GuFactory.obj
 0001:00188e90       createBucketPruner         0000000180189e90 f   GuFactory.obj
 0001:00188f20       createIncrementalPruner    0000000180189f20 f   GuFactory.obj
 0001:00188fb0       ??$PxSmallSort@I$$CBUSortBoundsPredicate@physx@@@physx@@YAXPEAIHHAEBUSortBoundsPredicate@0@@Z 0000000180189fb0 f i GuRTreeCooking.obj
 0001:00189250       ??$PxSort@IU?$PxLess@I@physx@@V?$PxReflectionAllocator@I@2@@physx@@YAXPEAIIAEBU?$PxLess@I@0@AEBV?$PxReflectionAllocator@I@0@I@Z 000000018018a250 f i GuRTreeCooking.obj
 0001:001896a0       ??$PxSort@IUSortBoundsPredicate@physx@@V?$PxReflectionAllocator@I@2@@physx@@YAXPEAIIAEBUSortBoundsPredicate@0@AEBV?$PxReflectionAllocator@I@0@I@Z 000000018018a6a0 f i GuRTreeCooking.obj
 0001:00189b50       ??$quickSelectFirstK@UBoundsLTE@physx@@@quickSelect@physx@@YAXPEIAIIIIAEBUBoundsLTE@1@@Z 000000018018ab50 f i GuRTreeCooking.obj
 0001:00189d30       ?allocate@?$PxArray@UInterval@physx@@V?$PxInlineAllocator@$0CAAA@V?$PxReflectionAllocator@UInterval@physx@@@physx@@@2@@physx@@IEAAPEAUInterval@2@I@Z 000000018018ad30 f i GuRTreeCooking.obj
 0001:00189df0       ?allocate@?$PxArray@UPxBounds3V@physx@@V?$PxReflectionAllocator@UPxBounds3V@physx@@@2@@physx@@IEAAPEAUPxBounds3V@2@I@Z 000000018018adf0 f i GuRTreeCooking.obj
 0001:00189e80       ?allocate@?$PxArray@URTreeNodeNQ@physx@@V?$PxReflectionAllocator@URTreeNodeNQ@physx@@@2@@physx@@IEAAPEAURTreeNodeNQ@2@I@Z 000000018018ae80 f i GuRTreeCooking.obj
 0001:00189f10       ?allocate@?$PxArray@URTreeNodeQ@Gu@physx@@V?$PxReflectionAllocator@URTreeNodeQ@Gu@physx@@@3@@physx@@IEAAPEAURTreeNodeQ@Gu@2@I@Z 000000018018af10 f i GuRTreeCooking.obj
 0001:0018ac20       ?buildFromTriangles@RTreeCooker@physx@@SAXAEAURTree@Gu@2@PEBV?$PxVec3T@M@2@IPEBGPEBIIAEAV?$PxArray@IV?$PxReflectionAllocator@I@physx@@@2@PEAURemapCallback@12@MW4Enum@PxMeshCookingHint@2@@Z 000000018018bc20 f   GuRTreeCooking.obj
 0001:0018aee0       ?copy@?$PxArray@URTreeNodeNQ@physx@@V?$PxReflectionAllocator@URTreeNodeNQ@physx@@@2@@physx@@KAXPEAURTreeNodeNQ@2@0PEBU32@@Z 000000018018bee0 f i GuRTreeCooking.obj
 0001:0018b0a0       ?growAndPushBack@?$PxArray@UInterval@physx@@V?$PxInlineAllocator@$0CAAA@V?$PxReflectionAllocator@UInterval@physx@@@physx@@@2@@physx@@IEAAAEAUInterval@2@AEBU32@@Z 000000018018c0a0 f i GuRTreeCooking.obj
 0001:0018b180       ?growAndPushBack@?$PxArray@UPxBounds3V@physx@@V?$PxReflectionAllocator@UPxBounds3V@physx@@@2@@physx@@IEAAAEAUPxBounds3V@2@AEBU32@@Z 000000018018c180 f i GuRTreeCooking.obj
 0001:0018b260       ?growAndPushBack@?$PxArray@URTreeNodeNQ@physx@@V?$PxReflectionAllocator@URTreeNodeNQ@physx@@@2@@physx@@IEAAAEAURTreeNodeNQ@2@AEBU32@@Z 000000018018c260 f i GuRTreeCooking.obj
 0001:0018b340       ?growAndPushBack@?$PxArray@URTreeNodeQ@Gu@physx@@V?$PxReflectionAllocator@URTreeNodeQ@Gu@physx@@@3@@physx@@IEAAAEAURTreeNodeQ@Gu@2@AEBU342@@Z 000000018018c340 f i GuRTreeCooking.obj
 0001:0018b430       ?recreate@?$PxArray@UPxBounds3V@physx@@V?$PxReflectionAllocator@UPxBounds3V@physx@@@2@@physx@@IEAAXI@Z 000000018018c430 f i GuRTreeCooking.obj
 0001:0018b4e0       ?recreate@?$PxArray@URTreeNodeNQ@physx@@V?$PxReflectionAllocator@URTreeNodeNQ@physx@@@2@@physx@@IEAAXI@Z 000000018018c4e0 f i GuRTreeCooking.obj
 0001:0018b570       ?recreate@?$PxArray@URTreeNodeQ@Gu@physx@@V?$PxReflectionAllocator@URTreeNodeQ@Gu@physx@@@3@@physx@@IEAAXI@Z 000000018018c570 f i GuRTreeCooking.obj
 0001:0018b630       ?resizeUninitialized@?$PxArray@URTreeNodeNQ@physx@@V?$PxReflectionAllocator@URTreeNodeNQ@physx@@@2@@physx@@QEAAXI@Z 000000018018c630 f i GuRTreeCooking.obj
 0001:0018b670       ?sort4@SubSortQuick@physx@@QEAAXPEIAIIAEAV?$PxArray@URTreeNodeNQ@physx@@V?$PxReflectionAllocator@URTreeNodeNQ@physx@@@2@@2@AEAIAEAUPxBounds3V@2@I@Z 000000018018c670 f i GuRTreeCooking.obj
 0001:0018ba00       ?sort4@SubSortSAH@physx@@QEAAXPEAIIAEAV?$PxArray@URTreeNodeNQ@physx@@V?$PxReflectionAllocator@URTreeNodeNQ@physx@@@2@@2@AEAIIPEAURTreeNodeNQ@2@@Z 000000018018ca00 f i GuRTreeCooking.obj
 0001:0018c240       ?split@SubSortSAH@physx@@QEAAIPEAII@Z 000000018018d240 f i GuRTreeCooking.obj
 0001:0018ccb0       cookBVH                    000000018018dcb0 f   GuCookingBVH.obj
 0001:0018ce40       createBVH                  000000018018de40 f   GuCookingBVH.obj
 0001:0018cfd0       cookHeightField            000000018018dfd0 f   GuCookingHF.obj
 0001:0018d0e0       createHeightField          000000018018e0e0 f   GuCookingHF.obj
 0001:0018d770       ?isFinite@?$PxVec3T@M@physx@@QEBA_NXZ 000000018018e770 f i GuCookingConvexMesh.obj
 0001:0018d7d0       computeHullPolygons        000000018018e7d0 f   GuCookingConvexMesh.obj
 0001:0018d9b0       cookConvexMesh             000000018018e9b0 f   GuCookingConvexMesh.obj
 0001:0018db20       createConvexMesh           000000018018eb20 f   GuCookingConvexMesh.obj
 0001:0018dcc0       validateConvexMesh         000000018018ecc0 f   GuCookingConvexMesh.obj
 0001:0018dde0       ??1BV4TriangleMeshBuilder@physx@@UEAA@XZ 000000018018ede0 f   GuCookingTriangleMesh.obj
 0001:0018de70       ??1RTreeTriangleMeshBuilder@physx@@UEAA@XZ 000000018018ee70 f   GuCookingTriangleMesh.obj
 0001:0018dee0       ??_EBV4TriangleMeshBuilder@physx@@UEAAPEAXI@Z 000000018018eee0 f i GuCookingTriangleMesh.obj
 0001:0018dee0       ??_GBV4TriangleMeshBuilder@physx@@UEAAPEAXI@Z 000000018018eee0 f i GuCookingTriangleMesh.obj
 0001:0018df20       ??_ERTreeTriangleMeshBuilder@physx@@UEAAPEAXI@Z 000000018018ef20 f i GuCookingTriangleMesh.obj
 0001:0018df20       ??_GRTreeTriangleMeshBuilder@physx@@UEAAPEAXI@Z 000000018018ef20 f i GuCookingTriangleMesh.obj
 0001:0018df60       ??_ETriangleMeshBuilder@physx@@UEAAPEAXI@Z 000000018018ef60 f i GuCookingTriangleMesh.obj
 0001:0018df60       ??_GTriangleMeshBuilder@physx@@UEAAPEAXI@Z 000000018018ef60 f i GuCookingTriangleMesh.obj
 0001:0018e910       ?buildInertiaTensor@TriangleMeshBuilder@physx@@IEAAX_N@Z 000000018018f910 f   GuCookingTriangleMesh.obj
 0001:0018ea70       ?buildInertiaTensorFromSDF@TriangleMeshBuilder@physx@@IEAAXXZ 000000018018fa70 f   GuCookingTriangleMesh.obj
 0001:0018ecb0       ?cleanMesh@TriangleMeshBuilder@physx@@QEAA_N_NPEAW4Enum@PxTriangleMeshCookingResult@2@@Z 000000018018fcb0 f   GuCookingTriangleMesh.obj
 0001:0018f1a0       ?createGRBMidPhaseAndData@TriangleMeshBuilder@physx@@QEAA_NI@Z 00000001801901a0 f   GuCookingTriangleMesh.obj
 0001:0018f350       ?createMidPhaseStructure@BV32TriangleMeshBuilder@physx@@SA_NAEBUPxCookingParams@2@AEAVTriangleMeshData@Gu@2@AEAVBV32Tree@52@@Z 0000000180190350 f   GuCookingTriangleMesh.obj
 0001:0018f5a0       ?createMidPhaseStructure@BV4TriangleMeshBuilder@physx@@UEAA_NXZ 00000001801905a0 f   GuCookingTriangleMesh.obj
 0001:0018f860       ?createMidPhaseStructure@RTreeTriangleMeshBuilder@physx@@UEAA_NXZ 0000000180190860 f   GuCookingTriangleMesh.obj
 0001:0018f950       ?createSharedEdgeData@TriangleMeshBuilder@physx@@QEAAX_N0@Z 0000000180190950 f   GuCookingTriangleMesh.obj
 0001:00190000       ?createVertMapping@TriangleMeshBuilder@physx@@QEAAXXZ 0000000180191000 f   GuCookingTriangleMesh.obj
 0001:00190360       ?importMesh@TriangleMeshBuilder@physx@@IEAA_NAEBVPxTriangleMeshDesc@2@PEAW4Enum@PxTriangleMeshCookingResult@2@_N@Z 0000000180191360 f   GuCookingTriangleMesh.obj
 0001:00190820       ?isValid@PxTriangleMeshDesc@physx@@QEBA_NXZ 0000000180191820 f i GuCookingTriangleMesh.obj
 0001:001908f0       ?loadFromDescInternal@TriangleMeshBuilder@physx@@IEAA_NAEAVPxTriangleMeshDesc@2@PEAW4Enum@PxTriangleMeshCookingResult@2@_N@Z 00000001801918f0 f   GuCookingTriangleMesh.obj
 0001:00190b10       ?onMeshIndexFormatChange@BV4TriangleMeshBuilder@physx@@UEAAXXZ 0000000180191b10 f   GuCookingTriangleMesh.obj
 0001:00190b50       ?remap@RTreeCookerRemap@@UEAAXPEAIII@Z 0000000180191b50 f i GuCookingTriangleMesh.obj
 0001:00190b70       ?remapTopology@TriangleMeshBuilder@physx@@QEAAXPEBI@Z 0000000180191b70 f   GuCookingTriangleMesh.obj
 0001:00190e10       ?save@TriangleMeshBuilder@physx@@QEBA_NAEAVPxOutputStream@2@_NAEBUPxCookingParams@2@@Z 0000000180191e10 f   GuCookingTriangleMesh.obj
 0001:001915c0       ?saveMidPhaseStructure@BV32TriangleMeshBuilder@physx@@SAXPEAVBV32Tree@Gu@2@AEAVPxOutputStream@2@_N@Z 00000001801925c0 f   GuCookingTriangleMesh.obj
 0001:001917c0       ?saveMidPhaseStructure@BV4TriangleMeshBuilder@physx@@UEBAXAEAVPxOutputStream@2@_N@Z 00000001801927c0 f   GuCookingTriangleMesh.obj
 0001:00191970       ?saveMidPhaseStructure@RTreeTriangleMeshBuilder@physx@@UEBAXAEAVPxOutputStream@2@_N@Z 0000000180192970 f   GuCookingTriangleMesh.obj
 0001:00191bb0       cookTriangleMesh           0000000180192bb0 f   GuCookingTriangleMesh.obj
 0001:00191ec0       createTriangleMesh         0000000180192ec0 f   GuCookingTriangleMesh.obj
 0001:001920e0       validateTriangleMesh       00000001801930e0 f   GuCookingTriangleMesh.obj
 0001:001923a0       ??0SoftBodyCollisionData@Gu@physx@@QEAA@XZ 00000001801933a0 f i GuCookingTetrahedronMesh.obj
 0001:00192400       ??_ECollisionTetrahedronMeshData@Gu@physx@@UEAAPEAXI@Z 0000000180193400 f i GuCookingTetrahedronMesh.obj
 0001:00192400       ??_GCollisionTetrahedronMeshData@Gu@physx@@UEAAPEAXI@Z 0000000180193400 f i GuCookingTetrahedronMesh.obj
 0001:001924d0       ??_EPxCollisionTetrahedronMeshData@physx@@UEAAPEAXI@Z 00000001801934d0 f i GuCookingTetrahedronMesh.obj
 0001:001924d0       ??_GPxCollisionTetrahedronMeshData@physx@@UEAAPEAXI@Z 00000001801934d0 f i GuCookingTetrahedronMesh.obj
 0001:00192520       ??_EPxSimulationTetrahedronMeshData@physx@@UEAAPEAXI@Z 0000000180193520 f i GuCookingTetrahedronMesh.obj
 0001:00192520       ??_GPxSimulationTetrahedronMeshData@physx@@UEAAPEAXI@Z 0000000180193520 f i GuCookingTetrahedronMesh.obj
 0001:00192570       ??_ESimulationTetrahedronMeshData@Gu@physx@@UEAAPEAXI@Z 0000000180193570 f i GuCookingTetrahedronMesh.obj
 0001:00192570       ??_GSimulationTetrahedronMeshData@Gu@physx@@UEAAPEAXI@Z 0000000180193570 f i GuCookingTetrahedronMesh.obj
 0001:00192640       ?combineGridModelPartitions@@YAXAEBVTetrahedronMeshData@Gu@physx@@AEAVSoftBodySimulationData@23@PEAPEAI@Z 0000000180193640 f   GuCookingTetrahedronMesh.obj
 0001:00192e90       ?combineGridModelPartitionsHexMesh@@YAXAEBVTetrahedronMeshData@Gu@physx@@AEAVSoftBodySimulationData@23@PEAPEAII@Z 0000000180193e90 f   GuCookingTetrahedronMesh.obj
 0001:001938d0       ?computeCollisionData@TetrahedronMeshBuilder@physx@@SA_NAEBVPxTetrahedronMeshDesc@2@AEAVTetrahedronMeshData@Gu@2@AEAVSoftBodyCollisionData@52@AEBUPxCookingParams@2@_N@Z 00000001801948d0 f   GuCookingTetrahedronMesh.obj
 0001:00193b10       ?computeGridModelTetrahedronPartitions@@YAPEAIAEBVTetrahedronMeshData@Gu@physx@@AEAVSoftBodySimulationData@23@@Z 0000000180194b10 f   GuCookingTetrahedronMesh.obj
 0001:00193fb0       ?computeModelsMapping@TetrahedronMeshBuilder@physx@@SAXAEAVTetrahedronMeshData@Gu@2@AEBV342@AEBVSoftBodyCollisionData@42@AEAVCollisionMeshMappingData@42@_NPEBUPxBoundedData@2@@Z 0000000180194fb0 f   GuCookingTetrahedronMesh.obj
 0001:00194bc0       ?computeRestPoseAndPointMass@@YAXPEAU?$TetrahedronT@I@Gu@physx@@IPEBV?$PxVec3T@M@3@PEAMPEAV?$PxMat33T@M@3@@Z 0000000180195bc0 f   GuCookingTetrahedronMesh.obj
 0001:00195110       ?computeSimData@TetrahedronMeshBuilder@physx@@SAXAEBVPxTetrahedronMeshDesc@2@AEAVTetrahedronMeshData@Gu@2@AEAVSoftBodySimulationData@52@AEBUPxCookingParams@2@@Z 0000000180196110 f   GuCookingTetrahedronMesh.obj
 0001:001957e0       ?computeTetData@TetrahedronMeshBuilder@physx@@SAXAEBVPxTetrahedronMeshDesc@2@AEAVTetrahedronMeshData@Gu@2@@Z 00000001801967e0 f   GuCookingTetrahedronMesh.obj
 0001:001958d0       ?computeTetrahedronPartition@@YAIPEBU?$TetrahedronT@I@Gu@physx@@IPEAII@Z 00000001801968d0 f   GuCookingTetrahedronMesh.obj
 0001:001959c0       ?createCollisionModelMapping@TetrahedronMeshBuilder@physx@@SAXAEBVTetrahedronMeshData@Gu@2@AEBVSoftBodyCollisionData@42@AEAVCollisionMeshMappingData@42@@Z 00000001801969c0 f   GuCookingTetrahedronMesh.obj
 0001:00195fa0       ?createGRBMidPhaseAndData@TetrahedronMeshBuilder@physx@@SA_NIAEAVTetrahedronMeshData@Gu@2@AEAVSoftBodyCollisionData@42@AEBUPxCookingParams@2@@Z 0000000180196fa0 f   GuCookingTetrahedronMesh.obj
 0001:00196cf0       ?createMidPhaseStructure@BV32TetrahedronMeshBuilder@physx@@SA_NAEBUPxCookingParams@2@AEAVTetrahedronMeshData@Gu@2@AEAVBV32Tree@52@AEAVSoftBodyCollisionData@52@@Z 0000000180197cf0 f   GuCookingTetrahedronMesh.obj
 0001:00196fc0       ?createMidPhaseStructure@TetrahedronMeshBuilder@physx@@SA_NAEAVTetrahedronMeshData@Gu@2@AEAVSoftBodyCollisionData@42@AEBUPxCookingParams@2@@Z 0000000180197fc0 f   GuCookingTetrahedronMesh.obj
 0001:00197c90       ?getData@CollisionTetrahedronMeshData@Gu@physx@@UEAAPEAVPxSoftBodyCollisionData@3@XZ 0000000180198c90 f i GuCookingTetrahedronMesh.obj
 0001:00197c90       ?getData@CollisionTetrahedronMeshData@Gu@physx@@UEBAPEBVPxSoftBodyCollisionData@3@XZ 0000000180198c90 f i GuCookingTetrahedronMesh.obj
 0001:00197c90       ?getData@SimulationTetrahedronMeshData@Gu@physx@@UEAAPEAVPxSoftBodySimulationData@3@XZ 0000000180198c90 f i GuCookingTetrahedronMesh.obj
 0001:00197cb0       ?importMesh@TetrahedronMeshBuilder@physx@@SA_NAEBVPxTetrahedronMeshDesc@2@AEBUPxCookingParams@2@AEAVTetrahedronMeshData@Gu@2@AEAVSoftBodyCollisionData@62@_N@Z 0000000180198cb0 f   GuCookingTetrahedronMesh.obj
 0001:00197fb0       ?isValid@PxTetrahedronMeshDesc@physx@@QEBA_NXZ 0000000180198fb0 f i GuCookingTetrahedronMesh.obj
 0001:00198030       ?loadFromDesc@TetrahedronMeshBuilder@physx@@SA_NAEBVPxTetrahedronMeshDesc@2@0VPxSoftBodySimulationDataDesc@2@AEAVTetrahedronMeshData@Gu@2@AEAVSoftBodySimulationData@62@2AEAVSoftBodyCollisionData@62@AEAVCollisionMeshMappingData@62@AEBUPxCookingParams@2@_N@Z 0000000180199030 f   GuCookingTetrahedronMesh.obj
 0001:001981a0       ?release@CollisionTetrahedronMeshData@Gu@physx@@UEAAXXZ 00000001801991a0 f i GuCookingTetrahedronMesh.obj
 0001:001981c0       ?reserveInternal@?$PxHashBase@V?$PxPair@$$CBVSortedTriangleInds@@I@physx@@VSortedTriangleInds@@USortedTriangleIndsHash@@UGetKey@?$PxHashMapBase@VSortedTriangleInds@@IUSortedTriangleIndsHash@@VPxAllocator@physx@@@2@VPxAllocator@2@$00@physx@@AEAAXI@Z 00000001801991c0 f i GuCookingTetrahedronMesh.obj
 0001:00198400       ?saveSoftBodyMeshData@TetrahedronMeshBuilder@physx@@SA_NAEAVPxOutputStream@2@_NAEBUPxCookingParams@2@AEBVTetrahedronMeshData@Gu@2@AEBVSoftBodySimulationData@62@3AEBVSoftBodyCollisionData@62@AEBVCollisionMeshMappingData@62@@Z 0000000180199400 f   GuCookingTetrahedronMesh.obj
 0001:00198b10       ?saveTetrahedronMeshData@TetrahedronMeshBuilder@physx@@SA_NAEAVPxOutputStream@2@_NAEBUPxCookingParams@2@AEBVTetrahedronMeshData@Gu@2@@Z 0000000180199b10 f   GuCookingTetrahedronMesh.obj
 0001:00198cc0       ?smoothMassRatiosWhilePreservingTotalMass@@YAXPEAMIPEBIHMM@Z 0000000180199cc0 f   GuCookingTetrahedronMesh.obj
 0001:00199160       ?support@?$LocalConvex@VTetrahedronV@Gu@physx@@@Gu@physx@@UEBA?AT__m128@@AEBT4@@Z 000000018019a160 f i GuCookingTetrahedronMesh.obj
 0001:00199220       ?support@?$LocalConvex@VTetrahedronV@Gu@physx@@@Gu@physx@@UEBA?AT__m128@@AEBT4@AEAH@Z 000000018019a220 f i GuCookingTetrahedronMesh.obj
 0001:001993d0       assembleSoftBodyMesh       000000018019a3d0 f   GuCookingTetrahedronMesh.obj
 0001:00199430       assembleSoftBodyMesh_Sim   000000018019a430 f   GuCookingTetrahedronMesh.obj
 0001:001994e0       computeCollisionData       000000018019a4e0 f   GuCookingTetrahedronMesh.obj
 0001:001996e0       computeModelsMapping       000000018019a6e0 f   GuCookingTetrahedronMesh.obj
 0001:001997e0       computeSimulationData      000000018019a7e0 f   GuCookingTetrahedronMesh.obj
 0001:001999b0       cookSoftBodyMesh           000000018019a9b0 f   GuCookingTetrahedronMesh.obj
 0001:00199fd0       cookTetrahedronMesh        000000018019afd0 f   GuCookingTetrahedronMesh.obj
 0001:0019a0c0       createSoftBodyMesh         000000018019b0c0 f   GuCookingTetrahedronMesh.obj
 0001:0019a760       createTetrahedronMesh      000000018019b760 f   GuCookingTetrahedronMesh.obj
 0001:0019c440       ?computeVolumeIntegrals@physx@@YA_NAEBVPxSimpleTriangleMesh@1@MAEAUPxIntegrals@1@@Z 000000018019d440 f   GuCookingVolumeIntegration.obj
 0001:0019c480       ?computeVolumeIntegralsEberly@physx@@YA_NAEBVPxConvexMeshDesc@1@MAEAUPxIntegrals@1@AEBV?$PxVec3T@M@1@_N@Z 000000018019d480 f   GuCookingVolumeIntegration.obj
 0001:0019cae0       ??0QuickHull@local@@QEAA@AEBUPxCookingParams@physx@@AEBVPxConvexMeshDesc@3@@Z 000000018019dae0 f   GuCookingQuickHullConvexHullLib.obj
 0001:0019cb90       ??0QuickHullConvexHullLib@physx@@QEAA@AEBVPxConvexMeshDesc@1@AEBUPxCookingParams@1@@Z 000000018019db90 f   GuCookingQuickHullConvexHullLib.obj
 0001:0019cc70       ??1?$MemBlock@UQuickHullFace@local@@$00@local@@QEAA@XZ 000000018019dc70 f i GuCookingQuickHullConvexHullLib.obj
 0001:0019cc70       ??1?$MemBlock@UQuickHullHalfEdge@local@@$0A@@local@@QEAA@XZ 000000018019dc70 f i GuCookingQuickHullConvexHullLib.obj
 0001:0019cd30       ??1QuickHull@local@@QEAA@XZ 000000018019dd30 f   GuCookingQuickHullConvexHullLib.obj
 0001:0019ce90       ??_GConvexHull@physx@@QEAAPEAXI@Z 000000018019de90 f i GuCookingQuickHullConvexHullLib.obj
 0001:0019cf80       ??_EConvexHullLib@physx@@UEAAPEAXI@Z 000000018019df80 f i GuCookingQuickHullConvexHullLib.obj
 0001:0019cf80       ??_GConvexHullLib@physx@@UEAAPEAXI@Z 000000018019df80 f i GuCookingQuickHullConvexHullLib.obj
 0001:0019cfc0       ??_EQuickHullConvexHullLib@physx@@UEAAPEAXI@Z 000000018019dfc0 f i GuCookingQuickHullConvexHullLib.obj
 0001:0019cfc0       ??_GQuickHullConvexHullLib@physx@@UEAAPEAXI@Z 000000018019dfc0 f i GuCookingQuickHullConvexHullLib.obj
 0001:0019d0e0       ?addPointToHull@QuickHull@local@@IEAA_NPEBUQuickHullVertex@2@AEAUQuickHullFace@2@AEA_N@Z 000000018019e0e0 f   GuCookingQuickHullConvexHullLib.obj
 0001:0019d3b0       ?addSimplex@QuickHull@local@@IEAA_NPEAUQuickHullVertex@2@_N@Z 000000018019e3b0 f   GuCookingQuickHullConvexHullLib.obj
 0001:0019d8c0       ?allocate@?$PxArray@PEAUQuickHullFace@local@@V?$PxReflectionAllocator@PEAUQuickHullFace@local@@@physx@@@physx@@IEAAPEAPEAUQuickHullFace@local@@I@Z 000000018019e8c0 f i GuCookingQuickHullConvexHullLib.obj
 0001:0019d950       ?allocate@?$PxArray@PEAUQuickHullHalfEdge@local@@V?$PxReflectionAllocator@PEAUQuickHullHalfEdge@local@@@physx@@@physx@@IEAAPEAPEAUQuickHullHalfEdge@local@@I@Z 000000018019e950 f i GuCookingQuickHullConvexHullLib.obj
 0001:0019d9e0       ?allocate@?$PxArray@PEAUQuickHullVertex@local@@V?$PxReflectionAllocator@PEAUQuickHullVertex@local@@@physx@@@physx@@IEAAPEAPEAUQuickHullVertex@local@@I@Z 000000018019e9e0 f i GuCookingQuickHullConvexHullLib.obj
 0001:0019da70       ?allocate@?$PxArray@UExpandPoint@local@@V?$PxReflectionAllocator@UExpandPoint@local@@@physx@@@physx@@IEAAPEAUExpandPoint@local@@I@Z 000000018019ea70 f i GuCookingQuickHullConvexHullLib.obj
 0001:0019db00       ?allocate@?$PxArray@VPxPlane@physx@@V?$PxReflectionAllocator@VPxPlane@physx@@@2@@physx@@IEAAPEAVPxPlane@2@I@Z 000000018019eb00 f i GuCookingQuickHullConvexHullLib.obj
 0001:0019db90       ?buildHull@QuickHull@local@@QEAA?AW4Enum@QuickHullResult@2@XZ 000000018019eb90 f   GuCookingQuickHullConvexHullLib.obj
 0001:0019dde0       ?calculateHorizon@QuickHull@local@@IEAAXAEBV?$PxVec3T@M@physx@@PEAUQuickHullHalfEdge@2@AEAUQuickHullFace@2@AEAV?$PxArray@PEAUQuickHullHalfEdge@local@@V?$PxReflectionAllocator@PEAUQuickHullHalfEdge@local@@@physx@@@4@AEAV?$PxArray@PEAUQuickHullFace@local@@V?$PxReflectionAllocator@PEAUQuickHullFace@local@@@physx@@@4@@Z 000000018019ede0 f   GuCookingQuickHullConvexHullLib.obj
 0001:0019df90       ?canMergeFaces@QuickHull@local@@IEAA_NAEBUQuickHullHalfEdge@2@@Z 000000018019ef90 f   GuCookingQuickHullConvexHullLib.obj
 0001:0019e7c0       ?cleanupForSimplex@QuickHullConvexHullLib@physx@@IEAA_NPEAV?$PxVec3T@M@2@IPEAUQuickHullVertex@local@@1AEAM2@Z 000000018019f7c0 f   GuCookingQuickHullConvexHullLib.obj
 0001:0019f410       ?computeMinMaxVerts@QuickHull@local@@IEAAXXZ 00000001801a0410 f   GuCookingQuickHullConvexHullLib.obj
 0001:0019f7e0       ?connectHalfEdges@QuickHullFace@local@@AEAAPEAU12@PEAUQuickHullHalfEdge@2@0@Z 00000001801a07e0 f   GuCookingQuickHullConvexHullLib.obj
 0001:0019fb50       ?copy@?$PxArray@UExpandPoint@local@@V?$PxReflectionAllocator@UExpandPoint@local@@@physx@@@physx@@KAXPEAUExpandPoint@local@@0PEBU34@@Z 00000001801a0b50 f i GuCookingQuickHullConvexHullLib.obj
 0001:0019fc00       ?copy@?$PxArray@VPxPlane@physx@@V?$PxReflectionAllocator@VPxPlane@physx@@@2@@physx@@KAXPEAVPxPlane@2@0PEBV32@@Z 00000001801a0c00 f i GuCookingQuickHullConvexHullLib.obj
 0001:0019fd00       ?createConvexHull@QuickHullConvexHullLib@physx@@UEAA?AW4Enum@PxConvexMeshCookingResult@2@XZ 00000001801a0d00 f   GuCookingQuickHullConvexHullLib.obj
 0001:001a0110       ?createEdgeList@QuickHullConvexHullLib@physx@@UEAA_NIPEBEPEAPEAEPEAPEAG2@Z 00000001801a1110 f   GuCookingQuickHullConvexHullLib.obj
 0001:001a0330       ?createTriangle@QuickHull@local@@IEAAPEAUQuickHullFace@2@AEBUQuickHullVertex@2@00@Z 00000001801a1330 f   GuCookingQuickHullConvexHullLib.obj
 0001:001a0700       ?doAdjacentMerge@QuickHull@local@@IEAA_NAEAUQuickHullFace@2@_NAEA_N@Z 00000001801a1700 f   GuCookingQuickHullConvexHullLib.obj
 0001:001a0a50       ?expandHull@QuickHullConvexHullLib@physx@@IEAA?AW4Enum@PxConvexMeshCookingResult@2@XZ 00000001801a1a50 f   GuCookingQuickHullConvexHullLib.obj
 0001:001a1390       ?expandHullOBB@QuickHullConvexHullLib@physx@@IEAA?AW4Enum@PxConvexMeshCookingResult@2@XZ 00000001801a2390 f   GuCookingQuickHullConvexHullLib.obj
 0001:001a17d0       ?fillConvexMeshDesc@QuickHullConvexHullLib@physx@@UEAAXAEAVPxConvexMeshDesc@2@@Z 00000001801a27d0 f   GuCookingQuickHullConvexHullLib.obj
 0001:001a1820       ?fillConvexMeshDescFromCroppedHull@QuickHullConvexHullLib@physx@@IEAAXAEAVPxConvexMeshDesc@2@@Z 00000001801a2820 f   GuCookingQuickHullConvexHullLib.obj
 0001:001a1a10       ?fillConvexMeshDescFromQuickHull@QuickHullConvexHullLib@physx@@IEAAXAEAVPxConvexMeshDesc@2@@Z 00000001801a2a10 f   GuCookingQuickHullConvexHullLib.obj
 0001:001a1d90       ?findSimplex@QuickHull@local@@IEAA_NXZ 00000001801a2d90 f   GuCookingQuickHullConvexHullLib.obj
 0001:001a2a30       ?getFreeItem@?$MemBlock@UQuickHullFace@local@@$00@local@@QEAAPEAUQuickHullFace@2@XZ 00000001801a3a30 f i GuCookingQuickHullConvexHullLib.obj
 0001:001a2b60       ?getFreeItem@?$MemBlock@UQuickHullHalfEdge@local@@$0A@@local@@QEAAPEAUQuickHullHalfEdge@2@XZ 00000001801a3b60 f i GuCookingQuickHullConvexHullLib.obj
 0001:001a2c30       ?growAndPushBack@?$PxArray@PEAUQuickHullFace@local@@V?$PxReflectionAllocator@PEAUQuickHullFace@local@@@physx@@@physx@@IEAAAEAPEAUQuickHullFace@local@@AEBQEAU34@@Z 00000001801a3c30 f i GuCookingQuickHullConvexHullLib.obj
 0001:001a2cf0       ?growAndPushBack@?$PxArray@PEAUQuickHullHalfEdge@local@@V?$PxReflectionAllocator@PEAUQuickHullHalfEdge@local@@@physx@@@physx@@IEAAAEAPEAUQuickHullHalfEdge@local@@AEBQEAU34@@Z 00000001801a3cf0 f i GuCookingQuickHullConvexHullLib.obj
 0001:001a2db0       ?growAndPushBack@?$PxArray@PEAUQuickHullVertex@local@@V?$PxReflectionAllocator@PEAUQuickHullVertex@local@@@physx@@@physx@@IEAAAEAPEAUQuickHullVertex@local@@AEBQEAU34@@Z 00000001801a3db0 f i GuCookingQuickHullConvexHullLib.obj
 0001:001a2e70       ?growAndPushBack@?$PxArray@UExpandPoint@local@@V?$PxReflectionAllocator@UExpandPoint@local@@@physx@@@physx@@IEAAAEAUExpandPoint@local@@AEBU34@@Z 00000001801a3e70 f i GuCookingQuickHullConvexHullLib.obj
 0001:001a2f70       ?growAndPushBack@?$PxArray@VPxPlane@physx@@V?$PxReflectionAllocator@VPxPlane@physx@@@2@@physx@@IEAAAEAVPxPlane@2@AEBV32@@Z 00000001801a3f70 f i GuCookingQuickHullConvexHullLib.obj
 0001:001a3030       ?init@?$MemBlock@UQuickHullFace@local@@$00@local@@QEAAXI@Z 00000001801a4030 f i GuCookingQuickHullConvexHullLib.obj
 0001:001a3130       ?init@?$MemBlock@UQuickHullHalfEdge@local@@$0A@@local@@QEAAXI@Z 00000001801a4130 f i GuCookingQuickHullConvexHullLib.obj
 0001:001a31d0       ?mergeAdjacentFace@QuickHullFace@local@@QEAA_NPEAUQuickHullHalfEdge@2@AEAV?$PxArray@PEAUQuickHullFace@local@@V?$PxReflectionAllocator@PEAUQuickHullFace@local@@@physx@@@physx@@@Z 00000001801a41d0 f   GuCookingQuickHullConvexHullLib.obj
 0001:001a3630       ?nextPointToAdd@QuickHull@local@@IEAAPEAUQuickHullVertex@2@AEAPEAUQuickHullFace@2@@Z 00000001801a4630 f   GuCookingQuickHullConvexHullLib.obj
 0001:001a37b0       ?parseInputVertices@QuickHull@local@@QEAAXPEBV?$PxVec3T@M@physx@@I@Z 00000001801a47b0 f   GuCookingQuickHullConvexHullLib.obj
 0001:001a3930       ?postMergeHull@QuickHull@local@@IEAAXXZ 00000001801a4930 f   GuCookingQuickHullConvexHullLib.obj
 0001:001a3b90       ?preallocate@QuickHull@local@@QEAAXI@Z 00000001801a4b90 f   GuCookingQuickHullConvexHullLib.obj
 0001:001a3cd0       ?recreate@?$PxArray@PEAUQuickHullFace@local@@V?$PxReflectionAllocator@PEAUQuickHullFace@local@@@physx@@@physx@@IEAAXI@Z 00000001801a4cd0 f i GuCookingQuickHullConvexHullLib.obj
 0001:001a3d70       ?recreate@?$PxArray@PEAUQuickHullHalfEdge@local@@V?$PxReflectionAllocator@PEAUQuickHullHalfEdge@local@@@physx@@@physx@@IEAAXI@Z 00000001801a4d70 f i GuCookingQuickHullConvexHullLib.obj
 0001:001a3e10       ?recreate@?$PxArray@PEAUQuickHullVertex@local@@V?$PxReflectionAllocator@PEAUQuickHullVertex@local@@@physx@@@physx@@IEAAXI@Z 00000001801a4e10 f i GuCookingQuickHullConvexHullLib.obj
 0001:001a3eb0       ?recreate@?$PxArray@UExpandPoint@local@@V?$PxReflectionAllocator@UExpandPoint@local@@@physx@@@physx@@IEAAXI@Z 00000001801a4eb0 f i GuCookingQuickHullConvexHullLib.obj
 0001:001a3f40       ?recreate@?$PxArray@VPxPlane@physx@@V?$PxReflectionAllocator@VPxPlane@physx@@@2@@physx@@IEAAXI@Z 00000001801a4f40 f i GuCookingQuickHullConvexHullLib.obj
 0001:001a3fd0       ?resolveUnclaimedPoints@QuickHull@local@@IEAAXAEBV?$PxArray@PEAUQuickHullFace@local@@V?$PxReflectionAllocator@PEAUQuickHullFace@local@@@physx@@@physx@@@Z 00000001801a4fd0 f   GuCookingQuickHullConvexHullLib.obj
 0001:001a4250       ??$copy@V?$PxReflectionAllocator@VPair@@@physx@@@?$PxArray@VPair@@V?$PxReflectionAllocator@VPair@@@physx@@@physx@@IEAAXAEBV01@@Z 00000001801a5250 f i GuCookingConvexPolygonsBuilder.obj
 0001:001a42d0       ??0ConvexPolygonsBuilder@physx@@QEAA@PEAUConvexHullData@Gu@1@_N@Z 00000001801a52d0 f   GuCookingConvexPolygonsBuilder.obj
 0001:001a42f0       ??1ConvexPolygonsBuilder@physx@@QEAA@XZ 00000001801a52f0 f   GuCookingConvexPolygonsBuilder.obj
 0001:001a4b40       ?allocate@?$PxArray@VPair@@V?$PxReflectionAllocator@VPair@@@physx@@@physx@@IEAAPEAVPair@@I@Z 00000001801a5b40 f i GuCookingConvexPolygonsBuilder.obj
 0001:001a5620       ?computeHullPolygons@ConvexPolygonsBuilder@physx@@QEAA_NAEBIPEBV?$PxVec3T@M@2@0PEBI@Z 00000001801a6620 f   GuCookingConvexPolygonsBuilder.obj
 0001:001a68e0       ?createPolygonData@ConvexPolygonsBuilder@physx@@AEAA_NXZ 00000001801a78e0 f   GuCookingConvexPolygonsBuilder.obj
 0001:001a7340       ?createTrianglesFromPolygons@ConvexPolygonsBuilder@physx@@AEAA_NXZ 00000001801a8340 f   GuCookingConvexPolygonsBuilder.obj
 0001:001a89c0       ?growAndPushBack@?$PxArray@VPair@@V?$PxReflectionAllocator@VPair@@@physx@@@physx@@IEAAAEAVPair@@AEBV3@@Z 00000001801a99c0 f i GuCookingConvexPolygonsBuilder.obj
 0001:001a8b50       ??0ConvexMeshBuilder@physx@@QEAA@_N@Z 00000001801a9b50 f   GuCookingConvexMeshBuilder.obj
 0001:001a8bc0       ??1ConvexMeshBuilder@physx@@QEAA@XZ 00000001801a9bc0 f   GuCookingConvexMeshBuilder.obj
 0001:001a9050       ?build@ConvexMeshBuilder@physx@@QEAA_NAEBVPxConvexMeshDesc@2@I_NPEAVConvexHullLib@2@@Z 00000001801aa050 f   GuCookingConvexMeshBuilder.obj
 0001:001a93e0       ?checkExtentRadiusRatio@ConvexMeshBuilder@physx@@QEAA_NXZ 00000001801aa3e0 f   GuCookingConvexMeshBuilder.obj
 0001:001a9410       ?computeHullPolygons@ConvexMeshBuilder@physx@@QEAA_NAEBIPEBV?$PxVec3T@M@2@0PEBIAEAVPxAllocatorCallback@2@AEAIAEAPEAV32@4AEAPEAI4AEAPEAUPxHullPolygon@2@@Z 00000001801aa410 f   GuCookingConvexMeshBuilder.obj
 0001:001a9620       ?computeMassInfo@ConvexMeshBuilder@physx@@QEAAX_N@Z 00000001801aa620 f   GuCookingConvexMeshBuilder.obj
 0001:001a99b0       ?computeSDF@ConvexMeshBuilder@physx@@QEAAXAEBVPxConvexMeshDesc@2@@Z 00000001801aa9b0 f   GuCookingConvexMeshBuilder.obj
 0001:001a9dc0       ?copy@ConvexMeshBuilder@physx@@QEAA_NAEAUConvexHullInitData@Gu@2@@Z 00000001801aadc0 f   GuCookingConvexMeshBuilder.obj
 0001:001a9f20       ?loadConvexHull@ConvexMeshBuilder@physx@@QEAA_NAEBVPxConvexMeshDesc@2@PEAVConvexHullLib@2@@Z 00000001801aaf20 f   GuCookingConvexMeshBuilder.obj
 0001:001aa170       ?save@ConvexMeshBuilder@physx@@QEBA_NAEAVPxOutputStream@2@_N@Z 00000001801ab170 f   GuCookingConvexMeshBuilder.obj
 0001:001aa590       ??0ConvexHull@physx@@QEAA@AEBV?$PxVec3T@M@1@AEBV?$PxTransformT@M@1@AEBV?$PxArray@VPxPlane@physx@@V?$PxReflectionAllocator@VPxPlane@physx@@@2@@1@@Z 00000001801ab590 f   GuCookingConvexHullUtils.obj
 0001:001ab6b0       ?allocate@?$PxArray@VHalfEdge@ConvexHull@physx@@V?$PxReflectionAllocator@VHalfEdge@ConvexHull@physx@@@3@@physx@@IEAAPEAVHalfEdge@ConvexHull@2@I@Z 00000001801ac6b0 f i GuCookingConvexHullUtils.obj
 0001:001ab740       ?assertIntact@ConvexHull@physx@@QEBA_NM@Z 00000001801ac740 f   GuCookingConvexHullUtils.obj
 0001:001aba60       ?computeOBBFromConvex@physx@@YA_NAEBVPxConvexMeshDesc@1@AEAV?$PxVec3T@M@1@AEAV?$PxTransformT@M@1@@Z 00000001801aca60 f   GuCookingConvexHullUtils.obj
 0001:001ac0c0       ?computeOBBSIMD@local@@YAXIPEBT__m128@@AEAT2@AEBT2@1@Z 00000001801ad0c0 f   GuCookingConvexHullUtils.obj
 0001:001ac470       ?convexHullCrop@physx@@YAPEAVConvexHull@1@AEBV21@AEBVPxPlane@1@M@Z 00000001801ad470 f   GuCookingConvexHullUtils.obj
 0001:001ad270       ?findCandidatePlane@ConvexHull@physx@@QEBAHMM@Z 00000001801ae270 f   GuCookingConvexHullUtils.obj
 0001:001ad6c0       ?growAndPushBack@?$PxArray@VHalfEdge@ConvexHull@physx@@V?$PxReflectionAllocator@VHalfEdge@ConvexHull@physx@@@3@@physx@@IEAAAEAVHalfEdge@ConvexHull@2@AEBV342@@Z 00000001801ae6c0 f i GuCookingConvexHullUtils.obj
 0001:001ad780       ?maxNumVertsPerFace@ConvexHull@physx@@QEBAIXZ 00000001801ae780 f   GuCookingConvexHullUtils.obj
 0001:001ad7f0       ?recreate@?$PxArray@VHalfEdge@ConvexHull@physx@@V?$PxReflectionAllocator@VHalfEdge@ConvexHull@physx@@@3@@physx@@IEAAXI@Z 00000001801ae7f0 f i GuCookingConvexHullUtils.obj
 0001:001ad890       ?resize@?$PxArray@VHalfEdge@ConvexHull@physx@@V?$PxReflectionAllocator@VHalfEdge@ConvexHull@physx@@@3@@physx@@QEAAXIAEBVHalfEdge@ConvexHull@2@@Z 00000001801ae890 f i GuCookingConvexHullUtils.obj
 0001:001ad950       ?resize@?$PxArray@VPxPlane@physx@@V?$PxReflectionAllocator@VPxPlane@physx@@@2@@physx@@QEAAXIAEBVPxPlane@2@@Z 00000001801ae950 f i GuCookingConvexHullUtils.obj
 0001:001ada70       ??1ConvexHullLib@physx@@UEAA@XZ 00000001801aea70 f   GuCookingConvexHullLib.obj
 0001:001ae060       ?cleanupVertices@ConvexHullLib@physx@@IEAA_NIPEBV?$PxVec3T@M@2@IAEAIPEAV32@@Z 00000001801af060 f   GuCookingConvexHullLib.obj
 0001:001ae1a0       ?shiftAndcleanupVertices@ConvexHullLib@physx@@IEAA_NIPEBV?$PxVec3T@M@2@IAEAIPEAV32@@Z 00000001801af1a0 f   GuCookingConvexHullLib.obj
 0001:001ae780       ?shiftConvexMeshDesc@ConvexHullLib@physx@@IEAAXAEAVPxConvexMeshDesc@2@@Z 00000001801af780 f   GuCookingConvexHullLib.obj
 0001:001ae840       ?swapLargestFace@ConvexHullLib@physx@@IEAAXAEAVPxConvexMeshDesc@2@@Z 00000001801af840 f   GuCookingConvexHullLib.obj
 0001:001aea70       ??0ConvexHullBuilder@physx@@QEAA@PEAUConvexHullData@Gu@1@_N@Z 00000001801afa70 f   GuCookingConvexHullBuilder.obj
 0001:001aeaa0       ??1ConvexHullBuilder@physx@@QEAA@XZ 00000001801afaa0 f   GuCookingConvexHullBuilder.obj
 0001:001aebb0       ?calculateVertexMapTable@ConvexHullBuilder@physx@@QEAA_NI_N@Z 00000001801afbb0 f   GuCookingConvexHullBuilder.obj
 0001:001aed70       ?checkHullPolygons@ConvexHullBuilder@physx@@QEBA_NXZ 00000001801afd70 f   GuCookingConvexHullBuilder.obj
 0001:001af330       ?copy@ConvexHullBuilder@physx@@QEAA_NAEAUConvexHullData@Gu@2@AEAI@Z 00000001801b0330 f   GuCookingConvexHullBuilder.obj
 0001:001af5a0       ?createEdgeList@ConvexHullBuilder@physx@@QEAA_N_NI@Z 00000001801b05a0 f   GuCookingConvexHullBuilder.obj
 0001:001afce0       ?init@ConvexHullBuilder@physx@@QEAA_NIPEBV?$PxVec3T@M@2@PEBIIIPEBUPxHullPolygon@2@_NPEAVConvexHullLib@2@@Z 00000001801b0ce0 f   GuCookingConvexHullBuilder.obj
 0001:001b0620       ?save@ConvexHullBuilder@physx@@QEBA_NAEAVPxOutputStream@2@_N@Z 00000001801b1620 f   GuCookingConvexHullBuilder.obj
 0001:001b0940       ??0BigConvexDataBuilder@physx@@QEAA@PEBUConvexHullData@Gu@1@PEAVBigConvexData@1@PEBV?$PxVec3T@M@1@@Z 00000001801b1940 f   GuCookingBigConvexDataBuilder.obj
 0001:001b0950       ?computeValencies@BigConvexDataBuilder@physx@@QEAA_NAEBVConvexHullBuilder@2@@Z 00000001801b1950 f   GuCookingBigConvexDataBuilder.obj
 0001:001b0d40       ?precompute@BigConvexDataBuilder@physx@@QEAA_NI@Z 00000001801b1d40 f   GuCookingBigConvexDataBuilder.obj
 0001:001b1930       ?save@BigConvexDataBuilder@physx@@QEBA_NAEAVPxOutputStream@2@_N@Z 00000001801b2930 f   GuCookingBigConvexDataBuilder.obj
 0001:001b1b1e       __imp_load_PxGetFoundation 00000001801b2b1e f   PhysXFoundation_64:PhysXFoundation_64.dll
 0001:001b1b2a       __tailMerge_physxfoundation_64_dll 00000001801b2b2a     PhysXFoundation_64:PhysXFoundation_64.dll
 0001:001b1ba3       __imp_load_PxGetBroadcastAllocator 00000001801b2ba3 f   PhysXFoundation_64:PhysXFoundation_64.dll
 0001:001b1baf       __imp_load_?PxAtomicIncrement@physx@@YAHPECH@Z 00000001801b2baf f   PhysXFoundation_64:PhysXFoundation_64.dll
 0001:001b1bbb       __imp_load_??0PxMutexImpl@physx@@QEAA@XZ 00000001801b2bbb f   PhysXFoundation_64:PhysXFoundation_64.dll
 0001:001b1bc7       __imp_load_??1PxMutexImpl@physx@@QEAA@XZ 00000001801b2bc7 f   PhysXFoundation_64:PhysXFoundation_64.dll
 0001:001b1bd3       __imp_load_?lock@PxMutexImpl@physx@@QEAAXXZ 00000001801b2bd3 f   PhysXFoundation_64:PhysXFoundation_64.dll
 0001:001b1bdf       __imp_load_?unlock@PxMutexImpl@physx@@QEAAXXZ 00000001801b2bdf f   PhysXFoundation_64:PhysXFoundation_64.dll
 0001:001b1beb       __imp_load_?getSize@PxMutexImpl@physx@@SAIXZ 00000001801b2beb f   PhysXFoundation_64:PhysXFoundation_64.dll
 0001:001b1bf7       __imp_load_?PxAtomicDecrement@physx@@YAHPECH@Z 00000001801b2bf7 f   PhysXFoundation_64:PhysXFoundation_64.dll
 0001:001b1c03       __imp_load_?PxTransformFromSegment@physx@@YA?AV?$PxTransformT@M@1@AEBV?$PxVec3T@M@1@0PEAM@Z 00000001801b2c03 f   PhysXFoundation_64:PhysXFoundation_64.dll
 0001:001b1c0f       __imp_load_?PxAtomicAdd@physx@@YAHPECHH@Z 00000001801b2c0f f   PhysXFoundation_64:PhysXFoundation_64.dll
 0001:001b1c1b       __imp_load_?getDefaultStackSize@PxThreadImpl@physx@@SAIXZ 00000001801b2c1b f   PhysXFoundation_64:PhysXFoundation_64.dll
 0001:001b1c27       __imp_load_??0PxThreadImpl@physx@@QEAA@P6APEAXPEAX@Z0PEBD@Z 00000001801b2c27 f   PhysXFoundation_64:PhysXFoundation_64.dll
 0001:001b1c33       __imp_load_??1PxThreadImpl@physx@@QEAA@XZ 00000001801b2c33 f   PhysXFoundation_64:PhysXFoundation_64.dll
 0001:001b1c3f       __imp_load_?start@PxThreadImpl@physx@@QEAAXIPEAVPxRunnable@2@@Z 00000001801b2c3f f   PhysXFoundation_64:PhysXFoundation_64.dll
 0001:001b1c4b       __imp_load_?waitForQuit@PxThreadImpl@physx@@QEAA_NXZ 00000001801b2c4b f   PhysXFoundation_64:PhysXFoundation_64.dll
 0001:001b1c57       __imp_load_?getSize@PxThreadImpl@physx@@SAIXZ 00000001801b2c57 f   PhysXFoundation_64:PhysXFoundation_64.dll
 0001:001b1c63       __imp_load_?allocate@PxTempAllocator@physx@@QEAAPEAX_KPEBDH@Z 00000001801b2c63 f   PhysXFoundation_64:PhysXFoundation_64.dll
 0001:001b1c6f       __imp_load_?deallocate@PxTempAllocator@physx@@QEAAXPEAX@Z 00000001801b2c6f f   PhysXFoundation_64:PhysXFoundation_64.dll
 0001:001b1c7b       __imp_load_?PxOptimizeBoundingBox@physx@@YA?AV?$PxVec3T@M@1@AEAV?$PxMat33T@M@1@@Z 00000001801b2c7b f   PhysXFoundation_64:PhysXFoundation_64.dll
 0001:001b1c87       __imp_load_?Pxstrcmp@physx@@YAHPEBD0@Z 00000001801b2c87 f   PhysXFoundation_64:PhysXFoundation_64.dll
 0001:001b1c93       __imp_load_??0PxFPUGuard@physx@@QEAA@XZ 00000001801b2c93 f   PhysXFoundation_64:PhysXFoundation_64.dll
 0001:001b1c9f       __imp_load_??1PxFPUGuard@physx@@QEAA@XZ 00000001801b2c9f f   PhysXFoundation_64:PhysXFoundation_64.dll
 0001:001b1cab       __imp_load_?PxDiagonalize@physx@@YA?AV?$PxVec3T@M@1@AEBV?$PxMat33T@M@1@AEAV?$PxQuatT@M@1@@Z 00000001801b2cab f   PhysXFoundation_64:PhysXFoundation_64.dll
 0001:001b1cb8       ?DloadAcquireSectionWriteAccess@@YAXXZ 00000001801b2cb8 f i Delayimp:delayhlp.obj
 0001:001b1d64       ?DloadGetSRWLockFunctionPointers@@YAEXZ 00000001801b2d64 f i Delayimp:delayhlp.obj
 0001:001b1e04       ?DloadMakePermanentImageCommit@@YAXPEAX_K@Z 00000001801b2e04 f i Delayimp:delayhlp.obj
 0001:001b1e9c       ?DloadObtainSection@@YAPEAXPEAK0@Z 00000001801b2e9c f i Delayimp:delayhlp.obj
 0001:001b1f38       ?DloadProtectSection@@YAXKPEAK@Z 00000001801b2f38 f i Delayimp:delayhlp.obj
 0001:001b1fc8       ?DloadReleaseSectionWriteAccess@@YAXXZ 00000001801b2fc8 f i Delayimp:delayhlp.obj
 0001:001b205c       __delayLoadHelper2         00000001801b305c f   Delayimp:delayhlp.obj
 0001:001b2334       ??3@YAXPEAX_K@Z            00000001801b3334 f   LIBCMT:delete_scalar_size.obj
 0001:001b2334       ??_V@YAXPEAX@Z             00000001801b3334 f   LIBCMT:delete_array.obj
 0001:001b233c       ??_Etype_info@@UEAAPEAXI@Z 00000001801b333c f i LIBCMT:std_type_info_static.obj
 0001:001b233c       ??_Gtype_info@@UEAAPEAXI@Z 00000001801b333c f i LIBCMT:std_type_info_static.obj
 0001:001b2368       ?__scrt_initialize_type_info@@YAXXZ 00000001801b3368 f   LIBCMT:tncleanup.obj
 0001:001b2378       ?__scrt_uninitialize_type_info@@YAXXZ 00000001801b3378 f   LIBCMT:tncleanup.obj
 0001:001b23a0       __chkstk                   00000001801b33a0 f   LIBCMT:chkstk.obj
 0001:001b23a0       _alloca_probe              00000001801b33a0 f   LIBCMT:chkstk.obj
 0001:001b23f0       __vdecl_sinf4              00000001801b33f0 f   LIBCMT:svml_ssinf4_dispatch.obj
 0001:001b2410       __libm_sse2_sincosf_       00000001801b3410 f   LIBCMT:svml_ssinf4_dispatch.obj
 0001:001b2453       __libm_sse2_sincosf4_      00000001801b3453 f   LIBCMT:svml_ssinf4_dispatch.obj
 0001:001b2460       ??3@YAXPEAX@Z              00000001801b3460 f   LIBCMT:delete_scalar.obj
 0001:001b2468       __scrt_acquire_startup_lock 00000001801b3468 f   LIBCMT:utility.obj
 0001:001b24a4       __scrt_dllmain_after_initialize_c 00000001801b34a4 f   LIBCMT:utility.obj
 0001:001b24d8       __scrt_dllmain_before_initialize_c 00000001801b34d8 f   LIBCMT:utility.obj
 0001:001b24f0       __scrt_dllmain_crt_thread_attach 00000001801b34f0 f   LIBCMT:utility.obj
 0001:001b2518       __scrt_dllmain_crt_thread_detach 00000001801b3518 f   LIBCMT:utility.obj
 0001:001b2530       __scrt_dllmain_exception_filter 00000001801b3530 f   LIBCMT:utility.obj
 0001:001b2590       __scrt_dllmain_uninitialize_c 00000001801b3590 f   LIBCMT:utility.obj
 0001:001b25c0       __scrt_dllmain_uninitialize_critical 00000001801b35c0 f   LIBCMT:utility.obj
 0001:001b25d4       __scrt_initialize_crt      00000001801b35d4 f   LIBCMT:utility.obj
 0001:001b2620       __scrt_initialize_onexit_tables 00000001801b3620 f   LIBCMT:utility.obj
 0001:001b26ac       __scrt_is_nonwritable_in_current_image 00000001801b36ac f   LIBCMT:utility.obj
 0001:001b2744       __scrt_release_startup_lock 00000001801b3744 f   LIBCMT:utility.obj
 0001:001b2768       __scrt_uninitialize_crt    00000001801b3768 f   LIBCMT:utility.obj
 0001:001b2794       _onexit                    00000001801b3794 f   LIBCMT:utility.obj
 0001:001b27d0       atexit                     00000001801b37d0 f   LIBCMT:utility.obj
 0001:001b27e8       __isa_available_init       00000001801b37e8 f   LIBCMT:cpu_disp.obj
 0001:001b2cb4       _DllMainCRTStartup         00000001801b3cb4 f   LIBCMT:dll_dllmain.obj
 0001:001b2d00       __sse2_sinf4@@16           00000001801b3d00 f   LIBCMT:svml_ssinf4_sse2.obj
 0001:001b3640       __sse4_sinf4@@16           00000001801b4640 f   LIBCMT:svml_ssinf4_sse4.obj
 0001:001b3db4       __scrt_is_ucrt_dll_in_use  00000001801b4db4 f   LIBCMT:ucrt_detection.obj
 0001:001b3dc0       __crt_debugger_hook        00000001801b4dc0 f   LIBCMT:utility_desktop.obj
 0001:001b3dc8       __scrt_fastfail            00000001801b4dc8 f   LIBCMT:utility_desktop.obj
 0001:001b3f14       __security_init_cookie     00000001801b4f14 f   LIBCMT:gs_support.obj
 0001:001b3fc0       __local_stdio_scanf_options 00000001801b4fc0 f i LIBCMT:default_local_stdio_options.obj
 0001:001b3fc8       __scrt_initialize_default_local_stdio_options 00000001801b4fc8 f   LIBCMT:default_local_stdio_options.obj
 0001:001b3fe4       __scrt_get_dyn_tls_init_callback 00000001801b4fe4 f   LIBCMT:dyn_tls_init.obj
 0001:001b3fec       _RTC_Initialize            00000001801b4fec f   LIBCMT:initsect.obj
 0001:001b4028       _RTC_Terminate             00000001801b5028 f   LIBCMT:initsect.obj
 0001:001b4070       __common_ssin_cout_rare    00000001801b5070 f   LIBCMT:svml_s_sin_cout.obj
 0001:001b40f0       memcpy_repmovs             00000001801b50f0 f   libvcruntime:memcpy.obj
 0001:001b4110       memcpy                     00000001801b5110 f   libvcruntime:memcpy.obj
 0001:001b4110       memmove                    00000001801b5110 f   libvcruntime:memcpy.obj
 0001:001b4788       _get_purecall_handler      00000001801b5788 f   libvcruntime:purevirt.obj
 0001:001b4794       _purecall                  00000001801b5794 f   libvcruntime:purevirt.obj
 0001:001b47b8       __std_type_info_compare    00000001801b57b8 f   libvcruntime:std_type_info.obj
 0001:001b47e0       __std_type_info_destroy_list 00000001801b57e0 f   libvcruntime:std_type_info.obj
 0001:001b480c       __std_type_info_name       00000001801b580c f   libvcruntime:std_type_info.obj
 0001:001b4940       memset_repstos             00000001801b5940 f   libvcruntime:memset.obj
 0001:001b4960       memset                     00000001801b5960 f   libvcruntime:memset.obj
 0001:001b4ce8       strstr                     00000001801b5ce8 f   libvcruntime:strstr.obj
 0001:001b4ee0       __vcrt_initialize          00000001801b5ee0 f   libvcruntime:initialization.obj
 0001:001b4f08       __vcrt_thread_attach       00000001801b5f08 f   libvcruntime:initialization.obj
 0001:001b4f1c       __vcrt_thread_detach       00000001801b5f1c f   libvcruntime:initialization.obj
 0001:001b4f30       __vcrt_uninitialize        00000001801b5f30 f   libvcruntime:initialization.obj
 0001:001b4f4c       __vcrt_uninitialize_critical 00000001801b5f4c f   libvcruntime:initialization.obj
 0001:001b4f5c       __C_specific_handler       00000001801b5f5c f   libvcruntime:riscchandler.obj
 0001:001b5154       __DestructExceptionObject  00000001801b6154 f   libvcruntime:ehhelpers.obj
 0001:001b51c4       ?_CallMemberFunction0@@YAXQEAX0@Z 00000001801b61c4 f i libvcruntime:ehhelpers.obj
 0001:001b51c8       _IsExceptionObjectToBeDestroyed 00000001801b61c8 f   libvcruntime:ehhelpers.obj
 0001:001b51f8       __AdjustPointer            00000001801b61f8 f   libvcruntime:ehhelpers.obj
 0001:001b521c       __FrameUnwindFilter        00000001801b621c f   libvcruntime:ehhelpers.obj
 0001:001b5284       __std_terminate            00000001801b6284 f   libvcruntime:ehhelpers.obj
 0001:001b5290       ??$?0$00@DName@@QEAA@PEBDU?$StringLifeSelector@$00@@@Z 00000001801b6290 f i libvcruntime:undname.obj
 0001:001b52d0       ??$?0$01@DName@@QEAA@PEBDU?$StringLifeSelector@$01@@@Z 00000001801b62d0 f i libvcruntime:undname.obj
 0001:001b52d0       ??$?0$0A@@DName@@QEAA@PEBDU?$StringLifeSelector@$0A@@@@Z 00000001801b62d0 f i libvcruntime:undname.obj
 0001:001b5310       ??$?0$01@pcharNode@@QEAA@PEBDHU?$StringLifeSelector@$01@@@Z 00000001801b6310 f i libvcruntime:undname.obj
 0001:001b5310       ??$?0$0A@@pcharNode@@QEAA@PEBDHU?$StringLifeSelector@$0A@@@@Z 00000001801b6310 f i libvcruntime:undname.obj
 0001:001b5384       ??$append@VDNameNode@@@DName@@AEAAXPEBVDNameNode@@@Z 00000001801b6384 f i libvcruntime:undname.obj
 0001:001b5384       ??$append@VDNameStatusNode@@@DName@@AEAAXPEBVDNameStatusNode@@@Z 00000001801b6384 f i libvcruntime:undname.obj
 0001:001b5384       ??$append@VcharNode@@@DName@@AEAAXPEBVcharNode@@@Z 00000001801b6384 f i libvcruntime:undname.obj
 0001:001b5384       ??$append@VpcharNode@@@DName@@AEAAXPEBVpcharNode@@@Z 00000001801b6384 f i libvcruntime:undname.obj
 0001:001b53e8       ??$doPchar@$00@DName@@AEAAXPEBDH@Z 00000001801b63e8 f i libvcruntime:undname.obj
 0001:001b548c       ??$doPchar@$01@DName@@AEAAXPEBDH@Z 00000001801b648c f i libvcruntime:undname.obj
 0001:001b548c       ??$doPchar@$0A@@DName@@AEAAXPEBDH@Z 00000001801b648c f i libvcruntime:undname.obj
 0001:001b5524       ??0DName@@QEAA@AEAPEBDD@Z  00000001801b6524 f   libvcruntime:undname.obj
 0001:001b55d4       ??0DName@@QEAA@AEBUStringLiteral@@@Z 00000001801b65d4 f   libvcruntime:undname.obj
 0001:001b5600       ??0DName@@QEAA@PEAV0@@Z    00000001801b6600 f   libvcruntime:undname.obj
 0001:001b5684       ??0DName@@QEAA@_J@Z        00000001801b6684 f   libvcruntime:undname.obj
 0001:001b572c       ??0DName@@QEAA@_K@Z        00000001801b672c f   libvcruntime:undname.obj
 0001:001b57bc       ??2@YAPEAX_KAEAV_HeapManager@@H@Z 00000001801b67bc f   libvcruntime:undname.obj
 0001:001b57e8       ??4DName@@QEAAAEAV0@W4DNameStatus@@@Z 00000001801b67e8 f   libvcruntime:undname.obj
 0001:001b5818       ??AReplicator@@QEBA?AVDName@@H@Z 00000001801b6818 f   libvcruntime:undname.obj
 0001:001b5858       ??HDName@@QEBA?AV0@AEBUStringLiteral@@@Z 00000001801b6858 f   libvcruntime:undname.obj
 0001:001b5884       ??HDName@@QEBA?AV0@AEBV0@@Z 00000001801b6884 f   libvcruntime:undname.obj
 0001:001b58b0       ??HDName@@QEBA?AV0@D@Z     00000001801b68b0 f   libvcruntime:undname.obj
 0001:001b58dc       ??HDName@@QEBA?AV0@W4DNameStatus@@@Z 00000001801b68dc f   libvcruntime:undname.obj
 0001:001b5908       ??YDName@@QEAAAEAV0@AEBUStringLiteral@@@Z 00000001801b6908 f   libvcruntime:undname.obj
 0001:001b5988       ??YDName@@QEAAAEAV0@AEBV0@@Z 00000001801b6988 f   libvcruntime:undname.obj
 0001:001b59e0       ??YDName@@QEAAAEAV0@D@Z    00000001801b69e0 f   libvcruntime:undname.obj
 0001:001b5a4c       ??YDName@@QEAAAEAV0@W4DNameStatus@@@Z 00000001801b6a4c f   libvcruntime:undname.obj
 0001:001b5aa4       ??YReplicator@@QEAAAEAV0@AEBVDName@@@Z 00000001801b6aa4 f   libvcruntime:undname.obj
 0001:001b5afc       ?UScore@UnDecorator@@SA?AUStringLiteral@@W4Tokens@@@Z 00000001801b6afc f   libvcruntime:undname.obj
 0001:001b5b48       ?composeDeclaration@UnDecorator@@CA?AVDName@@AEBV2@@Z 00000001801b6b48 f i libvcruntime:undname.obj
 0001:001b6a3c       ?doPchar@DName@@AEAAXD@Z   00000001801b7a3c f   libvcruntime:undname.obj
 0001:001b6a8c       ?getAddressOf@UnDecorator@@CA?AVDName@@XZ 00000001801b7a8c f   libvcruntime:undname.obj
 0001:001b6b1c       ?getArgumentList@UnDecorator@@CA?AVDName@@XZ 00000001801b7b1c f   libvcruntime:undname.obj
 0001:001b6cd0       ?getArgumentTypes@UnDecorator@@CA?AVDName@@XZ 00000001801b7cd0 f   libvcruntime:undname.obj
 0001:001b6e1c       ?getArrayAccess@UnDecorator@@CA?AVDName@@XZ 00000001801b7e1c f   libvcruntime:undname.obj
 0001:001b6eb8       ?getArrayObject@UnDecorator@@CA?AVDName@@XZ 00000001801b7eb8 f   libvcruntime:undname.obj
 0001:001b6f74       ?getArrayType@UnDecorator@@CA?AVDName@@AEBV2@@Z 00000001801b7f74 f i libvcruntime:undname.obj
 0001:001b71e0       ?getBasedType@UnDecorator@@CA?AVDName@@XZ 00000001801b81e0 f   libvcruntime:undname.obj
 0001:001b72d8       ?getBasicDataType@UnDecorator@@CA?AVDName@@AEBV2@@Z 00000001801b82d8 f   libvcruntime:undname.obj
 0001:001b78dc       ?getCallingConvention@UnDecorator@@CA?AVDName@@XZ 00000001801b88dc f   libvcruntime:undname.obj
 0001:001b7a14       ?getDataIndirectType@UnDecorator@@CA?AVDName@@AEBV2@W4IndirectionKind@@0H@Z 00000001801b8a14 f   libvcruntime:undname.obj
 0001:001b8338       ?getDataType@UnDecorator@@CA?AVDName@@PEAV2@@Z 00000001801b9338 f   libvcruntime:undname.obj
 0001:001b844c       ?getDecoratedName@UnDecorator@@CA?AVDName@@XZ 00000001801b944c f   libvcruntime:undname.obj
 0001:001b8734       ?getDimension@UnDecorator@@CA?AVDName@@_N@Z 00000001801b9734 f   libvcruntime:undname.obj
 0001:001b887c       ?getDispatchTarget@UnDecorator@@CA?AVDName@@XZ 00000001801b987c f   libvcruntime:undname.obj
 0001:001b88dc       ?getECSUDataType@UnDecorator@@CA?AVDName@@XZ 00000001801b98dc f   libvcruntime:undname.obj
 0001:001b8ad8       ?getEnumType@UnDecorator@@CA?AVDName@@XZ 00000001801b9ad8 f i libvcruntime:undname.obj
 0001:001b8c08       ?getExtendedDataIndirectType@UnDecorator@@CA?AVDName@@AEAW4IndirectionKind@@AEA_NH@Z 00000001801b9c08 f   libvcruntime:undname.obj
 0001:001b8e0c       ?getExternalDataType@UnDecorator@@CA?AVDName@@AEBV2@@Z 00000001801b9e0c f i libvcruntime:undname.obj
 0001:001b8ecc       ?getFloatingPoint@UnDecorator@@CA?AVDName@@H@Z 00000001801b9ecc f   libvcruntime:undname.obj
 0001:001b9034       ?getFunctionIndirectType@UnDecorator@@CA?AVDName@@AEBV2@@Z 00000001801ba034 f   libvcruntime:undname.obj
 0001:001b9568       ?getLastChar@DNameStatusNode@@UEBADXZ 00000001801ba568 f i libvcruntime:undname.obj
 0001:001b9574       ?getLastChar@charNode@@UEBADXZ 00000001801ba574 f i libvcruntime:undname.obj
 0001:001b9578       ?getLastChar@pDNameNode@@UEBADXZ 00000001801ba578 f i libvcruntime:undname.obj
 0001:001b95a4       ?getLastChar@pairNode@@UEBADXZ 00000001801ba5a4 f i libvcruntime:undname.obj
 0001:001b95dc       ?getLastChar@pcharNode@@UEBADXZ 00000001801ba5dc f i libvcruntime:undname.obj
 0001:001b95f0       ?getLexicalFrame@UnDecorator@@CA?AVDName@@XZ 00000001801ba5f0 f i libvcruntime:undname.obj
 0001:001b9654       ?getMemberAccess@UnDecorator@@CA?AVDName@@XZ 00000001801ba654 f   libvcruntime:undname.obj
 0001:001b96e8       ?getMemoryWithBuffer@_HeapManager@@QEAAPEAX_K@Z 00000001801ba6e8 f   libvcruntime:undname.obj
 0001:001b9778       ?getNoexcept@UnDecorator@@CA?AVDName@@XZ 00000001801ba778 f   libvcruntime:undname.obj
 0001:001b97dc       ?getNumberOfDimensions@UnDecorator@@CAHXZ 00000001801ba7dc f   libvcruntime:undname.obj
 0001:001b9844       ?getOperatorName@UnDecorator@@CA?AVDName@@_NPEA_N@Z 00000001801ba844 f i libvcruntime:undname.obj
 0001:001ba1f4       ?getPointerToMember@UnDecorator@@CA?AVDName@@XZ 00000001801bb1f4 f   libvcruntime:undname.obj
 0001:001ba2ec       ?getPrimaryDataType@UnDecorator@@CA?AVDName@@AEBV2@@Z 00000001801bb2ec f   libvcruntime:undname.obj
 0001:001ba5a4       ?getPtrRefDataType@UnDecorator@@CA?AVDName@@AEBV2@H@Z 00000001801bb5a4 f   libvcruntime:undname.obj
 0001:001ba770       ?getPtrRefType@UnDecorator@@CA?AVDName@@AEBV2@0W4IndirectionKind@@@Z 00000001801bb770 f   libvcruntime:undname.obj
 0001:001ba948       ?getRestrictionSpec@UnDecorator@@CA?AVDName@@XZ 00000001801bb948 f   libvcruntime:undname.obj
 0001:001bab24       ?getReturnType@UnDecorator@@CA?AVDName@@PEAV2@@Z 00000001801bbb24 f   libvcruntime:undname.obj
 0001:001bab58       ?getScope@UnDecorator@@CA?AVDName@@XZ 00000001801bbb58 f   libvcruntime:undname.obj
 0001:001bb010       ?getScopedName@UnDecorator@@CA?AVDName@@XZ 00000001801bc010 f   libvcruntime:undname.obj
 0001:001bb150       ?getSignedDimension@UnDecorator@@CA?AVDName@@XZ 00000001801bc150 f   libvcruntime:undname.obj
 0001:001bb1d8       ?getString@DNameStatusNode@@UEBAPEADPEAD0@Z 00000001801bc1d8 f i libvcruntime:undname.obj
 0001:001bb220       ?getString@charNode@@UEBAPEADPEAD0@Z 00000001801bc220 f i libvcruntime:undname.obj
 0001:001bb234       ?getString@pDNameNode@@UEBAPEADPEAD0@Z 00000001801bc234 f i libvcruntime:undname.obj
 0001:001bb264       ?getString@pairNode@@UEBAPEADPEAD0@Z 00000001801bc264 f i libvcruntime:undname.obj
 0001:001bb2b0       ?getString@pcharNode@@UEBAPEADPEAD0@Z 00000001801bc2b0 f i libvcruntime:undname.obj
 0001:001bb2e8       ?getStringEncoding@UnDecorator@@CA?AVDName@@W4PrefixKind@@H@Z 00000001801bc2e8 f   libvcruntime:undname.obj
 0001:001bb3f8       ?getStringObject@UnDecorator@@CA?AVDName@@XZ 00000001801bc3f8 f   libvcruntime:undname.obj
 0001:001bb460       ?getSymbolName@UnDecorator@@CA?AVDName@@XZ 00000001801bc460 f i libvcruntime:undname.obj
 0001:001bb4ac       ?getTemplateArgumentList@UnDecorator@@CA?AVDName@@XZ 00000001801bc4ac f   libvcruntime:undname.obj
 0001:001bb6c8       ?getTemplateName@UnDecorator@@CA?AVDName@@_N@Z 00000001801bc6c8 f   libvcruntime:undname.obj
 0001:001bb95c       ?getTemplateNonTypeArgument@UnDecorator@@CA?AVDName@@XZ 00000001801bc95c f   libvcruntime:undname.obj
 0001:001bbeac       ?getTemplateTypeArgument@UnDecorator@@CA?AVDName@@XZ 00000001801bceac f   libvcruntime:undname.obj
 0001:001bc014       ?getThrowTypes@UnDecorator@@CA?AVDName@@XZ 00000001801bd014 f   libvcruntime:undname.obj
 0001:001bc038       ?getTypeEncoding@UnDecorator@@CAHXZ 00000001801bd038 f i libvcruntime:undname.obj
 0001:001bc3f4       ?getUndecoratedName@UnDecorator@@QEAAPEADPEADH@Z 00000001801bd3f4 f i libvcruntime:undname.obj
 0001:001bc548       ?getUnionObject@UnDecorator@@CA?AVDName@@XZ 00000001801bd548 f   libvcruntime:undname.obj
 0001:001bc620       ?getVCallThunkType@UnDecorator@@CA?AVDName@@XZ 00000001801bd620 f i libvcruntime:undname.obj
 0001:001bc698       ?getValue@UnDecorator@@CA?AV?$optional@_K@std@@XZ 00000001801bd698 f   libvcruntime:undname.obj
 0001:001bc6e8       ?getValueObject@UnDecorator@@CA?AVDName@@XZ 00000001801bd6e8 f   libvcruntime:undname.obj
 0001:001bc828       ?getVdispMapType@UnDecorator@@CA?AVDName@@AEBV2@@Z 00000001801bd828 f i libvcruntime:undname.obj
 0001:001bc8a4       ?getVfTableType@UnDecorator@@CA?AVDName@@AEBV2@@Z 00000001801bd8a4 f i libvcruntime:undname.obj
 0001:001bcab0       ?getZName@UnDecorator@@CA?AVDName@@_N0@Z 00000001801bdab0 f   libvcruntime:undname.obj
 0001:001bcd84       ?length@pDNameNode@@UEBAHXZ 00000001801bdd84 f i libvcruntime:undname.obj
 0001:001bcdac       ?length@pairNode@@UEBAHXZ  00000001801bddac f i libvcruntime:undname.obj
 0001:001bcdf4       ?parseDecoratedName@UnDecorator@@CA?AVDName@@XZ 00000001801bddf4 f   libvcruntime:undname.obj
 0001:001bcf0c       ?raw_length@pDNameNode@@UEBAHXZ 00000001801bdf0c f i libvcruntime:undname.obj
 0001:001bcf10       ?raw_length@pairNode@@UEBAHXZ 00000001801bdf10 f i libvcruntime:undname.obj
 0001:001bcf14       __unDName                  00000001801bdf14 f   libvcruntime:undname.obj
 0001:001bcf3c       __unDNameEx                00000001801bdf3c f   libvcruntime:undname.obj
 0001:001bd070       snprintf                   00000001801be070 f i libvcruntime:undname.obj
 0001:001bd0c8       sprintf_s                  00000001801be0c8 f i libvcruntime:undname.obj
 0001:001bd11c       __vcrt_freefls             00000001801be11c f   libvcruntime:per_thread_data.obj
 0001:001bd13c       __vcrt_freeptd             00000001801be13c f   libvcruntime:per_thread_data.obj
 0001:001bd18c       __vcrt_getptd              00000001801be18c f   libvcruntime:per_thread_data.obj
 0001:001bd1a8       __vcrt_getptd_noexit       00000001801be1a8 f   libvcruntime:per_thread_data.obj
 0001:001bd268       __vcrt_initialize_ptd      00000001801be268 f   libvcruntime:per_thread_data.obj
 0001:001bd2b0       __vcrt_uninitialize_ptd    00000001801be2b0 f   libvcruntime:per_thread_data.obj
 0001:001bd2d4       __vcrt_initialize_locks    00000001801be2d4 f   libvcruntime:locks.obj
 0001:001bd31c       __vcrt_lock                00000001801be31c f   libvcruntime:locks.obj
 0001:001bd338       __vcrt_uninitialize_locks  00000001801be338 f   libvcruntime:locks.obj
 0001:001bd370       __vcrt_unlock              00000001801be370 f   libvcruntime:locks.obj
 0001:001bd3a0       _NLG_Notify                00000001801be3a0 f   libvcruntime:notify.obj
 0001:001bd3c0       __NLG_Dispatch2            00000001801be3c0 f   libvcruntime:notify.obj
 0001:001bd3d0       __NLG_Return2              00000001801be3d0 f   libvcruntime:notify.obj
 0001:001bd3d4       __except_validate_context_record 00000001801be3d4 f   libvcruntime:jbcxrval.obj
 0001:001bd40c       ??$_CallSETranslator@V__FrameHandler3@@@@YAHPEAUEHExceptionRecord@@PEA_KPEAU_CONTEXT@@PEAU_xDISPATCHER_CONTEXT@@PEBU_s_FuncInfo@@K1H@Z 00000001801be40c f i libvcruntime:risctrnsctrl.obj
 0001:001bd460       ??$_CallSETranslator@V__FrameHandler4@@@@YAHPEAUEHExceptionRecord@@PEA_KPEAU_CONTEXT@@PEAU_xDISPATCHER_CONTEXT@@PEAUFuncInfo4@FH4@@K1H@Z 00000001801be460 f i libvcruntime:risctrnsctrl.obj
 0001:001bd4b4       ?CatchTryBlock@__FrameHandler3@@SAPEBU_s_TryBlockMapEntry@@PEBU_s_FuncInfo@@H@Z 00000001801be4b4 f   libvcruntime:risctrnsctrl.obj
 0001:001bd518       ?DecompFuncInfo@FH4@@YA_JPEAEAEAUFuncInfo4@1@_KH_N@Z 00000001801be518 f i libvcruntime:risctrnsctrl.obj
 0001:001bd64c       ?ExecutionInCatch@__FrameHandler3@@SA_NPEAU_xDISPATCHER_CONTEXT@@PEBU_s_FuncInfo@@@Z 00000001801be64c f   libvcruntime:risctrnsctrl.obj
 0001:001bd678       ?ExecutionInCatch@__FrameHandler4@@SA_NPEAU_xDISPATCHER_CONTEXT@@PEAUFuncInfo4@FH4@@@Z 00000001801be678 f   libvcruntime:risctrnsctrl.obj
 0001:001bd680       ?FrameUnwindToEmptyState@__FrameHandler3@@SAXPEA_KPEAU_xDISPATCHER_CONTEXT@@PEBU_s_FuncInfo@@@Z 00000001801be680 f   libvcruntime:risctrnsctrl.obj
 0001:001bd6e4       ?FrameUnwindToEmptyState@__FrameHandler4@@SAXPEA_KPEAU_xDISPATCHER_CONTEXT@@PEAUFuncInfo4@FH4@@@Z 00000001801be6e4 f   libvcruntime:risctrnsctrl.obj
 0001:001bd718       ?GetEstablisherFrame@__FrameHandler3@@SAPEA_KPEA_KPEAU_xDISPATCHER_CONTEXT@@PEBU_s_FuncInfo@@0@Z 00000001801be718 f   libvcruntime:risctrnsctrl.obj
 0001:001bd7e4       ?GetEstablisherFrame@__FrameHandler4@@SAPEA_KPEA_KPEAU_xDISPATCHER_CONTEXT@@PEAUFuncInfo4@FH4@@0@Z 00000001801be7e4 f   libvcruntime:risctrnsctrl.obj
 0001:001bd808       ?GetRangeOfTrysToCheck@__FrameHandler3@@SA?AU?$pair@Viterator@TryBlockMap@__FrameHandler3@@V123@@std@@AEAVTryBlockMap@1@HPEAU_xDISPATCHER_CONTEXT@@PEBU_s_FuncInfo@@H@Z 00000001801be808 f   libvcruntime:risctrnsctrl.obj
 0001:001bd948       ?GetRangeOfTrysToCheck@__FrameHandler4@@SA?AU?$pair@Viterator@TryBlockMap4@FH4@@V123@@std@@AEAVTryBlockMap4@FH4@@HPEAU_xDISPATCHER_CONTEXT@@PEAUFuncInfo4@5@H@Z 00000001801be948 f   libvcruntime:risctrnsctrl.obj
 0001:001bdab4       ?UnwindNestedFrames@__FrameHandler3@@SAXPEA_KPEAUEHExceptionRecord@@PEAU_CONTEXT@@0PEAXPEBU_s_FuncInfo@@HHPEBU_s_HandlerType@@PEAU_xDISPATCHER_CONTEXT@@E@Z 00000001801beab4 f   libvcruntime:risctrnsctrl.obj
 0001:001bdbb8       ?UnwindNestedFrames@__FrameHandler4@@SAXPEA_KPEAUEHExceptionRecord@@PEAU_CONTEXT@@0PEAXPEAUFuncInfo4@FH4@@HHPEAUHandlerType4@5@PEAU_xDISPATCHER_CONTEXT@@E@Z 00000001801bebb8 f   libvcruntime:risctrnsctrl.obj
 0001:001bdcd8       ?setBuffer@TryBlockMap4@FH4@@QEAAXViterator@12@@Z 00000001801becd8 f i libvcruntime:risctrnsctrl.obj
 0001:001bde9c       _CreateFrameInfo           00000001801bee9c f   libvcruntime:risctrnsctrl.obj
 0001:001bded8       _FindAndUnlinkFrame        00000001801beed8 f   libvcruntime:risctrnsctrl.obj
 0001:001bdf2c       _GetImageBase              00000001801bef2c f   libvcruntime:risctrnsctrl.obj
 0001:001bdf40       _GetThrowImageBase         00000001801bef40 f   libvcruntime:risctrnsctrl.obj
 0001:001bdf54       _SetImageBase              00000001801bef54 f   libvcruntime:risctrnsctrl.obj
 0001:001bdf6c       _SetThrowImageBase         00000001801bef6c f   libvcruntime:risctrnsctrl.obj
 0001:001bdf84       __CxxFrameHandler3         00000001801bef84 f   libvcruntime:risctrnsctrl.obj
 0001:001be00c       __CxxFrameHandler4         00000001801bf00c f   libvcruntime:risctrnsctrl.obj
 0001:001be21c       __vcrt_FlsAlloc            00000001801bf21c f   libvcruntime:winapi_downlevel.obj
 0001:001be264       __vcrt_FlsFree             00000001801bf264 f   libvcruntime:winapi_downlevel.obj
 0001:001be2ac       __vcrt_FlsGetValue         00000001801bf2ac f   libvcruntime:winapi_downlevel.obj
 0001:001be2f4       __vcrt_FlsSetValue         00000001801bf2f4 f   libvcruntime:winapi_downlevel.obj
 0001:001be348       __vcrt_InitializeCriticalSectionEx 00000001801bf348 f   libvcruntime:winapi_downlevel.obj
 0001:001be3ac       ?GetCurrentState@__FrameHandler3@@SAHPEA_KPEAU_xDISPATCHER_CONTEXT@@PEBU_s_FuncInfo@@@Z 00000001801bf3ac f   libvcruntime:ehstate.obj
 0001:001be3d4       ?GetUnwindTryBlock@__FrameHandler3@@SAHPEA_KPEAU_xDISPATCHER_CONTEXT@@PEBU_s_FuncInfo@@@Z 00000001801bf3d4 f   libvcruntime:ehstate.obj
 0001:001be400       ?SetState@__FrameHandler3@@SAXPEA_KPEBU_s_FuncInfo@@H@Z 00000001801bf400 f   libvcruntime:ehstate.obj
 0001:001be40c       ?SetUnwindTryBlock@__FrameHandler3@@SAXPEA_KPEAU_xDISPATCHER_CONTEXT@@PEBU_s_FuncInfo@@H@Z 00000001801bf40c f   libvcruntime:ehstate.obj
 0001:001be448       ?StateFromControlPc@__FrameHandler3@@SAHPEBU_s_FuncInfo@@PEAU_xDISPATCHER_CONTEXT@@@Z 00000001801bf448 f   libvcruntime:ehstate.obj
 0001:001be450       ?StateFromControlPc@__FrameHandler4@@SAHPEAUFuncInfo4@FH4@@PEAU_xDISPATCHER_CONTEXT@@@Z 00000001801bf450 f   libvcruntime:ehstate.obj
 0001:001be458       ?StateFromIp@__FrameHandler3@@SAHPEBU_s_FuncInfo@@PEAU_xDISPATCHER_CONTEXT@@_K@Z 00000001801bf458 f   libvcruntime:ehstate.obj
 0001:001be4c0       ?StateFromIp@__FrameHandler4@@SAHPEAUFuncInfo4@FH4@@PEAU_xDISPATCHER_CONTEXT@@_K@Z 00000001801bf4c0 f   libvcruntime:ehstate.obj
 0001:001bfbc0       ??$TypeMatchHelper@V__FrameHandler3@@@@YAHPEBU_s_HandlerType@@PEBU_s_CatchableType@@PEBU_s_ThrowInfo@@@Z 00000001801c0bc0 f i libvcruntime:frame.obj
 0001:001bfd00       ??$TypeMatchHelper@V__FrameHandler4@@@@YAHPEAUHandlerType4@FH4@@PEBU_s_CatchableType@@PEBU_s_ThrowInfo@@@Z 00000001801c0d00 f i libvcruntime:frame.obj
 0001:001bfe44       ??$__InternalCxxFrameHandler@V__FrameHandler3@@@@YA?AW4_EXCEPTION_DISPOSITION@@PEAUEHExceptionRecord@@PEA_KPEAU_CONTEXT@@PEAU_xDISPATCHER_CONTEXT@@PEBU_s_FuncInfo@@H1E@Z 00000001801c0e44 f i libvcruntime:frame.obj
 0001:001c007c       ??$__InternalCxxFrameHandler@V__FrameHandler4@@@@YA?AW4_EXCEPTION_DISPOSITION@@PEAUEHExceptionRecord@@PEA_KPEAU_CONTEXT@@PEAU_xDISPATCHER_CONTEXT@@PEAUFuncInfo4@FH4@@H1E@Z 00000001801c107c f i libvcruntime:frame.obj
 0001:001c0310       ??$__InternalCxxFrameHandlerWrapper@V__FrameHandler3@@@@YA?AW4_EXCEPTION_DISPOSITION@@PEAUEHExceptionRecord@@PEA_KPEAU_CONTEXT@@PEAU_xDISPATCHER_CONTEXT@@PEBU_s_FuncInfo@@H1E@Z 00000001801c1310 f i libvcruntime:frame.obj
 0001:001c0318       ??$__InternalCxxFrameHandlerWrapper@V__FrameHandler4@@@@YA?AW4_EXCEPTION_DISPOSITION@@PEAUEHExceptionRecord@@PEA_KPEAU_CONTEXT@@PEAU_xDISPATCHER_CONTEXT@@PEAUFuncInfo4@FH4@@H1E@Z 00000001801c1318 f i libvcruntime:frame.obj
 0001:001c0374       ??0HandlerMap4@FH4@@QEAA@PEBUTryBlockMapEntry4@1@_KH@Z 00000001801c1374 f i libvcruntime:frame.obj
 0001:001c03f0       ??0TryBlockMap4@FH4@@QEAA@PEBUFuncInfo4@1@_K@Z 00000001801c13f0 f i libvcruntime:frame.obj
 0001:001c04c8       ??0bad_exception@std@@QEAA@AEBV01@@Z 00000001801c14c8 f i libvcruntime:frame.obj
 0001:001c0504       ??0bad_exception@std@@QEAA@XZ 00000001801c1504 f i libvcruntime:frame.obj
 0001:001c0524       ??0exception@std@@QEAA@AEBV01@@Z 00000001801c1524 f i libvcruntime:frame.obj
 0001:001c0558       ??1bad_exception@std@@UEAA@XZ 00000001801c1558 f i libvcruntime:frame.obj
 0001:001c056c       ??_Ebad_exception@std@@UEAAPEAXI@Z 00000001801c156c f i libvcruntime:frame.obj
 0001:001c056c       ??_Eexception@std@@UEAAPEAXI@Z 00000001801c156c f i libvcruntime:frame.obj
 0001:001c056c       ??_Gbad_exception@std@@UEAAPEAXI@Z 00000001801c156c f i libvcruntime:frame.obj
 0001:001c056c       ??_Gexception@std@@UEAAPEAXI@Z 00000001801c156c f i libvcruntime:frame.obj
 0001:001c05b0       ?CxxCallCatchBlock@__FrameHandler3@@SAPEAXPEAU_EXCEPTION_RECORD@@@Z 00000001801c15b0 f   libvcruntime:frame.obj
 0001:001c079c       ?CxxCallCatchBlock@__FrameHandler4@@SAPEAXPEAU_EXCEPTION_RECORD@@@Z 00000001801c179c f   libvcruntime:frame.obj
 0001:001c09ec       ?DecompHandler@HandlerMap4@FH4@@AEAAXXZ 00000001801c19ec f i libvcruntime:frame.obj
 0001:001c0c38       ?FrameUnwindToState@__FrameHandler3@@SAXPEA_KPEAU_xDISPATCHER_CONTEXT@@PEBU_s_FuncInfo@@H@Z 00000001801c1c38 f   libvcruntime:frame.obj
 0001:001c0dc4       ?FrameUnwindToState@__FrameHandler4@@SAXPEA_KPEAU_xDISPATCHER_CONTEXT@@PEAUFuncInfo4@FH4@@H@Z 00000001801c1dc4 f   libvcruntime:frame.obj
 0001:001c10c0       ?GetHandlerSearchState@__FrameHandler3@@SAHPEA_KPEAU_xDISPATCHER_CONTEXT@@PEBU_s_FuncInfo@@@Z 00000001801c20c0 f i libvcruntime:frame.obj
 0001:001c12d0       ?ReadEntry@UWMap4@FH4@@AEAAXPEAPEAE@Z 00000001801c22d0 f i libvcruntime:frame.obj
 0001:001c136c       ?_CallMemberFunction1@@YAXQEAX00@Z 00000001801c236c f i libvcruntime:frame.obj
 0001:001c1378       ?_CallMemberFunction2@@YAXQEAX00H@Z 00000001801c2378 f i libvcruntime:frame.obj
 0001:001c1388       ?getStartStop@UWMap4@FH4@@QEAAXHHAEAViterator@12@0@Z 00000001801c2388 f i libvcruntime:frame.obj
 0001:001c1458       ?getStateFromIterators@UWMap4@FH4@@SAHAEBViterator@12@H0H0@Z 00000001801c2458 f i libvcruntime:frame.obj
 0001:001c1508       ?what@exception@std@@UEBAPEBDXZ 00000001801c2508 f i libvcruntime:frame.obj
 0001:001c1530       _CallSettingFrame          00000001801c2530 f   libvcruntime:handlers.obj
 0001:001c1580       _CallSettingFrame_LookupContinuationIndex 00000001801c2580 f   libvcruntime:handlers.obj
 0001:001c15b0       _CallSettingFrame_NotifyContinuationAddr 00000001801c25b0 f   libvcruntime:handlers.obj
 0001:001c15e0       _CallSettingFrameEncoded   00000001801c25e0 f   libvcruntime:handlers.obj
 0001:001c1628       __std_exception_copy       00000001801c2628 f   libvcruntime:std_exception.obj
 0001:001c16b8       __std_exception_destroy    00000001801c26b8 f   libvcruntime:std_exception.obj
 0001:001c16e0       _CxxThrowException         00000001801c26e0 f   libvcruntime:throw.obj
 0001:001c1780       _local_unwind              00000001801c2780 f   libvcruntime:jmpuwind.obj
 0001:001c17b0       cosf                       00000001801c27b0 f   libucrt:cosf.obj
 0001:001c1cb0       sinf                       00000001801c2cb0 f   libucrt:sinf.obj
 0001:001c23b0       tanf                       00000001801c33b0 f   libucrt:tanf.obj
 0001:001c2a24       __acrt_initialize_stdio    00000001801c3a24 f   libucrt:_file.obj
 0001:001c2b44       __acrt_iob_func            00000001801c3b44 f   libucrt:_file.obj
 0001:001c2b58       __acrt_uninitialize_stdio  00000001801c3b58 f   libucrt:_file.obj
 0001:001c2bb4       _lock_file                 00000001801c3bb4 f   libucrt:_file.obj
 0001:001c2bc0       _unlock_file               00000001801c3bc0 f   libucrt:_file.obj
 0001:001c2dbc       ??$ensure_buffer_is_big_enough@D@formatting_buffer@__crt_stdio_output@@QEAA_N_KAEAV__crt_cached_ptd_host@@@Z 00000001801c3dbc f i libucrt:output.obj
 0001:001c2e64       ??$parse_integer@KV?$c_string_character_source@D@__crt_strtox@@$0A@@__crt_strtox@@YAKAEAV__crt_cached_ptd_host@@V?$c_string_character_source@D@0@H_N@Z 00000001801c3e64 f i libucrt:output.obj
 0001:001c3114       ??$type_case_integer@$07@?$output_processor@DV?$stream_output_adapter@D@__crt_stdio_output@@V?$standard_base@DV?$stream_output_adapter@D@__crt_stdio_output@@@2@@__crt_stdio_output@@AEAA_N_N@Z 00000001801c4114 f i libucrt:output.obj
 0001:001c3114       ??$type_case_integer@$07@?$output_processor@DV?$string_output_adapter@D@__crt_stdio_output@@V?$format_validation_base@DV?$string_output_adapter@D@__crt_stdio_output@@@2@@__crt_stdio_output@@AEAA_N_N@Z 00000001801c4114 f i libucrt:output.obj
 0001:001c3114       ??$type_case_integer@$07@?$output_processor@DV?$string_output_adapter@D@__crt_stdio_output@@V?$standard_base@DV?$string_output_adapter@D@__crt_stdio_output@@@2@@__crt_stdio_output@@AEAA_N_N@Z 00000001801c4114 f i libucrt:output.obj
 0001:001c32fc       ??$type_case_integer@$09@?$output_processor@DV?$stream_output_adapter@D@__crt_stdio_output@@V?$standard_base@DV?$stream_output_adapter@D@__crt_stdio_output@@@2@@__crt_stdio_output@@AEAA_N_N@Z 00000001801c42fc f i libucrt:output.obj
 0001:001c32fc       ??$type_case_integer@$09@?$output_processor@DV?$string_output_adapter@D@__crt_stdio_output@@V?$format_validation_base@DV?$string_output_adapter@D@__crt_stdio_output@@@2@@__crt_stdio_output@@AEAA_N_N@Z 00000001801c42fc f i libucrt:output.obj
 0001:001c32fc       ??$type_case_integer@$09@?$output_processor@DV?$string_output_adapter@D@__crt_stdio_output@@V?$standard_base@DV?$string_output_adapter@D@__crt_stdio_output@@@2@@__crt_stdio_output@@AEAA_N_N@Z 00000001801c42fc f i libucrt:output.obj
 0001:001c34e4       ??$type_case_integer@$0BA@@?$output_processor@DV?$stream_output_adapter@D@__crt_stdio_output@@V?$standard_base@DV?$stream_output_adapter@D@__crt_stdio_output@@@2@@__crt_stdio_output@@AEAA_N_N@Z 00000001801c44e4 f i libucrt:output.obj
 0001:001c34e4       ??$type_case_integer@$0BA@@?$output_processor@DV?$string_output_adapter@D@__crt_stdio_output@@V?$format_validation_base@DV?$string_output_adapter@D@__crt_stdio_output@@@2@@__crt_stdio_output@@AEAA_N_N@Z 00000001801c44e4 f i libucrt:output.obj
 0001:001c34e4       ??$type_case_integer@$0BA@@?$output_processor@DV?$string_output_adapter@D@__crt_stdio_output@@V?$standard_base@DV?$string_output_adapter@D@__crt_stdio_output@@@2@@__crt_stdio_output@@AEAA_N_N@Z 00000001801c44e4 f i libucrt:output.obj
 0001:001c36cc       ??$type_case_integer_parse_into_buffer@I$07@?$output_processor@DV?$stream_output_adapter@D@__crt_stdio_output@@V?$standard_base@DV?$stream_output_adapter@D@__crt_stdio_output@@@2@@__crt_stdio_output@@AEAAXI_N@Z 00000001801c46cc f i libucrt:output.obj
 0001:001c36cc       ??$type_case_integer_parse_into_buffer@I$07@?$output_processor@DV?$string_output_adapter@D@__crt_stdio_output@@V?$format_validation_base@DV?$string_output_adapter@D@__crt_stdio_output@@@2@@__crt_stdio_output@@AEAAXI_N@Z 00000001801c46cc f i libucrt:output.obj
 0001:001c36cc       ??$type_case_integer_parse_into_buffer@I$07@?$output_processor@DV?$string_output_adapter@D@__crt_stdio_output@@V?$standard_base@DV?$string_output_adapter@D@__crt_stdio_output@@@2@@__crt_stdio_output@@AEAAXI_N@Z 00000001801c46cc f i libucrt:output.obj
 0001:001c3748       ??$type_case_integer_parse_into_buffer@I$09@?$output_processor@DV?$stream_output_adapter@D@__crt_stdio_output@@V?$standard_base@DV?$stream_output_adapter@D@__crt_stdio_output@@@2@@__crt_stdio_output@@AEAAXI_N@Z 00000001801c4748 f i libucrt:output.obj
 0001:001c3748       ??$type_case_integer_parse_into_buffer@I$09@?$output_processor@DV?$string_output_adapter@D@__crt_stdio_output@@V?$format_validation_base@DV?$string_output_adapter@D@__crt_stdio_output@@@2@@__crt_stdio_output@@AEAAXI_N@Z 00000001801c4748 f i libucrt:output.obj
 0001:001c3748       ??$type_case_integer_parse_into_buffer@I$09@?$output_processor@DV?$string_output_adapter@D@__crt_stdio_output@@V?$standard_base@DV?$string_output_adapter@D@__crt_stdio_output@@@2@@__crt_stdio_output@@AEAAXI_N@Z 00000001801c4748 f i libucrt:output.obj
 0001:001c37f0       ??$type_case_integer_parse_into_buffer@I$0BA@@?$output_processor@DV?$stream_output_adapter@D@__crt_stdio_output@@V?$standard_base@DV?$stream_output_adapter@D@__crt_stdio_output@@@2@@__crt_stdio_output@@AEAAXI_N@Z 00000001801c47f0 f i libucrt:output.obj
 0001:001c37f0       ??$type_case_integer_parse_into_buffer@I$0BA@@?$output_processor@DV?$string_output_adapter@D@__crt_stdio_output@@V?$format_validation_base@DV?$string_output_adapter@D@__crt_stdio_output@@@2@@__crt_stdio_output@@AEAAXI_N@Z 00000001801c47f0 f i libucrt:output.obj
 0001:001c37f0       ??$type_case_integer_parse_into_buffer@I$0BA@@?$output_processor@DV?$string_output_adapter@D@__crt_stdio_output@@V?$standard_base@DV?$string_output_adapter@D@__crt_stdio_output@@@2@@__crt_stdio_output@@AEAAXI_N@Z 00000001801c47f0 f i libucrt:output.obj
 0001:001c387c       ??$type_case_integer_parse_into_buffer@_K$07@?$output_processor@DV?$stream_output_adapter@D@__crt_stdio_output@@V?$standard_base@DV?$stream_output_adapter@D@__crt_stdio_output@@@2@@__crt_stdio_output@@AEAAX_K_N@Z 00000001801c487c f i libucrt:output.obj
 0001:001c387c       ??$type_case_integer_parse_into_buffer@_K$07@?$output_processor@DV?$string_output_adapter@D@__crt_stdio_output@@V?$format_validation_base@DV?$string_output_adapter@D@__crt_stdio_output@@@2@@__crt_stdio_output@@AEAAX_K_N@Z 00000001801c487c f i libucrt:output.obj
 0001:001c387c       ??$type_case_integer_parse_into_buffer@_K$07@?$output_processor@DV?$string_output_adapter@D@__crt_stdio_output@@V?$standard_base@DV?$string_output_adapter@D@__crt_stdio_output@@@2@@__crt_stdio_output@@AEAAX_K_N@Z 00000001801c487c f i libucrt:output.obj
 0001:001c38f8       ??$type_case_integer_parse_into_buffer@_K$09@?$output_processor@DV?$stream_output_adapter@D@__crt_stdio_output@@V?$standard_base@DV?$stream_output_adapter@D@__crt_stdio_output@@@2@@__crt_stdio_output@@AEAAX_K_N@Z 00000001801c48f8 f i libucrt:output.obj
 0001:001c38f8       ??$type_case_integer_parse_into_buffer@_K$09@?$output_processor@DV?$string_output_adapter@D@__crt_stdio_output@@V?$format_validation_base@DV?$string_output_adapter@D@__crt_stdio_output@@@2@@__crt_stdio_output@@AEAAX_K_N@Z 00000001801c48f8 f i libucrt:output.obj
 0001:001c38f8       ??$type_case_integer_parse_into_buffer@_K$09@?$output_processor@DV?$string_output_adapter@D@__crt_stdio_output@@V?$standard_base@DV?$string_output_adapter@D@__crt_stdio_output@@@2@@__crt_stdio_output@@AEAAX_K_N@Z 00000001801c48f8 f i libucrt:output.obj
 0001:001c39a4       ??$type_case_integer_parse_into_buffer@_K$0BA@@?$output_processor@DV?$stream_output_adapter@D@__crt_stdio_output@@V?$standard_base@DV?$stream_output_adapter@D@__crt_stdio_output@@@2@@__crt_stdio_output@@AEAAX_K_N@Z 00000001801c49a4 f i libucrt:output.obj
 0001:001c39a4       ??$type_case_integer_parse_into_buffer@_K$0BA@@?$output_processor@DV?$string_output_adapter@D@__crt_stdio_output@@V?$format_validation_base@DV?$string_output_adapter@D@__crt_stdio_output@@@2@@__crt_stdio_output@@AEAAX_K_N@Z 00000001801c49a4 f i libucrt:output.obj
 0001:001c39a4       ??$type_case_integer_parse_into_buffer@_K$0BA@@?$output_processor@DV?$string_output_adapter@D@__crt_stdio_output@@V?$standard_base@DV?$string_output_adapter@D@__crt_stdio_output@@@2@@__crt_stdio_output@@AEAAX_K_N@Z 00000001801c49a4 f i libucrt:output.obj
 0001:001c3b4c       ?crop_zeroes@__crt_stdio_output@@YAXPEADQEAU__crt_locale_pointers@@@Z 00000001801c4b4c f i libucrt:output.obj
 0001:001c3bc0       ?get_raw_ptd@__crt_cached_ptd_host@@QEAAPEAU__acrt_ptd@@XZ 00000001801c4bc0 f i libucrt:output.obj
 0001:001c3c28       ?parse_int_from_format_string@?$output_processor@DV?$stream_output_adapter@D@__crt_stdio_output@@V?$standard_base@DV?$stream_output_adapter@D@__crt_stdio_output@@@2@@__crt_stdio_output@@AEAA_NQEAH@Z 00000001801c4c28 f i libucrt:output.obj
 0001:001c3c28       ?parse_int_from_format_string@?$output_processor@DV?$string_output_adapter@D@__crt_stdio_output@@V?$format_validation_base@DV?$string_output_adapter@D@__crt_stdio_output@@@2@@__crt_stdio_output@@AEAA_NQEAH@Z 00000001801c4c28 f i libucrt:output.obj
 0001:001c3c28       ?parse_int_from_format_string@?$output_processor@DV?$string_output_adapter@D@__crt_stdio_output@@V?$standard_base@DV?$string_output_adapter@D@__crt_stdio_output@@@2@@__crt_stdio_output@@AEAA_NQEAH@Z 00000001801c4c28 f i libucrt:output.obj
 0001:001c3cb8       ?process@?$output_processor@DV?$stream_output_adapter@D@__crt_stdio_output@@V?$standard_base@DV?$stream_output_adapter@D@__crt_stdio_output@@@2@@__crt_stdio_output@@QEAAHXZ 00000001801c4cb8 f i libucrt:output.obj
 0001:001c4044       ?process@?$output_processor@DV?$string_output_adapter@D@__crt_stdio_output@@V?$format_validation_base@DV?$string_output_adapter@D@__crt_stdio_output@@@2@@__crt_stdio_output@@QEAAHXZ 00000001801c5044 f i libucrt:output.obj
 0001:001c43d4       ?process@?$output_processor@DV?$string_output_adapter@D@__crt_stdio_output@@V?$standard_base@DV?$string_output_adapter@D@__crt_stdio_output@@@2@@__crt_stdio_output@@QEAAHXZ 00000001801c53d4 f i libucrt:output.obj
 0001:001c4758       ?state_case_size@?$output_processor@DV?$stream_output_adapter@D@__crt_stdio_output@@V?$standard_base@DV?$stream_output_adapter@D@__crt_stdio_output@@@2@@__crt_stdio_output@@AEAA_NXZ 00000001801c5758 f i libucrt:output.obj
 0001:001c48dc       ?state_case_size@?$output_processor@DV?$string_output_adapter@D@__crt_stdio_output@@V?$format_validation_base@DV?$string_output_adapter@D@__crt_stdio_output@@@2@@__crt_stdio_output@@AEAA_NXZ 00000001801c58dc f i libucrt:output.obj
 0001:001c48dc       ?state_case_size@?$output_processor@DV?$string_output_adapter@D@__crt_stdio_output@@V?$standard_base@DV?$string_output_adapter@D@__crt_stdio_output@@@2@@__crt_stdio_output@@AEAA_NXZ 00000001801c58dc f i libucrt:output.obj
 0001:001c4a60       ?state_case_type@?$output_processor@DV?$stream_output_adapter@D@__crt_stdio_output@@V?$standard_base@DV?$stream_output_adapter@D@__crt_stdio_output@@@2@@__crt_stdio_output@@AEAA_NXZ 00000001801c5a60 f i libucrt:output.obj
 0001:001c4e94       ?state_case_type@?$output_processor@DV?$string_output_adapter@D@__crt_stdio_output@@V?$format_validation_base@DV?$string_output_adapter@D@__crt_stdio_output@@@2@@__crt_stdio_output@@AEAA_NXZ 00000001801c5e94 f i libucrt:output.obj
 0001:001c4e94       ?state_case_type@?$output_processor@DV?$string_output_adapter@D@__crt_stdio_output@@V?$standard_base@DV?$string_output_adapter@D@__crt_stdio_output@@@2@@__crt_stdio_output@@AEAA_NXZ 00000001801c5e94 f i libucrt:output.obj
 0001:001c5260       ?type_case_Z@?$output_processor@DV?$stream_output_adapter@D@__crt_stdio_output@@V?$standard_base@DV?$stream_output_adapter@D@__crt_stdio_output@@@2@@__crt_stdio_output@@AEAA_NXZ 00000001801c6260 f i libucrt:output.obj
 0001:001c5260       ?type_case_Z@?$output_processor@DV?$string_output_adapter@D@__crt_stdio_output@@V?$format_validation_base@DV?$string_output_adapter@D@__crt_stdio_output@@@2@@__crt_stdio_output@@AEAA_NXZ 00000001801c6260 f i libucrt:output.obj
 0001:001c5260       ?type_case_Z@?$output_processor@DV?$string_output_adapter@D@__crt_stdio_output@@V?$standard_base@DV?$string_output_adapter@D@__crt_stdio_output@@@2@@__crt_stdio_output@@AEAA_NXZ 00000001801c6260 f i libucrt:output.obj
 0001:001c52d8       ?type_case_a@?$output_processor@DV?$stream_output_adapter@D@__crt_stdio_output@@V?$standard_base@DV?$stream_output_adapter@D@__crt_stdio_output@@@2@@__crt_stdio_output@@AEAA_NXZ 00000001801c62d8 f i libucrt:output.obj
 0001:001c52d8       ?type_case_a@?$output_processor@DV?$string_output_adapter@D@__crt_stdio_output@@V?$format_validation_base@DV?$string_output_adapter@D@__crt_stdio_output@@@2@@__crt_stdio_output@@AEAA_NXZ 00000001801c62d8 f i libucrt:output.obj
 0001:001c52d8       ?type_case_a@?$output_processor@DV?$string_output_adapter@D@__crt_stdio_output@@V?$standard_base@DV?$string_output_adapter@D@__crt_stdio_output@@@2@@__crt_stdio_output@@AEAA_NXZ 00000001801c62d8 f i libucrt:output.obj
 0001:001c5524       ?type_case_c_tchar@?$output_processor@DV?$stream_output_adapter@D@__crt_stdio_output@@V?$standard_base@DV?$stream_output_adapter@D@__crt_stdio_output@@@2@@__crt_stdio_output@@AEAA_ND@Z 00000001801c6524 f i libucrt:output.obj
 0001:001c5524       ?type_case_c_tchar@?$output_processor@DV?$string_output_adapter@D@__crt_stdio_output@@V?$format_validation_base@DV?$string_output_adapter@D@__crt_stdio_output@@@2@@__crt_stdio_output@@AEAA_ND@Z 00000001801c6524 f i libucrt:output.obj
 0001:001c5524       ?type_case_c_tchar@?$output_processor@DV?$string_output_adapter@D@__crt_stdio_output@@V?$standard_base@DV?$string_output_adapter@D@__crt_stdio_output@@@2@@__crt_stdio_output@@AEAA_ND@Z 00000001801c6524 f i libucrt:output.obj
 0001:001c55e8       ?type_case_n@?$output_processor@DV?$stream_output_adapter@D@__crt_stdio_output@@V?$standard_base@DV?$stream_output_adapter@D@__crt_stdio_output@@@2@@__crt_stdio_output@@AEAA_NXZ 00000001801c65e8 f i libucrt:output.obj
 0001:001c55e8       ?type_case_n@?$output_processor@DV?$string_output_adapter@D@__crt_stdio_output@@V?$format_validation_base@DV?$string_output_adapter@D@__crt_stdio_output@@@2@@__crt_stdio_output@@AEAA_NXZ 00000001801c65e8 f i libucrt:output.obj
 0001:001c55e8       ?type_case_n@?$output_processor@DV?$string_output_adapter@D@__crt_stdio_output@@V?$standard_base@DV?$string_output_adapter@D@__crt_stdio_output@@@2@@__crt_stdio_output@@AEAA_NXZ 00000001801c65e8 f i libucrt:output.obj
 0001:001c569c       ?type_case_s@?$output_processor@DV?$stream_output_adapter@D@__crt_stdio_output@@V?$standard_base@DV?$stream_output_adapter@D@__crt_stdio_output@@@2@@__crt_stdio_output@@AEAA_NXZ 00000001801c669c f i libucrt:output.obj
 0001:001c569c       ?type_case_s@?$output_processor@DV?$string_output_adapter@D@__crt_stdio_output@@V?$format_validation_base@DV?$string_output_adapter@D@__crt_stdio_output@@@2@@__crt_stdio_output@@AEAA_NXZ 00000001801c669c f i libucrt:output.obj
 0001:001c569c       ?type_case_s@?$output_processor@DV?$string_output_adapter@D@__crt_stdio_output@@V?$standard_base@DV?$string_output_adapter@D@__crt_stdio_output@@@2@@__crt_stdio_output@@AEAA_NXZ 00000001801c669c f i libucrt:output.obj
 0001:001c5740       ?update_locale_slow@__crt_cached_ptd_host@@AEAAXXZ 00000001801c6740 f i libucrt:output.obj
 0001:001c57b8       ?validate_stream_is_ansi_if_required@?$__acrt_stdio_char_traits@D@@SA_NQEAU_iobuf@@@Z 00000001801c67b8 f i libucrt:output.obj
 0001:001c5854       ?write_string@?$string_output_adapter@D@__crt_stdio_output@@QEBAXQEBDHQEAHAEAV__crt_cached_ptd_host@@@Z 00000001801c6854 f i libucrt:output.obj
 0001:001c58f8       ?write_string_impl@?$output_adapter_common@DV?$stream_output_adapter@D@__crt_stdio_output@@@__crt_stdio_output@@IEBAXQEBDHQEAHAEAV__crt_cached_ptd_host@@@Z 00000001801c68f8 f i libucrt:output.obj
 0001:001c59c4       __stdio_common_vfprintf    00000001801c69c4 f   libucrt:output.obj
 0001:001c5ae8       __stdio_common_vsprintf    00000001801c6ae8 f   libucrt:output.obj
 0001:001c5d3c       __stdio_common_vsprintf_s  00000001801c6d3c f   libucrt:output.obj
 0001:001c5e50       _fpclass                   00000001801c6e50 f   libucrt:ieeemisc.obj
 0001:001c5ee0       powf                       00000001801c6ee0 f   libucrt:powf.obj
 0001:001c6da8       atan2f                     00000001801c7da8 f   libucrt:atan2f.obj
 0001:001c71a0       acosf                      00000001801c81a0 f   libucrt:acosf.obj
 0001:001c73cc       free                       00000001801c83cc f   libucrt:free.obj
 0001:001c73e0       _seh_filter_dll            00000001801c83e0 f   libucrt:exception_filter.obj
 0001:001c73f4       _seh_filter_exe            00000001801c83f4 f   libucrt:exception_filter.obj
 0001:001c7818       __acrt_initialize_thread_local_exit_callback 00000001801c8818 f   libucrt:exit.obj
 0001:001c7820       _cexit                     00000001801c8820 f   libucrt:exit.obj
 0001:001c7830       _exit                      00000001801c8830 f   libucrt:exit.obj
 0001:001c783c       _is_c_termination_complete 00000001801c883c f   libucrt:exit.obj
 0001:001c7a04       __acrt_allocate_buffer_for_argv 00000001801c8a04 f   libucrt:argv_parsing.obj
 0001:001c7a64       _configure_narrow_argv     00000001801c8a64 f   libucrt:argv_parsing.obj
 0001:001c7dec       __dcrt_uninitialize_environments_nolock 00000001801c8dec f   libucrt:environment_initialization.obj
 0001:001c7e30       _initialize_narrow_environment 00000001801c8e30 f   libucrt:environment_initialization.obj
 0001:001c8180       _crt_atexit                00000001801c9180 f   libucrt:onexit.obj
 0001:001c8190       _execute_onexit_table      00000001801c9190 f   libucrt:onexit.obj
 0001:001c81d4       _initialize_onexit_table   00000001801c91d4 f   libucrt:onexit.obj
 0001:001c81fc       _register_onexit_function  00000001801c91fc f   libucrt:onexit.obj
 0001:001c827c       __acrt_uninitialize_command_line 00000001801c927c f   libucrt:argv_data.obj
 0001:001c8374       __acrt_initialize          00000001801c9374 f   libucrt:initialization.obj
 0001:001c8388       __acrt_thread_attach       00000001801c9388 f   libucrt:initialization.obj
 0001:001c839c       __acrt_thread_detach       00000001801c939c f   libucrt:initialization.obj
 0001:001c83ac       __acrt_uninitialize        00000001801c93ac f   libucrt:initialization.obj
 0001:001c83e4       __acrt_uninitialize_critical 00000001801c93e4 f   libucrt:initialization.obj
 0001:001c83f4       _initterm                  00000001801c93f4 f   libucrt:initterm.obj
 0001:001c8438       _initterm_e                00000001801c9438 f   libucrt:initterm.obj
 0001:001c8480       terminate                  00000001801c9480 f   libucrt:terminate.obj
 0001:001c84ac       abort                      00000001801c94ac f   libucrt:abort.obj
 0001:001c8504       malloc                     00000001801c9504 f   libucrt:malloc.obj
 0001:001c850c       strcpy_s                   00000001801c950c f   libucrt:strcpy_s.obj
 0001:001c856c       ??$parse_integer@KV?$c_string_character_source@D@__crt_strtox@@$00@__crt_strtox@@YAKAEAV__crt_cached_ptd_host@@V?$c_string_character_source@D@0@H_N@Z 00000001801c956c f i libucrt:atox.obj
 0001:001c884c       _ischartype_l              00000001801c984c f i libucrt:atox.obj
 0001:001c88c4       atol                       00000001801c98c4 f   libucrt:atox.obj
 0001:001c8990       strncmp                    00000001801c9990 f   libucrt:strncmp.obj
 0001:001c8a10       calloc                     00000001801c9a10 f   libucrt:calloc.obj
 0001:001c8a18       wcsncmp                    00000001801c9a18 f   libucrt:wcsncmp.obj
 0001:001c8a50       __remainder_piby2d2f_forAsm 00000001801c9a50 f   libucrt:remainder_piby2f_forasm.obj
 0001:001c8ba0       __remainder_piby2_fma3     00000001801c9ba0 f   libucrt:remainder_piby2_forfma3.obj
 0001:001c8d90       __remainder_piby2_fma3_bdl 00000001801c9d90 f   libucrt:remainder_piby2_forfma3.obj
 0001:001c8e08       _cosf_special              00000001801c9e08 f   libucrt:sincos_special.obj
 0001:001c8ea8       _sinf_special              00000001801c9ea8 f   libucrt:sincos_special.obj
 0001:001c8ebc       _tanf_special              00000001801c9ebc f   libucrt:sincos_special.obj
 0001:001c8ed0       _clrfp                     00000001801c9ed0 f   libucrt:fpctrl.obj
 0001:001c8ef0       _ctrlfp                    00000001801c9ef0 f   libucrt:fpctrl.obj
 0001:001c8f6c       _set_statfp                00000001801c9f6c f   libucrt:fpctrl.obj
 0001:001c8f8c       _statfp                    00000001801c9f8c f   libucrt:fpctrl.obj
 0001:001c8fa0       __acrt_initialize_fma3     00000001801c9fa0 f   libucrt:fma3_available.obj
 0001:001c9010       __remainder_piby2d2f_forC  00000001801ca010 f   libucrt:remainder_piby2f_forc.obj
 0001:001c919c       ?get_raw_ptd_noexit@__crt_cached_ptd_host@@QEAAPEAU__acrt_ptd@@XZ 00000001801ca19c f i libucrt:invalid_parameter.obj
 0001:001c9208       ?value@?$dual_state_global@P6AXPEB_W00I_K@Z@__crt_state_management@@QEAAAEAP6AXPEB_W00I_K@ZAEAV__crt_cached_ptd_host@@@Z 00000001801ca208 f i libucrt:invalid_parameter.obj
 0001:001c9254       __acrt_call_reportfault    00000001801ca254 f   libucrt:invalid_parameter.obj
 0001:001c93b0       __acrt_initialize_invalid_parameter_handler 00000001801ca3b0 f   libucrt:invalid_parameter.obj
 0001:001c93b8       _invalid_parameter         00000001801ca3b8 f   libucrt:invalid_parameter.obj
 0001:001c9454       _invalid_parameter_internal 00000001801ca454 f   libucrt:invalid_parameter.obj
 0001:001c9524       _invalid_parameter_noinfo  00000001801ca524 f   libucrt:invalid_parameter.obj
 0001:001c9544       _invoke_watson             00000001801ca544 f   libucrt:invalid_parameter.obj
 0001:001c958c       __acrt_errno_from_os_error 00000001801ca58c f   libucrt:errno.obj
 0001:001c95d4       __acrt_errno_map_os_error  00000001801ca5d4 f   libucrt:errno.obj
 0001:001c961c       __acrt_errno_map_os_error_ptd 00000001801ca61c f   libucrt:errno.obj
 0001:001c9640       __doserrno                 00000001801ca640 f   libucrt:errno.obj
 0001:001c9660       _errno                     00000001801ca660 f   libucrt:errno.obj
 0001:001c9680       _calloc_base               00000001801ca680 f   libucrt:calloc_base.obj
 0001:001c96f8       _free_base                 00000001801ca6f8 f   libucrt:free_base.obj
 0001:001c98f4       __acrt_AppPolicyGetProcessTerminationMethodInternal 00000001801ca8f4 f   libucrt:winapi_thunks.obj
 0001:001c994c       __acrt_AreFileApisANSI     00000001801ca94c f   libucrt:winapi_thunks.obj
 0001:001c9990       __acrt_FlsAlloc            00000001801ca990 f   libucrt:winapi_thunks.obj
 0001:001c9998       __acrt_FlsFree             00000001801ca998 f   libucrt:winapi_thunks.obj
 0001:001c99a0       __acrt_FlsGetValue         00000001801ca9a0 f   libucrt:winapi_thunks.obj
 0001:001c99a8       __acrt_FlsSetValue         00000001801ca9a8 f   libucrt:winapi_thunks.obj
 0001:001c99b0       __acrt_InitializeCriticalSectionEx 00000001801ca9b0 f   libucrt:winapi_thunks.obj
 0001:001c9a20       __acrt_LCMapStringEx       00000001801caa20 f   libucrt:winapi_thunks.obj
 0001:001c9b0c       __acrt_LocaleNameToLCID    00000001801cab0c f   libucrt:winapi_thunks.obj
 0001:001c9b6c       __acrt_initialize_winapi_thunks 00000001801cab6c f   libucrt:winapi_thunks.obj
 0001:001c9b90       __acrt_uninitialize_winapi_thunks 00000001801cab90 f   libucrt:winapi_thunks.obj
 0001:001c9bd4       _fcloseall                 00000001801cabd4 f   libucrt:closeall.obj
 0001:001c9e64       __acrt_stdio_flush_nolock  00000001801cae64 f   libucrt:fflush.obj
 0001:001c9ef0       _fflush_nolock             00000001801caef0 f   libucrt:fflush.obj
 0001:001c9fc4       _flushall                  00000001801cafc4 f   libucrt:fflush.obj
 0001:001c9fcc       __acrt_stdio_free_buffer_nolock 00000001801cafcc f   libucrt:_freebuf.obj
 0001:001ca204       __acrt_initialize_lowio    00000001801cb204 f   libucrt:ioinit.obj
 0001:001ca240       __acrt_uninitialize_lowio  00000001801cb240 f   libucrt:ioinit.obj
 0001:001ca280       _malloc_base               00000001801cb280 f   libucrt:malloc_base.obj
 0001:001ca2e0       strnlen                    00000001801cb2e0 f   libucrt:strnlen.obj
 0001:001ca430       wcsnlen                    00000001801cb430 f   libucrt:strnlen.obj
 0001:001ca608       __acrt_update_locale_info  00000001801cb608 f   libucrt:locale_update.obj
 0001:001ca63c       __acrt_update_locale_info_explicit 00000001801cb63c f   libucrt:locale_update.obj
 0001:001ca674       __acrt_update_multibyte_info 00000001801cb674 f   libucrt:locale_update.obj
 0001:001ca6a8       __acrt_update_multibyte_info_explicit 00000001801cb6a8 f   libucrt:locale_update.obj
 0001:001cb210       __acrt_fp_format           00000001801cc210 f   libucrt:cvt.obj
 0001:001cb4f8       _wctomb_internal           00000001801cc4f8 f   libucrt:wctomb.obj
 0001:001cb6a8       _mbtowc_internal           00000001801cc6a8 f   libucrt:mbtowc.obj
 0001:001cb820       _fileno                    00000001801cc820 f   libucrt:fileno.obj
 0001:001cb848       _get_printf_count_output   00000001801cc848 f   libucrt:printf_count_output.obj
 0001:001cb860       _fputc_nolock_internal     00000001801cc860 f   libucrt:fputc.obj
 0001:001cb878       __acrt_should_use_temporary_buffer 00000001801cc878 f   libucrt:_sftbuf.obj
 0001:001cb8c0       __acrt_stdio_begin_temporary_buffering_nolock 00000001801cc8c0 f   libucrt:_sftbuf.obj
 0001:001cb988       __acrt_stdio_end_temporary_buffering_nolock 00000001801cc988 f   libucrt:_sftbuf.obj
 0001:001cbd3c       __acrt_freeptd             00000001801ccd3c f   libucrt:per_thread_data.obj
 0001:001cbd80       __acrt_getptd              00000001801ccd80 f   libucrt:per_thread_data.obj
 0001:001cbe54       __acrt_getptd_head         00000001801cce54 f   libucrt:per_thread_data.obj
 0001:001cbef8       __acrt_getptd_noexit       00000001801ccef8 f   libucrt:per_thread_data.obj
 0001:001cbfc0       __acrt_getptd_noexit_explicit 00000001801ccfc0 f   libucrt:per_thread_data.obj
 0001:001cc080       __acrt_initialize_ptd      00000001801cd080 f   libucrt:per_thread_data.obj
 0001:001cc0bc       __acrt_uninitialize_ptd    00000001801cd0bc f   libucrt:per_thread_data.obj
 0001:001cc150       __acrt_set_locale_changed  00000001801cd150 f   libucrt:wsetlocale.obj
 0001:001cc15c       __acrt_uninitialize_locale 00000001801cd15c f   libucrt:wsetlocale.obj
 0001:001cc2b0       _handle_error              00000001801cd2b0 f   libucrt:libm_error.obj
 0001:001cc3d8       _handle_errorf             00000001801cd3d8 f   libucrt:libm_error.obj
 0001:001cc50c       _handle_nan                00000001801cd50c f   libucrt:libm_error.obj
 0001:001cc528       _handle_nanf               00000001801cd528 f   libucrt:libm_error.obj
 0001:001cc540       _powf_special              00000001801cd540 f   libucrt:pow_special.obj
 0001:001cc690       __acrt_initialize_locks    00000001801cd690 f   libucrt:locks.obj
 0001:001cc6d8       __acrt_lock                00000001801cd6d8 f   libucrt:locks.obj
 0001:001cc6f4       __acrt_uninitialize_locks  00000001801cd6f4 f   libucrt:locks.obj
 0001:001cc72c       __acrt_unlock              00000001801cd72c f   libucrt:locks.obj
 0001:001cc748       __acrt_get_process_end_policy 00000001801cd748 f   libucrt:win_policies.obj
 0001:001cc798       ??$__acrt_convert_wcs_mbs_cp@D_WV<lambda_7c9dea7b4ca7285d2cdb541a38da6275>@@U__crt_win32_buffer_internal_dynamic_resizing@@@@YAHQEBDAEAV?$__crt_win32_buffer@_WU__crt_win32_buffer_internal_dynamic_resizing@@@@AEBV<lambda_7c9dea7b4ca7285d2cdb541a38da6275>@@I@Z 00000001801cd798 f i libucrt:argv_wildcards.obj
 0001:001cc914       ??$__acrt_convert_wcs_mbs_cp@_WDV<lambda_d8593a27d1aa8c02be35c86a17d324c4>@@U__crt_win32_buffer_internal_dynamic_resizing@@@@YAHQEB_WAEAV?$__crt_win32_buffer@DU__crt_win32_buffer_internal_dynamic_resizing@@@@AEBV<lambda_d8593a27d1aa8c02be35c86a17d324c4>@@I@Z 00000001801cd914 f i libucrt:argv_wildcards.obj
 0001:001cd1bc       ??0_LocaleUpdate@@QEAA@QEAU__crt_locale_pointers@@@Z 00000001801ce1bc f i libucrt:argv_wildcards.obj
 0001:001cd258       __acrt_expand_narrow_argv_wildcards 00000001801ce258 f   libucrt:argv_wildcards.obj
 0001:001cd260       ??$__acrt_convert_wcs_mbs_cp@_WDV<lambda_f788ae46380686e8b737efdd8c720d07>@@U__crt_win32_buffer_no_resizing@@@@YAHQEB_WAEAV?$__crt_win32_buffer@DU__crt_win32_buffer_no_resizing@@@@AEBV<lambda_f788ae46380686e8b737efdd8c720d07>@@I@Z 00000001801ce260 f i libucrt:getmodulefilenamea.obj
 0001:001cd37c       __acrt_GetModuleFileNameA  00000001801ce37c f   libucrt:getmodulefilenamea.obj
 0001:001cdc98       __acrt_initialize_multibyte 00000001801cec98 f   libucrt:mbctype.obj
 0001:001cdcf8       __acrt_update_thread_multibyte_data 00000001801cecf8 f   libucrt:mbctype.obj
 0001:001cdd14       _setmbcp_nolock            00000001801ced14 f   libucrt:mbctype.obj
 0001:001ce048       _ismbblead                 00000001801cf048 f   libucrt:ismbbyte.obj
 0001:001ce05c       __acrt_initialize_command_line 00000001801cf05c f   libucrt:argv_data.obj
 0001:001ce084       __acrt_MultiByteToWideChar 00000001801cf084 f   libucrt:multibytetowidechar.obj
 0001:001ce0e0       __acrt_WideCharToMultiByte 00000001801cf0e0 f   libucrt:widechartomultibyte.obj
 0001:001ce190       __dcrt_get_narrow_environment_from_os 00000001801cf190 f   libucrt:get_environment_from_os.obj
 0001:001ce2a0       _recalloc_base             00000001801cf2a0 f   libucrt:recalloc.obj
 0001:001ce338       __acrt_initialize_heap     00000001801cf338 f   libucrt:heap_handle.obj
 0001:001ce354       __acrt_uninitialize_heap   00000001801cf354 f   libucrt:heap_handle.obj
 0001:001ce360       __acrt_execute_initializers 00000001801cf360 f   libucrt:shared_initialization.obj
 0001:001ce3f4       __acrt_execute_uninitializers 00000001801cf3f4 f   libucrt:shared_initialization.obj
 0001:001ce43c       __acrt_initialize_new_handler 00000001801cf43c f   libucrt:new_handler.obj
 0001:001ce444       _callnewh                  00000001801cf444 f   libucrt:new_handler.obj
 0001:001ce480       _query_new_handler         00000001801cf480 f   libucrt:new_handler.obj
 0001:001ce4fc       __acrt_get_sigabrt_handler 00000001801cf4fc f   libucrt:signal.obj
 0001:001ce52c       __acrt_initialize_signal_handlers 00000001801cf52c f   libucrt:signal.obj
 0001:001ce54c       raise                      00000001801cf54c f   libucrt:signal.obj
 0001:001ce7cc       __acrt_has_user_matherr    00000001801cf7cc f   libucrt:matherr.obj
 0001:001ce7ec       __acrt_initialize_user_matherr 00000001801cf7ec f   libucrt:matherr.obj
 0001:001ce7f4       __acrt_invoke_user_matherr 00000001801cf7f4 f   libucrt:matherr.obj
 0001:001ce82c       __pctype_func              00000001801cf82c f   libucrt:ctype.obj
 0001:001ce85c       _isctype_l                 00000001801cf85c f   libucrt:isctype.obj
 0001:001ce980       _get_fpsr                  00000001801cf980 f   libucrt:fpsr.obj
 0001:001ce990       _set_fpsr                  00000001801cf990 f   libucrt:fpsr.obj
 0001:001ce99a       _fclrf                     00000001801cf99a f   libucrt:fpsr.obj
 0001:001ce9ae       _frnd                      00000001801cf9ae f   libucrt:fpsr.obj
 0001:001ce9d0       _query_new_mode            00000001801cf9d0 f   libucrt:new_mode.obj
 0001:001ce9d8       __acrt_DownlevelLocaleNameToLCID 00000001801cf9d8 f   libucrt:lcidtoname_downlevel.obj
 0001:001ceba0       fclose                     00000001801cfba0 f   libucrt:fclose.obj
 0001:001cecc4       _commit                    00000001801cfcc4 f   libucrt:commit.obj
 0001:001cf574       _write_internal            00000001801d0574 f   libucrt:write.obj
 0001:001cf69c       _write_nolock              00000001801d069c f   libucrt:write.obj
 0001:001cf9ac       __acrt_lowio_create_handle_array 00000001801d09ac f   libucrt:osfinfo.obj
 0001:001cfa54       __acrt_lowio_destroy_handle_array 00000001801d0a54 f   libucrt:osfinfo.obj
 0001:001cfaa4       __acrt_lowio_ensure_fh_exists 00000001801d0aa4 f   libucrt:osfinfo.obj
 0001:001cfb4c       __acrt_lowio_lock_fh       00000001801d0b4c f   libucrt:osfinfo.obj
 0001:001cfb74       __acrt_lowio_unlock_fh     00000001801d0b74 f   libucrt:osfinfo.obj
 0001:001cfb9c       _free_osfhnd               00000001801d0b9c f   libucrt:osfinfo.obj
 0001:001cfc58       _get_osfhandle             00000001801d0c58 f   libucrt:osfinfo.obj
 0001:001cfcd0       __acrt_add_locale_ref      00000001801d0cd0 f   libucrt:locale_refcounting.obj
 0001:001cfd5c       __acrt_free_locale         00000001801d0d5c f   libucrt:locale_refcounting.obj
 0001:001cfed4       __acrt_locale_add_lc_time_reference 00000001801d0ed4 f   libucrt:locale_refcounting.obj
 0001:001cfefc       __acrt_locale_free_lc_time_if_unreferenced 00000001801d0efc f   libucrt:locale_refcounting.obj
 0001:001cff34       __acrt_locale_release_lc_time_reference 00000001801d0f34 f   libucrt:locale_refcounting.obj
 0001:001cff5c       __acrt_release_locale_ref  00000001801d0f5c f   libucrt:locale_refcounting.obj
 0001:001d0004       __acrt_update_thread_locale_data 00000001801d1004 f   libucrt:locale_refcounting.obj
 0001:001d0074       _updatetlocinfoEx_nolock   00000001801d1074 f   libucrt:locale_refcounting.obj
 0001:001d00dc       __acrt_fp_strflt_to_string 00000001801d10dc f   libucrt:_fptostr.obj
 0001:001d0260       ?divide@__crt_strtox@@YA_KAEAUbig_integer@1@AEBU21@@Z 00000001801d1260 f i libucrt:cfout.obj
 0001:001d06ec       __acrt_fltout              00000001801d16ec f   libucrt:cfout.obj
 0001:001d19b4       fegetround                 00000001801d29b4 f   libucrt:fegetround.obj
 0001:001d19c8       ?__c32rtomb_utf8@__crt_mbstring@@YA_KPEAD_UPEAU_Mbstatet@@AEAV__crt_cached_ptd_host@@@Z 00000001801d29c8 f   libucrt:c32rtomb.obj
 0001:001d1a6c       ?__mbrtowc_utf8@__crt_mbstring@@YA_KPEA_WPEBD_KPEAU_Mbstatet@@AEAV__crt_cached_ptd_host@@@Z 00000001801d2a6c f   libucrt:mbrtowc.obj
 0001:001d1ab0       ?__mbsrtowcs_utf8@__crt_mbstring@@YA_KPEA_WPEAPEBD_KPEAU_Mbstatet@@AEAV__crt_cached_ptd_host@@@Z 00000001801d2ab0 f   libucrt:mbrtowc.obj
 0001:001d1dc8       __acrt_stdio_flush_and_write_narrow_nolock 00000001801d2dc8 f   libucrt:_flsbuf.obj
 0001:001d1e8c       _isatty                    00000001801d2e8c f   libucrt:isatty.obj
 0001:001d1eec       __acrt_locale_free_monetary 00000001801d2eec f   libucrt:initmon.obj
 0001:001d1ff8       __acrt_locale_free_numeric 00000001801d2ff8 f   libucrt:initnum.obj
 0001:001d2098       __acrt_locale_free_time    00000001801d3098 f   libucrt:inittime.obj
 0001:001d21a0       __acrt_GetStringTypeA      00000001801d31a0 f   libucrt:getstringtypea.obj
 0001:001d233c       _raise_exc                 00000001801d333c f   libucrt:fpexcept.obj
 0001:001d2364       _raise_exc_ex              00000001801d3364 f   libucrt:fpexcept.obj
 0001:001d2674       _raise_excf                00000001801d3674 f   libucrt:fpexcept.obj
 0001:001d26a0       _set_errno_from_matherr    00000001801d36a0 f   libucrt:fpexcept.obj
 0001:001d26d0       qsort                      00000001801d36d0 f   libucrt:qsort.obj
 0001:001d2ae0       strncpy_s                  00000001801d3ae0 f   libucrt:strncpy_s.obj
 0001:001d2c70       strpbrk                    00000001801d3c70 f   libucrt:strpbrk.obj
 0001:001d3038       _mbsdec                    00000001801d4038 f   libucrt:mbsdec.obj
 0001:001d3040       _mbsdec_l                  00000001801d4040 f   libucrt:mbsdec.obj
 0001:001d33f4       __acrt_LCMapStringA        00000001801d43f4 f   libucrt:lcmapstringa.obj
 0001:001d34a4       _msize_base                00000001801d44a4 f   libucrt:msize.obj
 0001:001d34e0       _realloc_base              00000001801d44e0 f   libucrt:realloc_base.obj
 0001:001d355c       __ascii_wcsnicmp           00000001801d455c f   libucrt:wcsnicmp.obj
 0001:001d3620       _close_internal            00000001801d4620 f   libucrt:close.obj
 0001:001d36e4       _close_nolock_internal     00000001801d46e4 f   libucrt:close.obj
 0001:001d37b4       ?__acrt_stdio_free_stream@@YAXV__crt_stdio_stream@@@Z 00000001801d47b4 f   libucrt:stream.obj
 0001:001d39a4       _lseeki64                  00000001801d49a4 f   libucrt:lseek.obj
 0001:001d3a40       _lseeki64_nolock_internal  00000001801d4a40 f   libucrt:lseek.obj
 0001:001d3a48       _putwch_nolock             00000001801d4a48 f   libucrt:putwch.obj
 0001:001d3a84       _query_app_type            00000001801d4a84 f   libucrt:report_runtime_error.obj
 0001:001d3a8c       _controlfp_s               00000001801d4a8c f   libucrt:contrlfp.obj
 0001:001d3af0       fegetenv                   00000001801d4af0 f   libucrt:fegetenv.obj
 0001:001d3b10       fesetenv                   00000001801d4b10 f   libucrt:fesetenv.obj
 0001:001d3b5c       feholdexcept               00000001801d4b5c f   libucrt:feholdexcept.obj
 0001:001d3bac       ceil                       00000001801d4bac f   libucrt:ceil.obj
 0001:001d3c70       log10                      00000001801d4c70 f   libucrt:log10.obj
 0001:001d421c       __acrt_fenv_get_common_round_control 00000001801d521c f   libucrt:_fenvutils.obj
 0001:001d4228       __acrt_fenv_get_control    00000001801d5228 f   libucrt:_fenvutils.obj
 0001:001d430c       __acrt_fenv_get_status     00000001801d530c f   libucrt:_fenvutils.obj
 0001:001d4364       __acrt_fenv_set_control    00000001801d5364 f   libucrt:_fenvutils.obj
 0001:001d44a0       __acrt_fenv_set_status     00000001801d54a0 f   libucrt:_fenvutils.obj
 0001:001d4514       ?reset_and_return@__crt_mbstring@@YA_K_KPEAU_Mbstatet@@@Z 00000001801d5514 f   libucrt:common_utf8.obj
 0001:001d451c       ?return_illegal_sequence@__crt_mbstring@@YA_KPEAU_Mbstatet@@AEAV__crt_cached_ptd_host@@@Z 00000001801d551c f   libucrt:common_utf8.obj
 0001:001d4530       ?__mbrtoc32_utf8@__crt_mbstring@@YA_KPEA_UPEBD_KPEAU_Mbstatet@@AEAV__crt_cached_ptd_host@@@Z 00000001801d5530 f   libucrt:mbrtoc32.obj
 0001:001d470c       __acrt_stdio_allocate_buffer_nolock 00000001801d570c f   libucrt:_getbuf.obj
 0001:001d4778       __strncnt                  00000001801d5778 f   libucrt:strncnt.obj
 0001:001d4790       __dcrt_lowio_ensure_console_output_initialized 00000001801d5790 f   libucrt:initcon.obj
 0001:001d47e4       __dcrt_terminate_console_output 00000001801d57e4 f   libucrt:initcon.obj
 0001:001d4800       __dcrt_write_console       00000001801d5800 f   libucrt:initcon.obj
 0001:001d48c0       _clearfp                   00000001801d58c0 f   libucrt:ieee.obj
 0001:001d4930       _control87                 00000001801d5930 f   libucrt:ieee.obj
 0001:001d4c00       _log10_special             00000001801d5c00 f   libucrt:log_special.obj
 0001:001d4cc0       _FindPESection             00000001801d5cc0 f   LIBCMT:pesect.obj
 0001:001d4d10       _IsNonwritableInCurrentImage 00000001801d5d10 f   LIBCMT:pesect.obj
 0001:001d4d60       _ValidateImageBase         00000001801d5d60 f   LIBCMT:pesect.obj
 0001:001d4d8c       __GSHandlerCheck           00000001801d5d8c f   LIBCMT:gshandler.obj
 0001:001d4dac       __GSHandlerCheckCommon     00000001801d5dac f   LIBCMT:gshandler.obj
 0001:001d4e20       __security_check_cookie    00000001801d5e20 f   LIBCMT:amdsecgs.obj
 0001:001d4e40       __GSHandlerCheck_SEH       00000001801d5e40 f   LIBCMT:gshandlerseh.obj
 0001:001d4ec8       __raise_securityfailure    00000001801d5ec8 f   LIBCMT:gs_report.obj
 0001:001d4efc       __report_gsfailure         00000001801d5efc f   LIBCMT:gs_report.obj
 0001:001d4fd0       __report_rangecheckfailure 00000001801d5fd0 f   LIBCMT:gs_report.obj
 0001:001d4fe4       __report_securityfailure   00000001801d5fe4 f   LIBCMT:gs_report.obj
 0001:001d5164       __GSHandlerCheck_EH        00000001801d6164 f   LIBCMT:gshandlereh.obj
 0001:001d51e4       __C_specific_handler_noexcept 00000001801d61e4 f   libvcruntime:chandler_noexcept.obj
 0001:001d5230       strrchr                    00000001801d6230 f   libvcruntime:strrchr.obj
 0001:001d5380       memcmp                     00000001801d6380 f   libvcruntime:memcmp.obj
 0001:001d5460       _guard_dispatch_icall_nop  00000001801d6460 f   LIBCMT:guard_dispatch.obj
 0001:001d5480       _guard_xfg_dispatch_icall_nop 00000001801d6480 f   LIBCMT:guard_xfg_dispatch.obj
 0002:00000000       __imp_GetLastError         00000001801d7000     kernel32:KERNEL32.dll
 0002:00000008       __imp_FreeLibrary          00000001801d7008     kernel32:KERNEL32.dll
 0002:00000010       __imp_GetProcAddress       00000001801d7010     kernel32:KERNEL32.dll
 0002:00000018       __imp_LoadLibraryA         00000001801d7018     kernel32:KERNEL32.dll
 0002:00000020       __imp_WriteConsoleW        00000001801d7020     kernel32:KERNEL32.dll
 0002:00000028       __imp_RaiseException       00000001801d7028     kernel32:KERNEL32.dll
 0002:00000030       __imp_GetSystemInfo        00000001801d7030     kernel32:KERNEL32.dll
 0002:00000038       __imp_VirtualProtect       00000001801d7038     kernel32:KERNEL32.dll
 0002:00000040       __imp_VirtualQuery         00000001801d7040     kernel32:KERNEL32.dll
 0002:00000048       __imp_GetModuleHandleW     00000001801d7048     kernel32:KERNEL32.dll
 0002:00000050       __imp_LoadLibraryExA       00000001801d7050     kernel32:KERNEL32.dll
 0002:00000058       __imp_InitializeSListHead  00000001801d7058     kernel32:KERNEL32.dll
 0002:00000060       __imp_RtlCaptureContext    00000001801d7060     kernel32:KERNEL32.dll
 0002:00000068       __imp_RtlLookupFunctionEntry 00000001801d7068     kernel32:KERNEL32.dll
 0002:00000070       __imp_RtlVirtualUnwind     00000001801d7070     kernel32:KERNEL32.dll
 0002:00000078       __imp_IsDebuggerPresent    00000001801d7078     kernel32:KERNEL32.dll
 0002:00000080       __imp_UnhandledExceptionFilter 00000001801d7080     kernel32:KERNEL32.dll
 0002:00000088       __imp_SetUnhandledExceptionFilter 00000001801d7088     kernel32:KERNEL32.dll
 0002:00000090       __imp_GetStartupInfoW      00000001801d7090     kernel32:KERNEL32.dll
 0002:00000098       __imp_IsProcessorFeaturePresent 00000001801d7098     kernel32:KERNEL32.dll
 0002:000000a0       __imp_QueryPerformanceCounter 00000001801d70a0     kernel32:KERNEL32.dll
 0002:000000a8       __imp_GetCurrentProcessId  00000001801d70a8     kernel32:KERNEL32.dll
 0002:000000b0       __imp_GetCurrentThreadId   00000001801d70b0     kernel32:KERNEL32.dll
 0002:000000b8       __imp_GetSystemTimeAsFileTime 00000001801d70b8     kernel32:KERNEL32.dll
 0002:000000c0       __imp_InterlockedPushEntrySList 00000001801d70c0     kernel32:KERNEL32.dll
 0002:000000c8       __imp_InterlockedFlushSList 00000001801d70c8     kernel32:KERNEL32.dll
 0002:000000d0       __imp_RtlUnwindEx          00000001801d70d0     kernel32:KERNEL32.dll
 0002:000000d8       __imp_SetLastError         00000001801d70d8     kernel32:KERNEL32.dll
 0002:000000e0       __imp_EnterCriticalSection 00000001801d70e0     kernel32:KERNEL32.dll
 0002:000000e8       __imp_LeaveCriticalSection 00000001801d70e8     kernel32:KERNEL32.dll
 0002:000000f0       __imp_DeleteCriticalSection 00000001801d70f0     kernel32:KERNEL32.dll
 0002:000000f8       __imp_InitializeCriticalSectionAndSpinCount 00000001801d70f8     kernel32:KERNEL32.dll
 0002:00000100       __imp_TlsAlloc             00000001801d7100     kernel32:KERNEL32.dll
 0002:00000108       __imp_TlsGetValue          00000001801d7108     kernel32:KERNEL32.dll
 0002:00000110       __imp_TlsSetValue          00000001801d7110     kernel32:KERNEL32.dll
 0002:00000118       __imp_TlsFree              00000001801d7118     kernel32:KERNEL32.dll
 0002:00000120       __imp_LoadLibraryExW       00000001801d7120     kernel32:KERNEL32.dll
 0002:00000128       __imp_EncodePointer        00000001801d7128     kernel32:KERNEL32.dll
 0002:00000130       __imp_RtlPcToFileHeader    00000001801d7130     kernel32:KERNEL32.dll
 0002:00000138       __imp_RtlUnwind            00000001801d7138     kernel32:KERNEL32.dll
 0002:00000140       __imp_GetCurrentProcess    00000001801d7140     kernel32:KERNEL32.dll
 0002:00000148       __imp_ExitProcess          00000001801d7148     kernel32:KERNEL32.dll
 0002:00000150       __imp_TerminateProcess     00000001801d7150     kernel32:KERNEL32.dll
 0002:00000158       __imp_GetModuleHandleExW   00000001801d7158     kernel32:KERNEL32.dll
 0002:00000160       __imp_GetModuleFileNameW   00000001801d7160     kernel32:KERNEL32.dll
 0002:00000168       __imp_HeapAlloc            00000001801d7168     kernel32:KERNEL32.dll
 0002:00000170       __imp_HeapFree             00000001801d7170     kernel32:KERNEL32.dll
 0002:00000178       __imp_FlsAlloc             00000001801d7178     kernel32:KERNEL32.dll
 0002:00000180       __imp_FlsGetValue          00000001801d7180     kernel32:KERNEL32.dll
 0002:00000188       __imp_FlsSetValue          00000001801d7188     kernel32:KERNEL32.dll
 0002:00000190       __imp_FlsFree              00000001801d7190     kernel32:KERNEL32.dll
 0002:00000198       __imp_LCMapStringW         00000001801d7198     kernel32:KERNEL32.dll
 0002:000001a0       __imp_GetStdHandle         00000001801d71a0     kernel32:KERNEL32.dll
 0002:000001a8       __imp_GetFileType          00000001801d71a8     kernel32:KERNEL32.dll
 0002:000001b0       __imp_FindClose            00000001801d71b0     kernel32:KERNEL32.dll
 0002:000001b8       __imp_FindFirstFileExW     00000001801d71b8     kernel32:KERNEL32.dll
 0002:000001c0       __imp_FindNextFileW        00000001801d71c0     kernel32:KERNEL32.dll
 0002:000001c8       __imp_IsValidCodePage      00000001801d71c8     kernel32:KERNEL32.dll
 0002:000001d0       __imp_GetACP               00000001801d71d0     kernel32:KERNEL32.dll
 0002:000001d8       __imp_GetOEMCP             00000001801d71d8     kernel32:KERNEL32.dll
 0002:000001e0       __imp_GetCPInfo            00000001801d71e0     kernel32:KERNEL32.dll
 0002:000001e8       __imp_GetCommandLineA      00000001801d71e8     kernel32:KERNEL32.dll
 0002:000001f0       __imp_GetCommandLineW      00000001801d71f0     kernel32:KERNEL32.dll
 0002:000001f8       __imp_MultiByteToWideChar  00000001801d71f8     kernel32:KERNEL32.dll
 0002:00000200       __imp_WideCharToMultiByte  00000001801d7200     kernel32:KERNEL32.dll
 0002:00000208       __imp_GetEnvironmentStringsW 00000001801d7208     kernel32:KERNEL32.dll
 0002:00000210       __imp_FreeEnvironmentStringsW 00000001801d7210     kernel32:KERNEL32.dll
 0002:00000218       __imp_GetProcessHeap       00000001801d7218     kernel32:KERNEL32.dll
 0002:00000220       __imp_FlushFileBuffers     00000001801d7220     kernel32:KERNEL32.dll
 0002:00000228       __imp_WriteFile            00000001801d7228     kernel32:KERNEL32.dll
 0002:00000230       __imp_GetConsoleOutputCP   00000001801d7230     kernel32:KERNEL32.dll
 0002:00000238       __imp_GetConsoleMode       00000001801d7238     kernel32:KERNEL32.dll
 0002:00000240       __imp_SetStdHandle         00000001801d7240     kernel32:KERNEL32.dll
 0002:00000248       __imp_GetFileSizeEx        00000001801d7248     kernel32:KERNEL32.dll
 0002:00000250       __imp_SetFilePointerEx     00000001801d7250     kernel32:KERNEL32.dll
 0002:00000258       __imp_GetStringTypeW       00000001801d7258     kernel32:KERNEL32.dll
 0002:00000260       __imp_HeapSize             00000001801d7260     kernel32:KERNEL32.dll
 0002:00000268       __imp_HeapReAlloc          00000001801d7268     kernel32:KERNEL32.dll
 0002:00000270       __imp_CloseHandle          00000001801d7270     kernel32:KERNEL32.dll
 0002:00000278       __imp_CreateFileW          00000001801d7278     kernel32:KERNEL32.dll
 0002:00000280       \177KERNEL32_NULL_THUNK_DATA 00000001801d7280     kernel32:KERNEL32.dll
 0002:00000288       __guard_check_icall_fptr   00000001801d7288     LIBCMT:guard_support.obj
 0002:00000290       __guard_xfg_check_icall_fptr 00000001801d7290     LIBCMT:guard_support.obj
 0002:00000298       __guard_dispatch_icall_fptr 00000001801d7298     LIBCMT:guard_support.obj
 0002:000002a0       __guard_xfg_dispatch_icall_fptr 00000001801d72a0     LIBCMT:guard_support.obj
 0002:000002a8       __guard_xfg_table_dispatch_icall_fptr 00000001801d72a8     LIBCMT:guard_support.obj
 0002:000002b0       __castguard_check_failure_os_handled_fptr 00000001801d72b0     LIBCMT:guard_support.obj
 0002:000002b8       __guard_memcpy_fptr        00000001801d72b8     libvcruntime:softmemtag.obj
 0002:000002c0       __xc_a                     00000001801d72c0     LIBCMT:initializers.obj
 0002:00001c98       __xc_z                     00000001801d8c98     LIBCMT:initializers.obj
 0002:00001ca0       __xi_a                     00000001801d8ca0     LIBCMT:initializers.obj
 0002:00001ca8       __acrt_stdio_initializer   00000001801d8ca8     libucrt:stdio_initializer.obj
 0002:00001cb0       __acrt_tran_fma3_initializer 00000001801d8cb0     libucrt:fma3_initializer.obj
 0002:00001cb8       __acrt_multibyte_initializer 00000001801d8cb8     libucrt:multibyte_initializer.obj
 0002:00001cc0       __xi_z                     00000001801d8cc0     LIBCMT:initializers.obj
 0002:00001cc8       __xp_a                     00000001801d8cc8     LIBCMT:initializers.obj
 0002:00001cd0       __acrt_locale_terminator   00000001801d8cd0     libucrt:locale_initializer.obj
 0002:00001cd8       __dcrt_console_output_terminator 00000001801d8cd8     libucrt:console_output_initializer.obj
 0002:00001ce0       __acrt_stdio_terminator    00000001801d8ce0     libucrt:stdio_initializer.obj
 0002:00001ce8       __xp_z                     00000001801d8ce8     LIBCMT:initializers.obj
 0002:00001cf0       __xt_a                     00000001801d8cf0     LIBCMT:initializers.obj
 0002:00001cf8       __xt_z                     00000001801d8cf8     LIBCMT:initializers.obj
 0002:00001d00       ??_C@_08MDGMHCHN@PtrTable@ 00000001801d8d00     CmPtrTable.obj
 0002:00001d0c       ??_C@_04GKJNKENE@void@     00000001801d8d0c     CmPtrTable.obj
 0002:00001d18       ??_C@_07DFEBJDHE@mSingle@  00000001801d8d18     CmPtrTable.obj
 0002:00001d20       ??_C@_05NLHHBMOH@PxU16@    00000001801d8d20     CmPtrTable.obj
 0002:00001d28       ??_C@_06EPKHJPIM@mCount@   00000001801d8d28     CmPtrTable.obj
 0002:00001d30       ??_C@_04DDKJGDCM@bool@     00000001801d8d30     CmPtrTable.obj
 0002:00001d38       ??_C@_0M@DAGELID@mOwnsMemory@ 00000001801d8d38     CmPtrTable.obj
 0002:00001d48       ??_C@_0M@MMPOMMLP@mBufferUsed@ 00000001801d8d48     CmPtrTable.obj
 0002:00001d54       ??_C@_05LMJPANIN@PxU32@    00000001801d8d54     CmPtrTable.obj
 0002:00001d60       ??_C@_09PMLNMEMN@mFreeSlot@ 00000001801d8d60     CmPtrTable.obj
 0002:00001d70       ??_7PxCollection@physx@@6B@ 00000001801d8d70     CmCollection.obj
 0002:00001df0       ??_C@_00CNPNBAHC@@         00000001801d8df0     CmCollection.obj
 0002:00001df8       ??_7Collection@Cm@physx@@6B@ 00000001801d8df8     CmCollection.obj
 0002:00001e80       ??_C@_0GE@GBACBMOC@PxCollection?3?3add?5called?5for?5an@ 00000001801d8e80     CmCollection.obj
 0002:00001ef0       ??_C@_0EN@LJLEEMFM@C?3?2Users?2KOCCA48?2Desktop?2PhysX?9@ 00000001801d8ef0     CmCollection.obj
 0002:00001f40       ??_C@_0EM@OMMGDOMK@PxCollection?3?3add?5called?5with?5a@ 00000001801d8f40     CmCollection.obj
 0002:00001f90       ??_C@_0EP@PHKENNBB@C?3?2Users?2KOCCA48?2Desktop?2PhysX?9@ 00000001801d8f90     CmCollection.obj
 0002:00001fe0       ??_C@_0BM@OIFKLHDN@?$DMallocation?5names?5disabled?$DO@ 00000001801d8fe0     CmCollection.obj
 0002:00002000       ??_7RadixSort@Cm@physx@@6B@ 00000001801d9000     CmRadixSort.obj
 0002:00002008       ??_7RadixSortBuffered@Cm@physx@@6B@ 00000001801d9008     CmRadixSort.obj
 0002:00002010       ??_C@_0EM@KAIDHEH@C?3?2Users?2KOCCA48?2Desktop?2PhysX?9@ 00000001801d9010     CmRadixSort.obj
 0002:00002060       __xmm@00000001000000010000000100000001 00000001801d9060     CmRadixSort.obj
 0002:00002070       __xmm@00000003000000020000000100000000 00000001801d9070     CmRadixSort.obj
 0002:00002080       __real@3d4ccccd            00000001801d9080     CmVisualization.obj
 0002:00002084       __real@3e19999a            00000001801d9084     CmVisualization.obj
 0002:00002088       __real@3e490fdb            00000001801d9088     CmVisualization.obj
 0002:0000208c       __real@3e800000            00000001801d908c     CmVisualization.obj
 0002:00002090       __real@3e99999a            00000001801d9090     CmVisualization.obj
 0002:00002094       __real@3ea0d97c            00000001801d9094     CmVisualization.obj
 0002:00002098       __real@3eddb3d7            00000001801d9098     CmVisualization.obj
 0002:0000209c       __real@3f3504f3            00000001801d909c     CmVisualization.obj
 0002:000020a0       __real@3f800000            00000001801d90a0     CmVisualization.obj
 0002:000020a4       __real@3fc00000            00000001801d90a4     CmVisualization.obj
 0002:000020a8       __real@3fddb3d7            00000001801d90a8     CmVisualization.obj
 0002:000020ac       __real@40100000            00000001801d90ac     CmVisualization.obj
 0002:000020b0       __real@40c90fdb            00000001801d90b0     CmVisualization.obj
 0002:000020b4       __real@bfddb3d7            00000001801d90b4     CmVisualization.obj
 0002:000020b8       __real@c0000000            00000001801d90b8     CmVisualization.obj
 0002:000020c0       __xmm@3f800000000000000000000000000000 00000001801d90c0     CmVisualization.obj
 0002:000020d0       __xmm@7fffffff7fffffff7fffffff7fffffff 00000001801d90d0     CmVisualization.obj
 0002:000020e0       __xmm@80000000800000008000000080000000 00000001801d90e0     CmVisualization.obj
 0002:000020f0       ??_C@_0BB@CPDDPFKD@GetUpdatedModule@ 00000001801d90f0     CmWindowsModuleUpdateLoader.obj
 0002:00002110       ??_C@_0GE@LOPKMLGI@C?3?2Users?2KOCCA48?2Desktop?2PhysX?9@ 00000001801d9110     CmWindowsModuleUpdateLoader.obj
 0002:00002178       ??_C@_0CP@PGOIOJOO@?$CFs?3?$CFi?3?5loadLibrary?5error?5when?5l@ 00000001801d9178     CmWindowsModuleUpdateLoader.obj
 0002:000021a8       ??_C@_0BA@EGLNOO@PhysXFoundation@ 00000001801d91a8     CmWindowsDelayLoadHook.obj
 0002:000021b8       ??_C@_0M@ILKNCJKN@PhysXCommon@ 00000001801d91b8     CmWindowsDelayLoadHook.obj
 0002:000021f0       __real@3f000000            00000001801d91f0     GuBox.obj
 0002:000021f4       __real@3f7ff972            00000001801d91f4     GuBox.obj
 0002:00002200       __xmm@000000003a83126f3a83126f3a83126f 00000001801d9200     GuBox.obj
 0002:00002210       __xmm@00000000ba83126fba83126fba83126f 00000001801d9210     GuBox.obj
 0002:00002220       __xmm@3a83126f3a83126f3a83126f3a83126f 00000001801d9220     GuBox.obj
 0002:00002230       __xmm@ba83126fba83126fba83126fba83126f 00000001801d9230     GuBox.obj
 0002:00002260       ??_7EntityReport@Gu@physx@@6B@ 00000001801d9260     GuSweepsHF.obj
 0002:00002260       ??_7OverlapCallback@PxBVH@physx@@6B@ 00000001801d9260     GuQuerySystem.obj
 0002:00002260       ??_7OverlapReport@Gu@physx@@6B@ 00000001801d9260     GuCCTSweepTests.obj
 0002:00002260       ??_7RaycastCallback@PxBVH@physx@@6B@ 00000001801d9260     GuQuerySystem.obj
 0002:00002260       ??_7RemapCallback@RTreeCooker@physx@@6B@ 00000001801d9260     GuCookingTriangleMesh.obj
 0002:00002280       __real@3b03126f            00000001801d9280     GuCCTSweepTests.obj
 0002:00002284       __real@40000000            00000001801d9284     GuCCTSweepTests.obj
 0002:000022c0       ??_7SupportLocal@Gu@physx@@6B@ 00000001801d92c0     GuGeometryQuery.obj
 0002:000022e0       ??_7?$SupportLocalImpl@VBoxV@Gu@physx@@@Gu@physx@@6B@ 00000001801d92e0     GuGeometryQuery.obj
 0002:00002300       ??_7?$SupportLocalImpl@VConvexHullV@Gu@physx@@@Gu@physx@@6B@ 00000001801d9300     GuGeometryQuery.obj
 0002:00002320       ??_C@_0EH@IMAFAIK@C?3?2Users?2KOCCA48?2Desktop?2PhysX?9@ 00000001801d9320     GuGeometryQuery.obj
 0002:00002368       __real@30d1b7e9            00000001801d9368     GuGeometryQuery.obj
 0002:0000236c       __real@322bcc77            00000001801d936c     GuGeometryQuery.obj
 0002:00002370       __real@358637bd            00000001801d9370     GuGeometryQuery.obj
 0002:00002374       __real@3a83126f            00000001801d9374     GuGeometryQuery.obj
 0002:00002378       __real@3ccccccd            00000001801d9378     GuGeometryQuery.obj
 0002:0000237c       __real@3dcccccd            00000001801d937c     GuGeometryQuery.obj
 0002:00002380       __real@49742400            00000001801d9380     GuGeometryQuery.obj
 0002:00002384       __real@7f7fffff            00000001801d9384     GuGeometryQuery.obj
 0002:00002388       __real@bf800000            00000001801d9388     GuGeometryQuery.obj
 0002:00002390       __xmm@0000000000000000000000003f800000 00000001801d9390     GuGeometryQuery.obj
 0002:000023a0       __xmm@00000000000000003f80000000000000 00000001801d93a0     GuGeometryQuery.obj
 0002:000023b0       __xmm@00000000000000003f8000003f800000 00000001801d93b0     GuGeometryQuery.obj
 0002:000023c0       __xmm@000000003f8000000000000000000000 00000001801d93c0     GuGeometryQuery.obj
 0002:000023d0       __xmm@000000003f8000003f8000003f800000 00000001801d93d0     GuGeometryQuery.obj
 0002:000023e0       __xmm@00000000ffffffffffffffffffffffff 00000001801d93e0     GuGeometryQuery.obj
 0002:000023f0       __xmm@3d4ccccd3d4ccccd3d4ccccd3d4ccccd 00000001801d93f0     GuGeometryQuery.obj
 0002:00002400       __xmm@3e19999a3e19999a3e19999a3e19999a 00000001801d9400     GuGeometryQuery.obj
 0002:00002410       __xmm@3e4ccccd3e4ccccd3e4ccccd3e4ccccd 00000001801d9410     GuGeometryQuery.obj
 0002:00002420       __xmm@3e8000003e8000003e8000003e800000 00000001801d9420     GuGeometryQuery.obj
 0002:00002430       __xmm@3f7ef9db3f7ef9db3f7ef9db3f7ef9db 00000001801d9430     GuGeometryQuery.obj
 0002:00002440       __xmm@3f7ff2e53f7ff2e53f7ff2e53f7ff2e5 00000001801d9440     GuGeometryQuery.obj
 0002:00002450       __xmm@3f8000003f8000003f8000003f800000 00000001801d9450     GuGeometryQuery.obj
 0002:00002460       __xmm@7f7fffff7f7fffff7f7fffff7f7fffff 00000001801d9460     GuGeometryQuery.obj
 0002:00002470       __xmm@bf000000bf000000bf000000bf000000 00000001801d9470     GuGeometryQuery.obj
 0002:000024a0       ??_C@_0FB@CJMNHIAP@C?3?2Users?2KOCCA48?2Desktop?2PhysX?9@ 00000001801d94a0     GuMeshFactory.obj
 0002:00002510       ??_C@_0EM@BDFDGBD@Inserting?5object?5failed?3?5Object@ 00000001801d9510     GuMeshFactory.obj
 0002:00002580       ??_7CallbackRaycast@RTree@Gu@physx@@6B@ 00000001801d9580     GuMidphaseRTree.obj
 0002:00002580       ??_7CallbackRefit@RTree@Gu@physx@@6B@ 00000001801d9580     GuTriangleMeshRTree.obj
 0002:00002580       ??_7PxInsertionCallback@physx@@6B@ 00000001801d9580     GuMeshFactory.obj
 0002:00002590       ??_7PxCollisionMeshMappingData@physx@@6B@ 00000001801d9590     GuMeshFactory.obj
 0002:000025a0       ??_7MeshFactory@Gu@physx@@6B@ 00000001801d95a0     GuMeshFactory.obj
 0002:000025a8       ??_7MeshDataBase@Gu@physx@@6B@ 00000001801d95a8     GuMeshFactory.obj
 0002:000025b0       ??_C@_0FB@MHBLHGII@C?3?2Users?2KOCCA48?2Desktop?2PhysX?9@ 00000001801d95b0     GuMeshFactory.obj
 0002:00002608       ??_7TriangleMeshData@Gu@physx@@6B@ 00000001801d9608     GuMeshFactory.obj
 0002:00002610       ??_7RTreeTriangleData@Gu@physx@@6B@ 00000001801d9610     GuMeshFactory.obj
 0002:00002618       ??_7BV4TriangleData@Gu@physx@@6B@ 00000001801d9618     GuMeshFactory.obj
 0002:00002620       ??_7SoftBodyCollisionData@Gu@physx@@6B@ 00000001801d9620     GuMeshFactory.obj
 0002:00002628       ??_7CollisionMeshMappingData@Gu@physx@@6B@ 00000001801d9628     GuMeshFactory.obj
 0002:00002638       ??_7SoftBodySimulationData@Gu@physx@@6B@ 00000001801d9638     GuMeshFactory.obj
 0002:00002640       ??_C@_0GP@NHELMDAL@Loading?5triangle?5mesh?5failed?3?5D@ 00000001801d9640     GuMeshFactory.obj
 0002:000026b0       ??_C@_0BP@CDOKDACA@RTree?5binary?5image?5load?5error?4@ 00000001801d96b0     GuMeshFactory.obj
 0002:000026d0       ??_C@_0BN@MJPNIELF@BV4?5binary?5image?5load?5error?4@ 00000001801d96d0     GuMeshFactory.obj
 0002:000026f0       ??_C@_0BO@JDPABAOF@BV32?5binary?5image?5load?5error?4@ 00000001801d96f0     GuMeshFactory.obj
 0002:00002710       ??_C@_0EH@BKNFJPD@C?3?2Users?2KOCCA48?2Desktop?2PhysX?9@ 00000001801d9710     GuMeshFactory.obj
 0002:00002760       __xmm@fe7fffff7e7fffff7e7fffff7e7fffff 00000001801d9760     GuMeshFactory.obj
 0002:00002790       ??_C@_06EJKDJEDO@PxBase@   00000001801d9790     GuMetaData.obj
 0002:00002798       ??_C@_07GFCEJNGM@Valency@  00000001801d9798     GuMetaData.obj
 0002:000027a0       ??_C@_07NHGKEEIN@mOffset@  00000001801d97a0     GuMetaData.obj
 0002:000027a8       ??_C@_0BB@BAGHBMNJ@BigConvexRawData@ 00000001801d97a8     GuMetaData.obj
 0002:000027c0       ??_C@_07PBDEJAAC@mSubdiv@  00000001801d97c0     GuMetaData.obj
 0002:000027c8       ??_C@_0L@HNPACPGH@mNbSamples@ 00000001801d97c8     GuMetaData.obj
 0002:000027d4       ??_C@_04NCKNBPPK@PxU8@     00000001801d97d4     GuMetaData.obj
 0002:000027e0       ??_C@_08DEPEKJNI@mSamples@ 00000001801d97e0     GuMetaData.obj
 0002:000027f0       ??_C@_08IJDNJBMI@mNbVerts@ 00000001801d97f0     GuMetaData.obj
 0002:00002800       ??_C@_0M@MMKMIJAF@mNbAdjVerts@ 00000001801d9800     GuMetaData.obj
 0002:00002810       ??_C@_0L@EOKMNILC@mValencies@ 00000001801d9810     GuMetaData.obj
 0002:00002820       ??_C@_0P@DLGEAMHJ@mAdjacentVerts@ 00000001801d9820     GuMetaData.obj
 0002:00002830       ??_C@_03NGLDENDA@SDF@      00000001801d9830     GuMetaData.obj
 0002:00002834       ??_C@_06KDGGGLIJ@PxVec3@   00000001801d9834     GuMetaData.obj
 0002:0000283c       ??_C@_06GIEBFILM@PxReal@   00000001801d983c     GuMetaData.obj
 0002:00002848       ??_C@_0O@PFOPBKAM@BigConvexData@ 00000001801d9848     GuMetaData.obj
 0002:00002858       ??_C@_05PLKALGFN@mData@    00000001801d9858     GuMetaData.obj
 0002:00002860       ??_C@_08PEMCLHEM@mVBuffer@ 00000001801d9860     GuMetaData.obj
 0002:00002870       ??_C@_09FBMAGD@Alignment@  00000001801d9870     GuMetaData.obj
 0002:00002880       ??_C@_0BE@KFHIBEEA@InternalObjectsData@ 00000001801d9880     GuMetaData.obj
 0002:00002898       ??_C@_07NKGFFIBH@mRadius@  00000001801d9898     GuMetaData.obj
 0002:000028a0       ??_C@_08EHFCACAE@mExtents@ 00000001801d98a0     GuMetaData.obj
 0002:000028b0       ??_C@_0BA@LFMGGCBK@HullPolygonData@ 00000001801d98b0     GuMetaData.obj
 0002:000028c0       ??_C@_06BOHHGLB@mPlane@    00000001801d98c0     GuMetaData.obj
 0002:000028c8       ??_C@_06EHMLHGLN@mVRef8@   00000001801d98c8     GuMetaData.obj
 0002:000028d0       ??_C@_09BAHHHINI@mMinIndex@ 00000001801d98d0     GuMetaData.obj
 0002:000028e0       ??_C@_0P@GBLBPIPB@ConvexHullData@ 00000001801d98e0     GuMetaData.obj
 0002:000028f0       ??_C@_09JDCJAPKD@PxBounds3@ 00000001801d98f0     GuMetaData.obj
 0002:000028fc       ??_C@_05NDNHIFA@mAABB@     00000001801d98fc     GuMetaData.obj
 0002:00002908       ??_C@_0O@LNOGEMJI@mCenterOfMass@ 00000001801d9908     GuMetaData.obj
 0002:00002918       ??_C@_09CNMCBBKH@mPolygons@ 00000001801d9918     GuMetaData.obj
 0002:00002928       ??_C@_0BC@KKPDCFJC@mBigConvexRawData@ 00000001801d9928     GuMetaData.obj
 0002:00002940       ??_C@_08MPNAAJLD@mSdfData@ 00000001801d9940     GuMetaData.obj
 0002:00002950       ??_C@_08ELDMKGKH@mNbEdges@ 00000001801d9950     GuMetaData.obj
 0002:00002960       ??_C@_0BA@CGLOHBAC@mNbHullVertices@ 00000001801d9960     GuMetaData.obj
 0002:00002970       ??_C@_0M@HGFFLLDM@mNbPolygons@ 00000001801d9970     GuMetaData.obj
 0002:00002980       ??_C@_09BHJEMDGO@mInternal@ 00000001801d9980     GuMetaData.obj
 0002:00002990       ??_C@_0L@GMFHOMKA@ConvexMesh@ 00000001801d9990     GuMetaData.obj
 0002:000029a0       ??_C@_09ILEBDLJH@mHullData@ 00000001801d99a0     GuMetaData.obj
 0002:000029ac       ??_C@_03DKDIKGNC@mNb@      00000001801d99ac     GuMetaData.obj
 0002:000029b0       ??_C@_0P@ENLHFHMD@mBigConvexData@ 00000001801d99b0     GuMetaData.obj
 0002:000029c0       ??_C@_05ILALLCHK@mMass@    00000001801d99c0     GuMetaData.obj
 0002:000029c8       ??_C@_07DBPDADGB@PxMat33@  00000001801d99c8     GuMetaData.obj
 0002:000029d0       ??_C@_08FNBHNDBI@mInertia@ 00000001801d99d0     GuMetaData.obj
 0002:000029e0       ??_C@_0O@FCKNKLMJ@GuMeshFactory@ 00000001801d99e0     GuMetaData.obj
 0002:000029f0       ??_C@_0N@EGBCLMAK@mMeshFactory@ 00000001801d99f0     GuMetaData.obj
 0002:00002a00       ??_C@_0BE@CJJAMAMK@PxHeightFieldSample@ 00000001801d9a00     GuMetaData.obj
 0002:00002a14       ??_C@_05MBLIPEMA@PxI16@    00000001801d9a14     GuMetaData.obj
 0002:00002a1c       ??_C@_06LNLHEAAG@height@   00000001801d9a1c     GuMetaData.obj
 0002:00002a28       ??_C@_0N@HHDGHJN@PxBitAndByte@ 00000001801d9a28     GuMetaData.obj
 0002:00002a38       ??_C@_0P@MBBMLBO@materialIndex0@ 00000001801d9a38     GuMetaData.obj
 0002:00002a48       ??_C@_0P@BFAKPKFP@materialIndex1@ 00000001801d9a48     GuMetaData.obj
 0002:00002a58       ??_C@_0BD@EBLPJEOE@PxHeightFieldFlags@ 00000001801d9a58     GuMetaData.obj
 0002:00002a70       ??_C@_0BK@FNNCFFCN@PxHeightFieldFormat?3?3Enum@ 00000001801d9a70     GuMetaData.obj
 0002:00002a90       ??_C@_0BA@CLNFMAAA@HeightFieldData@ 00000001801d9a90     GuMetaData.obj
 0002:00002aa0       ??_C@_04IMCGAIPI@rows@     00000001801d9aa0     GuMetaData.obj
 0002:00002aa8       ??_C@_07HIFEPIJN@columns@  00000001801d9aa8     GuMetaData.obj
 0002:00002ab0       ??_C@_08MOAGOABI@rowLimit@ 00000001801d9ab0     GuMetaData.obj
 0002:00002ac0       ??_C@_08BAGEHOBO@colLimit@ 00000001801d9ac0     GuMetaData.obj
 0002:00002ad0       ??_C@_09LKDBLADF@nbColumns@ 00000001801d9ad0     GuMetaData.obj
 0002:00002ae0       ??_C@_07ODIFGGLK@samples@  00000001801d9ae0     GuMetaData.obj
 0002:00002ae8       ??_C@_0BE@POHEGOJG@convexEdgeThreshold@ 00000001801d9ae8     GuMetaData.obj
 0002:00002afc       ??_C@_05GECEPKB@flags@     00000001801d9afc     GuMetaData.obj
 0002:00002b04       ??_C@_06DLEPGFEF@format@   00000001801d9b04     GuMetaData.obj
 0002:00002b10       ??_C@_0BF@MOGDNMPL@PxMaterialTableIndex@ 00000001801d9b10     GuMetaData.obj
 0002:00002b28       ??_C@_0M@JMJICJJO@HeightField@ 00000001801d9b28     GuMetaData.obj
 0002:00002b38       ??_C@_0O@ENGHMLJP@mSampleStride@ 00000001801d9b38     GuMetaData.obj
 0002:00002b48       ??_C@_0L@EBEEMFFB@mMinHeight@ 00000001801d9b48     GuMetaData.obj
 0002:00002b58       ??_C@_0L@EAEIFPOF@mMaxHeight@ 00000001801d9b58     GuMetaData.obj
 0002:00002b68       ??_C@_0N@FEFJOKKE@mModifyCount@ 00000001801d9b68     GuMetaData.obj
 0002:00002b78       ??_C@_09PHDKHCK@RTreePage@ 00000001801d9b78     GuMetaData.obj
 0002:00002b84       ??_C@_04LLPOBGED@minx@     00000001801d9b84     GuMetaData.obj
 0002:00002b8c       ??_C@_04KCOFCHAC@miny@     00000001801d9b8c     GuMetaData.obj
 0002:00002b94       ??_C@_04IJMIHEMB@minz@     00000001801d9b94     GuMetaData.obj
 0002:00002b9c       ??_C@_04GGOBOBGO@maxx@     00000001801d9b9c     GuMetaData.obj
 0002:00002ba4       ??_C@_04HPPKNACP@maxy@     00000001801d9ba4     GuMetaData.obj
 0002:00002bac       ??_C@_04FENHIDOM@maxz@     00000001801d9bac     GuMetaData.obj
 0002:00002bb4       ??_C@_04HHDFEJON@ptrs@     00000001801d9bb4     GuMetaData.obj
 0002:00002bbc       ??_C@_05FFEIGAJF@RTree@    00000001801d9bbc     GuMetaData.obj
 0002:00002bc4       ??_C@_06OMCHPNEO@PxVec4@   00000001801d9bc4     GuMetaData.obj
 0002:00002bd0       ??_C@_0L@NBIFEFLN@mBoundsMin@ 00000001801d9bd0     GuMetaData.obj
 0002:00002be0       ??_C@_0L@MDAOKBNC@mBoundsMax@ 00000001801d9be0     GuMetaData.obj
 0002:00002bf0       ??_C@_0N@NJEHLCOF@mInvDiagonal@ 00000001801d9bf0     GuMetaData.obj
 0002:00002c00       ??_C@_0BA@BEFIGPFG@mDiagonalScaler@ 00000001801d9c00     GuMetaData.obj
 0002:00002c10       ??_C@_09DICGGKGO@mPageSize@ 00000001801d9c10     GuMetaData.obj
 0002:00002c20       ??_C@_0O@BOFFCNOL@mNumRootPages@ 00000001801d9c20     GuMetaData.obj
 0002:00002c30       ??_C@_0L@JKLGBKAE@mNumLevels@ 00000001801d9c30     GuMetaData.obj
 0002:00002c40       ??_C@_0M@PHDOHJGK@mTotalNodes@ 00000001801d9c40     GuMetaData.obj
 0002:00002c50       ??_C@_0M@GDGHALAO@mTotalPages@ 00000001801d9c50     GuMetaData.obj
 0002:00002c5c       ??_C@_06MHCBBJGP@mFlags@   00000001801d9c5c     GuMetaData.obj
 0002:00002c64       ??_C@_06MMNBLHOK@mPages@   00000001801d9c64     GuMetaData.obj
 0002:00002c70       ??_C@_0P@JNLGHJNH@SourceMeshBase@ 00000001801d9c70     GuMetaData.obj
 0002:00002c80       ??_C@_06JFCLJMNN@mVerts@   00000001801d9c80     GuMetaData.obj
 0002:00002c88       ??_C@_05GNIIDDHH@mType@    00000001801d9c88     GuMetaData.obj
 0002:00002c90       ??_C@_06DHAAKLFK@mRemap@   00000001801d9c90     GuMetaData.obj
 0002:00002c98       ??_C@_0L@LEOGNOEC@SourceMesh@ 00000001801d9c98     GuMetaData.obj
 0002:00002ca8       ??_C@_07MPIKOOAP@mNbTris@  00000001801d9ca8     GuMetaData.obj
 0002:00002cb0       ??_C@_0N@FBMOMEHF@mTriangles32@ 00000001801d9cb0     GuMetaData.obj
 0002:00002cc0       ??_C@_0N@DGCGNFBP@mTriangles16@ 00000001801d9cc0     GuMetaData.obj
 0002:00002cd0       ??_C@_0O@NLNHFNO@QuantizedAABB@ 00000001801d9cd0     GuMetaData.obj
 0002:00002ce0       ??_C@_0BC@OOGBEMHH@mData?$FL0?$FN?4mExtents@ 00000001801d9ce0     GuMetaData.obj
 0002:00002cf8       ??_C@_0BB@OCEDKIEF@mData?$FL0?$FN?4mCenter@ 00000001801d9cf8     GuMetaData.obj
 0002:00002d10       ??_C@_0BC@HFMEAABI@mData?$FL1?$FN?4mExtents@ 00000001801d9d10     GuMetaData.obj
 0002:00002d28       ??_C@_0BB@CDMNHHIF@mData?$FL1?$FN?4mCenter@ 00000001801d9d28     GuMetaData.obj
 0002:00002d40       ??_C@_0BC@CFKNCOI@mData?$FL2?$FN?4mExtents@ 00000001801d9d40     GuMetaData.obj
 0002:00002d58       ??_C@_0BB@LKCPBBIE@mData?$FL2?$FN?4mCenter@ 00000001801d9d58     GuMetaData.obj
 0002:00002d70       ??_C@_0O@MJJKKPFN@BVDataPackedQ@ 00000001801d9d70     GuMetaData.obj
 0002:00002d80       ??_C@_0O@JFMLAIPJ@CenterExtents@ 00000001801d9d80     GuMetaData.obj
 0002:00002d90       ??_C@_07GNKDIIKJ@mCenter@  00000001801d9d90     GuMetaData.obj
 0002:00002d98       ??_C@_0P@KBMJDPLO@BVDataPackedNQ@ 00000001801d9d98     GuMetaData.obj
 0002:00002da8       ??_C@_0M@PNCEBOG@LocalBounds@ 00000001801d9da8     GuMetaData.obj
 0002:00002db4       ??_C@_05KNFBNCOH@float@    00000001801d9db4     GuMetaData.obj
 0002:00002dc0       ??_C@_0BC@LADJKHPL@mExtentsMagnitude@ 00000001801d9dc0     GuMetaData.obj
 0002:00002dd8       ??_C@_07HELIOLAF@BV4Tree@  00000001801d9dd8     GuMetaData.obj
 0002:00002de0       ??_C@_0P@EMMDNPMH@mMeshInterface@ 00000001801d9de0     GuMetaData.obj
 0002:00002df0       ??_C@_0N@DCKMHLCL@mLocalBounds@ 00000001801d9df0     GuMetaData.obj
 0002:00002e00       ??_C@_08EEJOMIJL@mNbNodes@ 00000001801d9e00     GuMetaData.obj
 0002:00002e0c       ??_C@_06FIIIMFIO@mNodes@   00000001801d9e0c     GuMetaData.obj
 0002:00002e18       ??_C@_09FGKNPI@mInitData@  00000001801d9e18     GuMetaData.obj
 0002:00002e28       ??_C@_0BC@CLDEHKCO@mCenterOrMinCoeff@ 00000001801d9e28     GuMetaData.obj
 0002:00002e40       ??_C@_0BD@LAOLBNJ@mExtentsOrMaxCoeff@ 00000001801d9e40     GuMetaData.obj
 0002:00002e58       ??_C@_0P@JEECKKBL@mUserAllocated@ 00000001801d9e58     GuMetaData.obj
 0002:00002e68       ??_C@_0L@GLIMNECG@mQuantized@ 00000001801d9e68     GuMetaData.obj
 0002:00002e78       ??_C@_0L@CCOJDAID@mIsEdgeSet@ 00000001801d9e78     GuMetaData.obj
 0002:00002e88       ??_C@_08BNDBAGDH@mPadding@ 00000001801d9e88     GuMetaData.obj
 0002:00002e98       ??_C@_0N@OJNNNLIB@TriangleMesh@ 00000001801d9e98     GuMetaData.obj
 0002:00002ea8       ??_C@_0M@OGEDMEAL@mNbVertices@ 00000001801d9ea8     GuMetaData.obj
 0002:00002eb8       ??_C@_0N@MGGDNHNI@mNbTriangles@ 00000001801d9eb8     GuMetaData.obj
 0002:00002ec8       ??_C@_09LNNEGOJA@mVertices@ 00000001801d9ec8     GuMetaData.obj
 0002:00002ed8       ??_C@_0L@KBOFAKLO@mTriangles@ 00000001801d9ed8     GuMetaData.obj
 0002:00002ee8       ??_C@_0P@MHDFIHLD@mExtraTrigData@ 00000001801d9ee8     GuMetaData.obj
 0002:00002ef8       ??_C@_0N@MGIKKCI@mGeomEpsilon@ 00000001801d9ef8     GuMetaData.obj
 0002:00002f08       ??_C@_0BB@IFLOOCNA@mMaterialIndices@ 00000001801d9f08     GuMetaData.obj
 0002:00002f20       ??_C@_0L@OPJMBFMI@mFaceRemap@ 00000001801d9f20     GuMetaData.obj
 0002:00002f30       ??_C@_0N@BIOECAPM@mAdjacencies@ 00000001801d9f30     GuMetaData.obj
 0002:00002f40       ??_C@_09CICJHLPI@mEdgeList@ 00000001801d9f40     GuMetaData.obj
 0002:00002f50       ??_C@_0BD@IPKCNNIK@mLocalCenterOfMass@ 00000001801d9f50     GuMetaData.obj
 0002:00002f68       ??_C@_0BA@OCOIGPII@mGRB_triIndices@ 00000001801d9f68     GuMetaData.obj
 0002:00002f78       ??_C@_0BE@JPINNDAH@mGRB_triAdjacencies@ 00000001801d9f78     GuMetaData.obj
 0002:00002f90       ??_C@_0P@EDFJJHEF@mGRB_faceRemap@ 00000001801d9f90     GuMetaData.obj
 0002:00002fa0       ??_C@_0BG@EEALPPCP@mGRB_faceRemapInverse@ 00000001801d9fa0     GuMetaData.obj
 0002:00002fb8       ??_C@_0O@CKMBAIFN@mGRB_BV32Tree@ 00000001801d9fb8     GuMetaData.obj
 0002:00002fc8       ??_C@_0BE@MGIOIICI@mSdfData?4mMeshLower@ 00000001801d9fc8     GuMetaData.obj
 0002:00002fe0       ??_C@_0BC@NNEDELGI@mSdfData?4mSpacing@ 00000001801d9fe0     GuMetaData.obj
 0002:00002ff8       ??_C@_0BB@OHOFDAIL@mSdfData?4mDims?4x@ 00000001801d9ff8     GuMetaData.obj
 0002:00003010       ??_C@_0BB@POPOABMK@mSdfData?4mDims?4y@ 00000001801da010     GuMetaData.obj
 0002:00003028       ??_C@_0BB@NFNDFCAJ@mSdfData?4mDims?4z@ 00000001801da028     GuMetaData.obj
 0002:00003040       ??_C@_0BC@GMPBGGPI@mSdfData?4mNumSdfs@ 00000001801da040     GuMetaData.obj
 0002:00003058       ??_C@_0O@BCEBBLNE@mSdfData?4mSdf@ 00000001801da058     GuMetaData.obj
 0002:00003068       ??_C@_0BG@HMHEFHIE@mSdfData?4mSubgridSize@ 00000001801da068     GuMetaData.obj
 0002:00003080       ??_C@_0BI@OFJBKPGB@mSdfData?4mNumStartSlots@ 00000001801da080     GuMetaData.obj
 0002:00003098       ??_C@_0BM@MGEPBEON@mSdfData?4mSubgridStartSlots@ 00000001801da098     GuMetaData.obj
 0002:000030b8       ??_C@_0BJ@PKKGJLNM@mSdfData?4mNumSubgridSdfs@ 00000001801da0b8     GuMetaData.obj
 0002:000030d8       ??_C@_0BF@HLMPGIBH@mSdfData?4mSubgridSdf@ 00000001801da0d8     GuMetaData.obj
 0002:000030f0       ??_C@_0CF@GMJNHGOK@mSdfData?4mSdfSubgrids3DTexBlock@ 00000001801da0f0     GuMetaData.obj
 0002:00003118       ??_C@_0CF@HFIGEHKL@mSdfData?4mSdfSubgrids3DTexBlock@ 00000001801da118     GuMetaData.obj
 0002:00003140       ??_C@_0CF@FOKLBEGI@mSdfData?4mSdfSubgrids3DTexBlock@ 00000001801da140     GuMetaData.obj
 0002:00003168       ??_C@_0BO@EIPCIOJH@mSdfData?4mSubgridsMinSdfValue@ 00000001801da168     GuMetaData.obj
 0002:00003188       ??_C@_0BO@NIIBJOHN@mSdfData?4mSubgridsMaxSdfValue@ 00000001801da188     GuMetaData.obj
 0002:000031a8       ??_C@_0BO@GKGODKFG@mSdfData?4mBytesPerSparsePixel@ 00000001801da1a8     GuMetaData.obj
 0002:000031c8       ??_C@_0BJ@LEBGJKBE@mAccumulatedTrianglesRef@ 00000001801da1c8     GuMetaData.obj
 0002:000031e8       ??_C@_0BF@OJMCNCDP@mTrianglesReferences@ 00000001801da1e8     GuMetaData.obj
 0002:00003200       ??_C@_0BH@LDGPOFA@mNbTrianglesReferences@ 00000001801da200     GuMetaData.obj
 0002:00003218       ??_C@_0BC@IFGECKF@RTreeTriangleMesh@ 00000001801da218     GuMetaData.obj
 0002:0000322c       ??_C@_06JDIHDDGN@mRTree@   00000001801da22c     GuMetaData.obj
 0002:00003238       ??_C@_0BA@LNNFPOKA@BV4TriangleMesh@ 00000001801da238     GuMetaData.obj
 0002:00003248       ??_C@_08FKLPEGDB@mBV4Tree@ 00000001801da248     GuMetaData.obj
 0002:00003258       ??_7?$SupportLocalImpl@VConvexHullNoScaleV@Gu@physx@@@Gu@physx@@6B@ 00000001801da258     GuMTD.obj
 0002:000032a0       ?absMask@?1??FAbs@aos@physx@@YA?AT__m128@@T4@@Z@4QBIB 00000001801da2a0     GuMTD.obj
 0002:000032b0       ??_7GjkConvex@Gu@physx@@6B@ 00000001801da2b0     GuMTD.obj
 0002:000032e0       ??_7?$LocalConvex@VCapsuleV@Gu@physx@@@Gu@physx@@6B@ 00000001801da2e0     GuMTD.obj
 0002:00003310       ??_7?$LocalConvex@VConvexHullV@Gu@physx@@@Gu@physx@@6B@ 00000001801da310     GuMTD.obj
 0002:00003340       __real@2edbe6ff            00000001801da340     GuMTD.obj
 0002:00003344       __real@34000000            00000001801da344     GuMTD.obj
 0002:00003348       __real@ff7fffff            00000001801da348     GuMTD.obj
 0002:00003350       __xmm@34000000340000003400000034000000 00000001801da350     GuMTD.obj
 0002:00003360       __xmm@358637bd358637bd358637bd358637bd 00000001801da360     GuMTD.obj
 0002:00003370       __xmm@3dcccccd3dcccccd3dcccccd3dcccccd 00000001801da370     GuMTD.obj
 0002:00003380       __xmm@3f7ff1413f7ff1413f7ff1413f7ff141 00000001801da380     GuMTD.obj
 0002:000033b0       ??_7?$RelativeConvex@VBoxV@Gu@physx@@@Gu@physx@@6B@ 00000001801da3b0     GuOverlapTests.obj
 0002:000033e0       ??_7?$RelativeConvex@VConvexHullV@Gu@physx@@@Gu@physx@@6B@ 00000001801da3e0     GuOverlapTests.obj
 0002:00003440       __real@1e3ce508            00000001801da440     GuRaycastTests.obj
 0002:00003444       __real@28800000            00000001801da444     GuRaycastTests.obj
 0002:00003448       __real@33d6bf95            00000001801da448     GuRaycastTests.obj
 0002:0000344c       __real@3727c5ac            00000001801da44c     GuRaycastTests.obj
 0002:00003450       __real@38d1b717            00000001801da450     GuRaycastTests.obj
 0002:00003454       __real@3f0147ae            00000001801da454     GuRaycastTests.obj
 0002:00003458       __real@3f7ffffe            00000001801da458     GuRaycastTests.obj
 0002:0000345c       __real@3f800347            00000001801da45c     GuRaycastTests.obj
 0002:00003460       __real@41200000            00000001801da460     GuRaycastTests.obj
 0002:00003464       __real@80000000            00000001801da464     GuRaycastTests.obj
 0002:00003468       __real@b3d6bf95            00000001801da468     GuRaycastTests.obj
 0002:0000346c       __real@b8d1b717            00000001801da46c     GuRaycastTests.obj
 0002:00003470       __real@c1200000            00000001801da470     GuRaycastTests.obj
 0002:000034b0       ??_7?$MeshHitCallback@UPxGeomRaycastHit@physx@@@Gu@physx@@6B@ 00000001801da4b0     GuSweepMTD.obj
 0002:000034c0       ??_7MeshMTDGenerationCallback@@6B@ 00000001801da4c0     GuSweepMTD.obj
 0002:000034d0       ??_7MidPhaseQueryLocalReport@@6B@ 00000001801da4d0     GuSweepMTD.obj
 0002:000034e0       __real@3f8147ae            00000001801da4e0     GuSweepMTD.obj
 0002:000034e4       __real@3f933333            00000001801da4e4     GuSweepMTD.obj
 0002:00003510       __real@3c23d70a            00000001801da510     GuSweepSharedTests.obj
 0002:00003514       __real@42c80000            00000001801da514     GuSweepSharedTests.obj
 0002:00003520       __xmm@ffffffffffffffffffffffffffffffff 00000001801da520     GuSweepSharedTests.obj
 0002:00003550       ??_7?$LocalConvex@VBoxV@Gu@physx@@@Gu@physx@@6B@ 00000001801da550     GuSweepTests.obj
 0002:00003580       ??_7?$LocalConvex@VTriangleV@Gu@physx@@@Gu@physx@@6B@ 00000001801da580     GuSweepTests.obj
 0002:000035b0       __xmm@00000002000000020000000200000002 00000001801da5b0     GuSweepTests.obj
 0002:000035c0       __xmm@3eaaaa9f3eaaaa9f3eaaaa9f3eaaaa9f 00000001801da5c0     GuSweepTests.obj
 0002:00003678       ??_7PxRunnable@physx@@6B@  00000001801da678     GuSDF.obj
 0002:00003690       ??_C@_0EJ@NLKJMDMM@C?3?2Users?2KOCCA48?2Desktop?2PhysX?9@ 00000001801da690     GuSDF.obj
 0002:000036e0       ??_7PointOntoTriangleMeshProjector@Gu@physx@@6B@ 00000001801da6e0     GuSDF.obj
 0002:000036f8       ??_7?$PxThreadT@V?$PxReflectionAllocator@VPxThreadImpl@physx@@@physx@@@physx@@6B@ 00000001801da6f8     GuSDF.obj
 0002:00003708       ??_C@_06FJHNOCKE@thread@   00000001801da708     GuSDF.obj
 0002:00003710       ??_C@_0BAK@OPLLKLNG@SDF?5creation?3?5Mesh?5is?5not?5suita@ 00000001801da710     GuSDF.obj
 0002:00003820       ??_C@_0FB@OMEANACP@SDF?5creation?3?5Input?5mesh?5is?5not@ 00000001801da820     GuSDF.obj
 0002:00003880       ??_C@_0EI@OANCLGGC@C?3?2Users?2KOCCA48?2Desktop?2PhysX?9@ 00000001801da880     GuSDF.obj
 0002:000038d0       ??_C@_0EG@JBKKFJO@C?3?2Users?2KOCCA48?2Desktop?2PhysX?9@ 00000001801da8d0     GuSDF.obj
 0002:00003920       ??_C@_0EP@BFJJCOBA@C?3?2Users?2KOCCA48?2Desktop?2PhysX?9@ 00000001801da920     GuSDF.obj
 0002:00003970       __real@37800080            00000001801da970     GuSDF.obj
 0002:00003974       __real@3b808081            00000001801da974     GuSDF.obj
 0002:00003978       __real@3e2aaaab            00000001801da978     GuSDF.obj
 0002:0000397c       __real@3eaaaaab            00000001801da97c     GuSDF.obj
 0002:00003980       __real@3f7d70a4            00000001801da980     GuSDF.obj
 0002:00003984       __real@7e7fffff            00000001801da984     GuSDF.obj
 0002:00003988       __real@bf000000            00000001801da988     GuSDF.obj
 0002:0000398c       __real@fe7fffff            00000001801da98c     GuSDF.obj
 0002:00003990       __xmm@00000001000000010000000100000000 00000001801da990     GuSDF.obj
 0002:000039a0       __real@437f0000            00000001801da9a0     GuCookingSDF.obj
 0002:000039a4       __real@477fff00            00000001801da9a4     GuCookingSDF.obj
 0002:000039d0       ??_7?$RelativeConvex@UCustomConvexV@@@Gu@physx@@6B@ 00000001801da9d0     GuGjkQuery.obj
 0002:00003a00       ??_7?$LocalConvex@UCustomConvexV@@@Gu@physx@@6B@ 00000001801daa00     GuGjkQuery.obj
 0002:00003a30       ??_7?$LocalConvex@UPointConvexV@@@Gu@physx@@6B@ 00000001801daa30     GuGjkQuery.obj
 0002:00003a80       __real@3da2f983            00000001801daa80     GuWindingNumber.obj
 0002:00003a84       __real@3e22f983            00000001801daa84     GuWindingNumber.obj
 0002:00003a88       __real@3f99999a            00000001801daa88     GuWindingNumber.obj
 0002:00003af0       __real@3c343958            00000001801daaf0     GuCCDSweepConvexMesh.obj
 0002:00003af4       __real@3ca3d70a            00000001801daaf4     GuCCDSweepConvexMesh.obj
 0002:00003af8       __real@3f0ccccd            00000001801daaf8     GuCCDSweepConvexMesh.obj
 0002:00003afc       __real@3f8ccccd            00000001801daafc     GuCCDSweepConvexMesh.obj
 0002:00003b00       __real@b58637bd            00000001801dab00     GuCCDSweepConvexMesh.obj
 0002:00003b30       ??_7?$RelativeConvex@VCapsuleV@Gu@physx@@@Gu@physx@@6B@ 00000001801dab30     GuCCDSweepPrimitives.obj
 0002:00003b60       ??_7?$RelativeConvex@VTriangleV@Gu@physx@@@Gu@physx@@6B@ 00000001801dab60     GuCCDSweepPrimitives.obj
 0002:00003b90       __real@3ba3d70a            00000001801dab90     GuCCDSweepPrimitives.obj
 0002:00003b94       __real@501502f9            00000001801dab94     GuCCDSweepPrimitives.obj
 0002:00003bc0       ??_C@_0FI@JPBDLPCF@C?3?2Users?2KOCCA48?2Desktop?2PhysX?9@ 00000001801dabc0     GuAdjacencies.obj
 0002:00003c18       ??_C@_0DA@FMEHLBKI@Adjacencies?3?3UpdateLink?3?5invali@ 00000001801dac18     GuAdjacencies.obj
 0002:00003c50       ??_C@_0EA@CPHOACLK@Adjacencies?3?3CreateDatabase?3?5ca@ 00000001801dac50     GuAdjacencies.obj
 0002:00003c90       ??_C@_0FF@OMKNGJGB@C?3?2Users?2KOCCA48?2Desktop?2PhysX?9@ 00000001801dac90     GuEdgeList.obj
 0002:00003ce8       ??_C@_0CO@GBNJFPN@EdgeList?3?3CreateFacesToEdges?3?5N@ 00000001801dace8     GuEdgeList.obj
 0002:00003d18       ??_C@_0CO@EHJBBMNK@EdgeList?3?3ComputeActiveEdges?3?5N@ 00000001801dad18     GuEdgeList.obj
 0002:00003d48       ??_C@_0DI@GBHLFOFP@ActiveEdges?3?3ComputeConvexEdges@ 00000001801dad48     GuEdgeList.obj
 0002:00003d80       ??_C@_0DM@JOGBLHDI@ActiveEdges?3?3ComputeConvexEdges@ 00000001801dad80     GuEdgeList.obj
 0002:00003dc0       ??_C@_0ED@FEMJKPEL@ActiveEdges?3?3ComputeConvexEdges@ 00000001801dadc0     GuEdgeList.obj
 0002:00003e10       ??_C@_0EB@BFDPMFCD@ActiveEdges?3?3ComputeConvexEdges@ 00000001801dae10     GuEdgeList.obj
 0002:00003e54       __real@bf7fbe77            00000001801dae54     GuEdgeList.obj
 0002:00003e58       ??_7Quantizer@Gu@physx@@6B@ 00000001801dae58     GuQuantizer.obj
 0002:00003e80       ??_7QuantizerImpl@@6B@     00000001801dae80     GuQuantizer.obj
 0002:00003eb0       ??_C@_0FG@PDLEIJEF@C?3?2Users?2KOCCA48?2Desktop?2PhysX?9@ 00000001801daeb0     GuQuantizer.obj
 0002:00003f08       __real@3f0020c5            00000001801daf08     GuQuantizer.obj
 0002:00003f0c       __real@3f8020c5            00000001801daf0c     GuQuantizer.obj
 0002:00003f10       ??_C@_0FI@LKEIJCHB@C?3?2Users?2KOCCA48?2Desktop?2PhysX?9@ 00000001801daf10     GuMeshCleaner.obj
 0002:00003f68       __real@40800000            00000001801daf68     GuMeshCleaner.obj
 0002:00003f70       ??_C@_0FK@POOKFADN@C?3?2Users?2KOCCA48?2Desktop?2PhysX?9@ 00000001801daf70     GuVertexReducer.obj
 0002:000040d0       __real@3f7fbe77            00000001801db0d0     GuContactBoxBox.obj
 0002:00004120       __real@3f7ff2e5            00000001801db120     GuContactCapsuleCapsule.obj
 0002:000041b0       __real@358637be            00000001801db1b0     GuContactCapsuleMesh.obj
 0002:000041b4       __real@ba83126f            00000001801db1b4     GuContactCapsuleMesh.obj
 0002:00004210       ??_7ConvexMeshContactGenerationCallback@@6B@ 00000001801db210     GuContactConvexMesh.obj
 0002:00004290       __real@3ec90fdb            00000001801db290     GuContactPolygonPolygon.obj
 0002:00004294       __real@3f490fdb            00000001801db294     GuContactPolygonPolygon.obj
 0002:00004298       __real@3f96cbe4            00000001801db298     GuContactPolygonPolygon.obj
 0002:0000429c       __real@3fc90fdb            00000001801db29c     GuContactPolygonPolygon.obj
 0002:000042a0       __real@3ffb53d2            00000001801db2a0     GuContactPolygonPolygon.obj
 0002:000042a4       __real@4016cbe4            00000001801db2a4     GuContactPolygonPolygon.obj
 0002:000042a8       __real@402feddf            00000001801db2a8     GuContactPolygonPolygon.obj
 0002:00004310       ??_C@_0FK@KMGJDEBJ@C?3?2Users?2KOCCA48?2Desktop?2PhysX?9@ 00000001801db310     GuBigConvexData.obj
 0002:00004390       ??_C@_0N@CDGINLLF@PxConvexMesh@ 00000001801db390     GuConvexMesh.obj
 0002:000043a0       ??_7PxBase@physx@@6B@      00000001801db3a0     GuConvexMesh.obj
 0002:000043c8       ??_C@_0CE@IDAGNPDH@isKindOf?5called?5with?5invalid?5st@ 00000001801db3c8     GuConvexMesh.obj
 0002:000043f0       ??_C@_0N@OPPDBGAG@PxRefCounted@ 00000001801db3f0     GuConvexMesh.obj
 0002:00004400       ??_C@_0EK@HBBCMNBN@C?3?2Users?2KOCCA48?2Desktop?2PhysX?9@ 00000001801db400     GuConvexMesh.obj
 0002:00004450       ??_7ConvexMesh@Gu@physx@@6B@ 00000001801db450     GuConvexMesh.obj
 0002:000044f0       ??_C@_0FH@NJHJIAOK@C?3?2Users?2KOCCA48?2Desktop?2PhysX?9@ 00000001801db4f0     GuConvexMesh.obj
 0002:00004548       ??_C@_0DM@NEJKOFIP@Loading?5convex?5mesh?5failed?3?5Dep@ 00000001801db548     GuConvexMesh.obj
 0002:00004588       ??_C@_0DB@PAHEPIEL@PxConvexMesh?3?3release?3?5double?5d@ 00000001801db588     GuConvexMesh.obj
 0002:000045c0       ??_C@_0EP@DDKJOJL@C?3?2Users?2KOCCA48?2Desktop?2PhysX?9@ 00000001801db5c0     GuConvexMesh.obj
 0002:00004630       __xmm@000000000000000000000000ffffffff 00000001801db630     GuConvexSupportTable.obj
 0002:00004640       __xmm@0000000000000000ffffffff00000000 00000001801db640     GuConvexSupportTable.obj
 0002:00004650       __xmm@0000000000000000ffffffffffffffff 00000001801db650     GuConvexSupportTable.obj
 0002:00004660       __xmm@00000000ffffffff0000000000000000 00000001801db660     GuConvexSupportTable.obj
 0002:00004670       __xmm@00000000ffffffff00000000ffffffff 00000001801db670     GuConvexSupportTable.obj
 0002:00004680       __xmm@00000000ffffffffffffffff00000000 00000001801db680     GuConvexSupportTable.obj
 0002:00004710       __xmm@2b8cbccc2b8cbccc2b8cbccc2b8cbccc 00000001801db710     GuDistancePointTriangle.obj
 0002:00004760       __xmm@3f0000003f0000003f0000003f000000 00000001801db760     GuDistanceSegmentSegment.obj
 0002:00004790       __real@2b8cbccc            00000001801db790     GuDistanceSegmentTriangle.obj
 0002:000047a0       __xmm@3f8000013f8000013f8000013f800001 00000001801db7a0     GuDistanceSegmentTriangle.obj
 0002:000047b0       __xmm@b4000000b4000000b4000000b4000000 00000001801db7b0     GuDistanceSegmentTriangle.obj
 0002:000047e0       __real@26901d7d            00000001801db7e0     GuDistanceTriangleTriangle.obj
 0002:00004860       __xmm@38d1b71738d1b71738d1b71738d1b717 00000001801db860     GuGJKSimplex.obj
 0002:00004890       ??_C@_0O@PBAKPCEC@PxHeightField@ 00000001801db890     GuHeightField.obj
 0002:000048a0       ??_C@_0EL@IJGFDABP@C?3?2Users?2KOCCA48?2Desktop?2PhysX?9@ 00000001801db8a0     GuHeightField.obj
 0002:000048f0       ??_7HeightField@Gu@physx@@6B@ 00000001801db8f0     GuHeightField.obj
 0002:000049a8       ??_C@_0DC@BDMMBOKH@PxHeightField?3?3release?3?5double?5@ 00000001801db9a8     GuHeightField.obj
 0002:000049e0       ??_C@_0FE@FNCHJHNC@C?3?2Users?2KOCCA48?2Desktop?2PhysX?9@ 00000001801db9e0     GuHeightField.obj
 0002:00004a38       ??_C@_0CI@DMKEKGNK@Gu?3?3HeightField?3?3load?3?5PX_ALLOC@ 00000001801dba38     GuHeightField.obj
 0002:00004a60       ??_C@_0EI@KEPGPPKO@C?3?2Users?2KOCCA48?2Desktop?2PhysX?9@ 00000001801dba60     GuHeightField.obj
 0002:00004ad0       __real@3a03126f            00000001801dbad0     GuHeightFieldUtil.obj
 0002:00004ad4       __real@3f19999a            00000001801dbad4     GuHeightFieldUtil.obj
 0002:00004ae0       __xmm@40000000000000000000000000000000 00000001801dbae0     GuHeightFieldUtil.obj
 0002:00004b70       ??_7HeightFieldTraceSegmentReport@@6B@ 00000001801dbb70     GuSweepsHF.obj
 0002:00004b80       ??_7CapsuleTraceSegmentReport@@6B@ 00000001801dbb80     GuSweepsHF.obj
 0002:00004b90       ??_7ConvexTraceSegmentReport@@6B@ 00000001801dbb90     GuSweepsHF.obj
 0002:00004ba0       ??_7BoxTraceSegmentReport@@6B@ 00000001801dbba0     GuSweepsHF.obj
 0002:00004bb0       __real@aedbe6ff            00000001801dbbb0     GuSweepsHF.obj
 0002:00004be0       __real@3089705f            00000001801dbbe0     GuIntersectionRayBox.obj
 0002:00004be4       __real@b4000000            00000001801dbbe4     GuIntersectionRayBox.obj
 0002:00004bf0       __xmm@000000003089705f3089705f3089705f 00000001801dbbf0     GuIntersectionRayBox.obj
 0002:00004c00       __xmm@00000000bf800000bf800000bf800000 00000001801dbc00     GuIntersectionRayBox.obj
 0002:00004c50       ??_7SourceMeshBase@Gu@physx@@6B@ 00000001801dbc50     GuBV4.obj
 0002:00004c78       ??_7SourceMesh@Gu@physx@@6B@ 00000001801dbc78     GuBV4.obj
 0002:00004ca0       ??_7TetrahedronSourceMesh@Gu@physx@@6B@ 00000001801dbca0     GuBV4.obj
 0002:00004cd0       ??_C@_0EO@LNPGNBFM@C?3?2Users?2KOCCA48?2Desktop?2PhysX?9@ 00000001801dbcd0     GuBV4.obj
 0002:00004d20       __xmm@ff7fffffff7fffffff7fffffff7fffff 00000001801dbd20     GuBV4.obj
 0002:00004d50       ??_C@_0FD@OLGLLFHM@C?3?2Users?2KOCCA48?2Desktop?2PhysX?9@ 00000001801dbd50     GuBV4Build.obj
 0002:00004da4       __real@38000100            00000001801dbda4     GuBV4Build.obj
 0002:00004da8       __real@3e93cd3a            00000001801dbda8     GuBV4Build.obj
 0002:00004dac       __real@46fffe00            00000001801dbdac     GuBV4Build.obj
 0002:00004db0       __real@be93cd3a            00000001801dbdb0     GuBV4Build.obj
 0002:00004de0       __xmm@0000ffff0000ffff0000ffff0000ffff 00000001801dbde0     GuBV4_AABBSweep.obj
 0002:00004df0       __xmm@3089705f3089705f3089705f3089705f 00000001801dbdf0     GuBV4_AABBSweep.obj
 0002:00004e00       __xmm@33d6bf9533d6bf9533d6bf9533d6bf95 00000001801dbe00     GuBV4_AABBSweep.obj
 0002:00004e10       __xmm@40000000400000004000000040000000 00000001801dbe10     GuBV4_AABBSweep.obj
 0002:00004ea0       __xmm@322bcc77322bcc77322bcc77322bcc77 00000001801dbea0     GuBV4_MeshMeshOverlap.obj
 0002:00004ef0       __real@00000000            00000001801dbef0     GuBV4_Raycast.obj
 0002:00004f20       __real@4f7fffff            00000001801dbf20     GuBV4_SphereOverlap.obj
 0002:00004f70       __xmm@000000007f7fffff0000000000000000 00000001801dbf70     GuMidphaseBV4.obj
 0002:00004fe0       ??_C@_0FD@EHCCILIF@Adjacency?5information?5not?5creat@ 00000001801dbfe0     GuMeshQuery.obj
 0002:00005040       ??_C@_0FE@FOMPGPLJ@C?3?2Users?2KOCCA48?2Desktop?2PhysX?9@ 00000001801dc040     GuMeshQuery.obj
 0002:000050a0       ??_C@_0FL@BKNMAHIA@PxMeshQuery?3?3findOverlapTriangl@ 00000001801dc0a0     GuMeshQuery.obj
 0002:000050fc       __real@4cbebc20            00000001801dc0fc     GuMeshQuery.obj
 0002:00005120       ??_7Callback@RTree@Gu@physx@@6B@ 00000001801dc120     GuMidphaseRTree.obj
 0002:00005138       ??_7?$RayRTreeCallback@$00$0A@@@6BCallbackRaycast@RTree@Gu@physx@@@ 00000001801dc138     GuMidphaseRTree.obj
 0002:00005138       ??_7?$RayRTreeCallback@$0A@$0A@@@6BCallbackRaycast@RTree@Gu@physx@@@ 00000001801dc138     GuMidphaseRTree.obj
 0002:00005148       ??_7?$RayRTreeCallback@$00$0A@@@6BCallback@RTree@Gu@physx@@@ 00000001801dc148     GuMidphaseRTree.obj
 0002:00005148       ??_7?$RayRTreeCallback@$0A@$0A@@@6BCallback@RTree@Gu@physx@@@ 00000001801dc148     GuMidphaseRTree.obj
 0002:00005160       ??_7RayMeshColliderCallback@@6B@ 00000001801dc160     GuMidphaseRTree.obj
 0002:00005170       ??_C@_0EN@DPPFLBLF@Point?9mesh?5distance?5query?5not?5s@ 00000001801dc170     GuMidphaseRTree.obj
 0002:000051c0       ??_C@_0FI@NLMLFBFH@C?3?2Users?2KOCCA48?2Desktop?2PhysX?9@ 00000001801dc1c0     GuMidphaseRTree.obj
 0002:00005218       ??_7?$RayRTreeCallback@$0A@$00@@6BCallbackRaycast@RTree@Gu@physx@@@ 00000001801dc218     GuMidphaseRTree.obj
 0002:00005228       ??_7?$RayRTreeCallback@$0A@$00@@6BCallback@RTree@Gu@physx@@@ 00000001801dc228     GuMidphaseRTree.obj
 0002:00005240       ??_7?$RayRTreeCallback@$00$00@@6BCallbackRaycast@RTree@Gu@physx@@@ 00000001801dc240     GuMidphaseRTree.obj
 0002:00005250       ??_7?$RayRTreeCallback@$00$00@@6BCallback@RTree@Gu@physx@@@ 00000001801dc250     GuMidphaseRTree.obj
 0002:000052d0       __xmm@7f7fffff000000000000000000000000 00000001801dc2d0     GuMidphaseRTree.obj
 0002:00005350       ??_7?$PxReportCallback@UPxGeomIndexPair@physx@@@physx@@6B@ 00000001801dc350     GuOverlapTestsMesh.obj
 0002:00005370       ??_C@_0EP@CEFGCJKJ@PxGeometryQuery?3?3overlap?$CI?$CJ?3?5onl@ 00000001801dc370     GuOverlapTestsMesh.obj
 0002:000053c0       ??_C@_0FL@PMLPKOCA@C?3?2Users?2KOCCA48?2Desktop?2PhysX?9@ 00000001801dc3c0     GuOverlapTestsMesh.obj
 0002:00005440       ?MN@RTreePage@Gu@physx@@2MB 00000001801dc440     GuRTree.obj
 0002:00005444       ?MX@RTreePage@Gu@physx@@2MB 00000001801dc444     GuRTree.obj
 0002:00005450       ??_C@_0FA@CPGEHFAL@C?3?2Users?2KOCCA48?2Desktop?2PhysX?9@ 00000001801dc450     GuRTree.obj
 0002:00005510       ??_7SweepShapeMeshHitCallback@Gu@physx@@6B@ 00000001801dc510     GuSweepsMesh.obj
 0002:00005520       ??_7SweepCapsuleMeshHitCallback@Gu@physx@@6B@ 00000001801dc520     GuSweepsMesh.obj
 0002:00005530       ??_7SweepBoxMeshHitCallback@Gu@physx@@6B@ 00000001801dc530     GuSweepsMesh.obj
 0002:00005540       ??_7SweepConvexMeshHitCallback@Gu@physx@@6B@ 00000001801dc540     GuSweepsMesh.obj
 0002:00005570       ??_C@_0P@GGNFNHKF@PxTriangleMesh@ 00000001801dc570     GuTriangleMesh.obj
 0002:00005580       ??_C@_0EM@GKNJPKGF@C?3?2Users?2KOCCA48?2Desktop?2PhysX?9@ 00000001801dc580     GuTriangleMesh.obj
 0002:000055d0       ??_7TriangleMesh@Gu@physx@@6B@ 00000001801dc5d0     GuTriangleMesh.obj
 0002:000056a8       ??_C@_0DD@LOOPMCGG@PxTriangleMesh?3?3release?3?5double@ 00000001801dc6a8     GuTriangleMesh.obj
 0002:000056e0       ??_C@_0FH@PMPAJDGI@PxTriangleMesh?3?3getVerticesForM@ 00000001801dc6e0     GuTriangleMesh.obj
 0002:00005740       ??_C@_0FH@OHCJCPAL@C?3?2Users?2KOCCA48?2Desktop?2PhysX?9@ 00000001801dc740     GuTriangleMesh.obj
 0002:000057a0       ??_C@_0EF@GMNFLDH@PxTriangleMesh?3?3refitBVH?$CI?$CJ?5is?5n@ 00000001801dc7a0     GuTriangleMesh.obj
 0002:000057f0       __xmm@38383838383838383838383838383838 00000001801dc7f0     GuTriangleMesh.obj
 0002:00005820       ??_C@_0BE@CNJKIINO@PxBVH34TriangleMesh@ 00000001801dc820     GuTriangleMeshBV4.obj
 0002:00005838       ??_7BV4TriangleMesh@Gu@physx@@6B@ 00000001801dc838     GuTriangleMeshBV4.obj
 0002:00005910       ??_C@_0EF@JLFNNPLP@BVH34?5trees?3?5refit?5operation?5on@ 00000001801dc910     GuTriangleMeshBV4.obj
 0002:00005960       ??_C@_0FK@GAFDAAJN@C?3?2Users?2KOCCA48?2Desktop?2PhysX?9@ 00000001801dc960     GuTriangleMeshBV4.obj
 0002:000059bc       __real@3951b717            00000001801dc9bc     GuTriangleMeshBV4.obj
 0002:000059e0       ??_C@_0BE@EIFHCCBO@PxBVH33TriangleMesh@ 00000001801dc9e0     GuTriangleMeshRTree.obj
 0002:000059f8       ??_7RTreeTriangleMesh@Gu@physx@@6B@ 00000001801dc9f8     GuTriangleMeshRTree.obj
 0002:00005ad0       ??_7?$RefitCallback@G@physx@@6B@ 00000001801dcad0     GuTriangleMeshRTree.obj
 0002:00005ae0       ??_7?$RefitCallback@I@physx@@6B@ 00000001801dcae0     GuTriangleMeshRTree.obj
 0002:00005b10       ??_C@_0EP@BOCDAKBP@C?3?2Users?2KOCCA48?2Desktop?2PhysX?9@ 00000001801dcb10     GuBV32.obj
 0002:00005b80       ??_C@_0FE@LAFLBIM@C?3?2Users?2KOCCA48?2Desktop?2PhysX?9@ 00000001801dcb80     GuBV32Build.obj
 0002:00005c00       ??_C@_0BC@FDAIDHBP@PxTetrahedronMesh@ 00000001801dcc00     GuTetrahedronMesh.obj
 0002:00005c20       ??_C@_0EP@JKBFOKMM@C?3?2Users?2KOCCA48?2Desktop?2PhysX?9@ 00000001801dcc20     GuTetrahedronMesh.obj
 0002:00005c70       ??_C@_0BC@FBICGJIB@PxSoftBodyAuxData@ 00000001801dcc70     GuTetrahedronMesh.obj
 0002:00005c88       ??_C@_0P@CLLFGFAA@PxSoftBodyMesh@ 00000001801dcc88     GuTetrahedronMesh.obj
 0002:00005c98       ??_7SoftBodyAuxData@Gu@physx@@6B@ 00000001801dcc98     GuTetrahedronMesh.obj
 0002:00005ce0       ??_7TetrahedronMesh@Gu@physx@@6B@ 00000001801dcce0     GuTetrahedronMesh.obj
 0002:00005d58       ??_7BVTetrahedronMesh@Gu@physx@@6B@ 00000001801dcd58     GuTetrahedronMesh.obj
 0002:00005dd0       ??_7SoftBodyMesh@Gu@physx@@6B@ 00000001801dcdd0     GuTetrahedronMesh.obj
 0002:00005e50       ??_C@_0DG@JJNMDPMD@PxTetrahedronMesh?3?3release?3?5dou@ 00000001801dce50     GuTetrahedronMesh.obj
 0002:00005e88       ??_C@_0DD@GGFGEPII@PxSoftBodyMesh?3?3release?3?5double@ 00000001801dce88     GuTetrahedronMesh.obj
 0002:00005ec0       ??_C@_0FK@ICBAOKAJ@C?3?2Users?2KOCCA48?2Desktop?2PhysX?9@ 00000001801dcec0     GuTetrahedronMesh.obj
 0002:00005f60       __xmm@00000000358637bd358637bd358637bd 00000001801dcf60     GuPCMContactBoxBox.obj
 0002:00005f70       __xmm@3f4ccccd3f4ccccd3f4ccccd3f4ccccd 00000001801dcf70     GuPCMContactBoxBox.obj
 0002:00005f80       __xmm@3f8003473f8003473f8003473f800347 00000001801dcf80     GuPCMContactBoxBox.obj
 0002:00005f90       __xmm@ffffffff00000000ffffffffffffffff 00000001801dcf90     GuPCMContactBoxBox.obj
 0002:00005fc0       ??_7?$LocalConvex@VConvexHullNoScaleV@Gu@physx@@@Gu@physx@@6B@ 00000001801dcfc0     GuPCMContactBoxConvex.obj
 0002:00005ff0       __xmm@3f3504f33f3504f33f3504f33f3504f3 00000001801dcff0     GuPCMContactBoxConvex.obj
 0002:00006040       __xmm@ffffffffffffffffffffffff00000000 00000001801dd040     GuPCMContactCapsuleCapsule.obj
 0002:00006070       __xmm@3fa000003fa000003fa000003fa00000 00000001801dd070     GuPCMContactCapsuleConvex.obj
 0002:000060a0       ??_7PCMCapsuleVsHeightfieldContactGenerationCallback@@6B@ 00000001801dd0a0     GuPCMContactCapsuleHeightField.obj
 0002:000060b0       __real@3f7f3b64            00000001801dd0b0     GuPCMContactCapsuleHeightField.obj
 0002:00006100       __xmm@3f7ff9723f7ff9723f7ff9723f7ff972 00000001801dd100     GuPCMContactCapsuleMesh.obj
 0002:00006110       __xmm@3f7fffef3f7fffef3f7fffef3f7fffef 00000001801dd110     GuPCMContactCapsuleMesh.obj
 0002:00006120       __xmm@60ad78ec60ad78ec60ad78ec60ad78ec 00000001801dd120     GuPCMContactCapsuleMesh.obj
 0002:00006150       ??_7?$SupportLocalImpl@VTriangleV@Gu@physx@@@Gu@physx@@6B@ 00000001801dd150     GuPCMContactConvexCommon.obj
 0002:00006170       __xmm@3cf5c2803cf5c2803cf5c2803cf5c280 00000001801dd170     GuPCMContactConvexCommon.obj
 0002:00006180       __xmm@3f7851ec3f7851ec3f7851ec3f7851ec 00000001801dd180     GuPCMContactConvexCommon.obj
 0002:000061b0       ??_7?$RelativeConvex@VConvexHullNoScaleV@Gu@physx@@@Gu@physx@@6B@ 00000001801dd1b0     GuPCMContactConvexConvex.obj
 0002:00006210       __xmm@3f19999a3f19999a3f19999a3f19999a 00000001801dd210     GuPCMContactConvexHeightField.obj
 0002:00006280       __xmm@3f34fdf43f34fdf43f34fdf43f34fdf4 00000001801dd280     GuPCMContactGenBoxConvex.obj
 0002:000062b0       __xmm@3f80a3d73f80a3d73f80a3d73f80a3d7 00000001801dd2b0     GuPCMContactGenSphereCapsule.obj
 0002:000062c0       __xmm@bba3d70abba3d70abba3d70abba3d70a 00000001801dd2c0     GuPCMContactGenSphereCapsule.obj
 0002:000062f0       __xmm@3f7ffd613f7ffd613f7ffd613f7ffd61 00000001801dd2f0     GuPCMContactPlaneBox.obj
 0002:00006320       __real@3b23d70b            00000001801dd320     GuPCMContactPlaneCapsule.obj
 0002:00006330       __xmm@3ca3d70a3ca3d70a3ca3d70a3ca3d70a 00000001801dd330     GuPCMContactPlaneCapsule.obj
 0002:00006360       __xmm@3a03126f3a03126f3a03126f3a03126f 00000001801dd360     GuPCMContactPlaneConvex.obj
 0002:00006480       __xmm@3727c5ac3727c5ac3727c5ac3727c5ac 00000001801dd480     GuPCMContactSphereSphere.obj
 0002:000064b0       __xmm@3f7f06f73f7f06f73f7f06f73f7f06f7 00000001801dd4b0     GuPCMContactCustomGeometry.obj
 0002:000064c0       ?gPCMBoxPolygonData@Gu@physx@@3QBEB 00000001801dd4c0     GuPCMShapeConvex.obj
 0002:00006540       ?invalidateThresholds@Gu@physx@@3QBMB 00000001801dd540     GuPersistentContactManifold.obj
 0002:00006558       ?invalidateQuatThresholds@Gu@physx@@3QBMB 00000001801dd558     GuPersistentContactManifold.obj
 0002:00006570       ?invalidateThresholds2@Gu@physx@@3QBMB 00000001801dd570     GuPersistentContactManifold.obj
 0002:00006580       ?invalidateQuatThresholds2@Gu@physx@@3QBMB 00000001801dd580     GuPersistentContactManifold.obj
 0002:00006590       __xmm@00000000340000003400000034000000 00000001801dd590     GuPersistentContactManifold.obj
 0002:000065a0       __xmm@000000003f8000003f80000000000000 00000001801dd5a0     GuPersistentContactManifold.obj
 0002:000065b0       __xmm@00000000bf8000003f80000000000000 00000001801dd5b0     GuPersistentContactManifold.obj
 0002:000065c0       __xmm@ffffffffffffffff00000000ffffffff 00000001801dd5c0     GuPersistentContactManifold.obj
 0002:000065f0       __xmm@c1200000c1200000c1200000c1200000 00000001801dd5f0     GuPCMContactGenUtil.obj
 0002:00006640       __real@b727c5ac            00000001801dd640     GuSweepBoxSphere.obj
 0002:000066b0       ??_C@_0FL@DOJFMLHC@C?3?2Users?2KOCCA48?2Desktop?2PhysX?9@ 00000001801dd6b0     GuSweepCapsuleBox.obj
 0002:00006750       __real@3f7fff58            00000001801dd750     GuSweepCapsuleTriangle.obj
 0002:000067c0       ??_C@_0CH@DHJGKCPD@Gu?3?3computeBounds?3?5Unknown?5shap@ 00000001801dd7c0     GuBounds.obj
 0002:000067f0       ??_C@_0EM@KHMBFJCJ@C?3?2Users?2KOCCA48?2Desktop?2PhysX?9@ 00000001801dd7f0     GuBounds.obj
 0002:0000683c       __real@34800000            00000001801dd83c     GuBounds.obj
 0002:00006840       __real@3f7fffef            00000001801dd840     GuBounds.obj
 0002:00006850       __xmm@3f8147ae3f8147ae3f8147ae3f8147ae 00000001801dd850     GuBounds.obj
 0002:00006880       ??_C@_0EO@ICIEJCDM@C?3?2Users?2KOCCA48?2Desktop?2PhysX?9@ 00000001801dd880     GuAABBTree.obj
 0002:000068d0       __xmm@5a60b17f5a60b17f5a60b17f5a60b17f 00000001801dd8d0     GuAABBTree.obj
 0002:000068e0       __xmm@da60b17fda60b17fda60b17fda60b17f 00000001801dd8e0     GuAABBTree.obj
 0002:00006950       ??_C@_0FJ@IDEJHEMI@C?3?2Users?2KOCCA48?2Desktop?2PhysX?9@ 00000001801dd950     GuIncrementalAABBTree.obj
 0002:000069b0       ??_C@_0EG@DFCPJDEA@C?3?2Users?2KOCCA48?2Desktop?2PhysX?9@ 00000001801dd9b0     GuIncrementalAABBTree.obj
 0002:000069f8       __real@40400000            00000001801dd9f8     GuIncrementalAABBTree.obj
 0002:00006a00       ??_C@_0EJ@LDJLINBL@C?3?2Users?2KOCCA48?2Desktop?2PhysX?9@ 00000001801dda00     GuSAH.obj
 0002:00006a70       ??_7PxBVH@physx@@6B@       00000001801dda70     GuBVH.obj
 0002:00006ae8       ??_C@_05OKJNPKBM@PxBVH@    00000001801ddae8     GuBVH.obj
 0002:00006af0       ??_C@_0ED@GKAIANKF@C?3?2Users?2KOCCA48?2Desktop?2PhysX?9@ 00000001801ddaf0     GuBVH.obj
 0002:00006b38       ??_7RefCountable@Cm@physx@@6B@ 00000001801ddb38     GuBVH.obj
 0002:00006b48       ??_7BVH@Gu@physx@@6BPxBVH@2@@ 00000001801ddb48     GuBVH.obj
 0002:00006bc0       ??_7BVH@Gu@physx@@6BRefCountable@Cm@2@@ 00000001801ddbc0     GuBVH.obj
 0002:00006bd0       ??_C@_0EJ@KBPDBOOO@C?3?2Users?2KOCCA48?2Desktop?2PhysX?9@ 00000001801ddbd0     GuBVH.obj
 0002:00006c20       ??_C@_0CK@HAIOEINI@PxBVH?3?3release?3?5double?5deletion@ 00000001801ddc20     GuBVH.obj
 0002:00006c70       ??_C@_0FP@DLCPCDCH@C?3?2Users?2KOCCA48?2Desktop?2PhysX?9@ 00000001801ddc70     GuIncrementalAABBPrunerCore.obj
 0002:00006cd0       __real@3f80a3d7            00000001801ddcd0     GuIncrementalAABBPrunerCore.obj
 0002:00006d00       ??_7BasePruner@Gu@physx@@6B@ 00000001801ddd00     GuIncrementalAABBPruner.obj
 0002:00006d18       ??_7IncrementalAABBPruner@Gu@physx@@6B@ 00000001801ddd18     GuIncrementalAABBPruner.obj
 0002:00006da0       ??_C@_0FL@CFPPCOEP@C?3?2Users?2KOCCA48?2Desktop?2PhysX?9@ 00000001801ddda0     GuIncrementalAABBPruner.obj
 0002:00006e20       ??_C@_0FB@DLFNKNEK@C?3?2Users?2KOCCA48?2Desktop?2PhysX?9@ 00000001801dde20     GuPruningPool.obj
 0002:00006ec0       ??_7BucketPruner@Gu@physx@@6B@ 00000001801ddec0     GuBucketPruner.obj
 0002:00006f50       ??_C@_0FC@KKJBEIHJ@C?3?2Users?2KOCCA48?2Desktop?2PhysX?9@ 00000001801ddf50     GuBucketPruner.obj
 0002:00006fa4       __real@bf13cd3a            00000001801ddfa4     GuBucketPruner.obj
 0002:00006fb0       __xmm@000000007e7fffff7e7fffff7e7fffff 00000001801ddfb0     GuBucketPruner.obj
 0002:00006fc0       __xmm@00000000fe7ffffffe7ffffffe7fffff 00000001801ddfc0     GuBucketPruner.obj
 0002:00006fd0       __xmm@3f13cd3a3f13cd3a3f13cd3a3f13cd3a 00000001801ddfd0     GuBucketPruner.obj
 0002:00006fe0       __xmm@bf13cd3abf13cd3abf13cd3a3f13cd3a 00000001801ddfe0     GuBucketPruner.obj
 0002:00006ff0       __xmm@bf8000003f8000003f800000bf800000 00000001801ddff0     GuBucketPruner.obj
 0002:00007000       __xmm@bf8000003f800000bf8000003f800000 00000001801de000     GuBucketPruner.obj
 0002:00007010       __xmm@bf800000bf8000003f8000003f800000 00000001801de010     GuBucketPruner.obj
 0002:00007020       __xmm@bf800000bf800000bf8000003f800000 00000001801de020     GuBucketPruner.obj
 0002:00007030       ?mIndices@MaverickNode@Gu@physx@@2QBIB 00000001801de030     GuMaverickNode.obj
 0002:00007090       ??_C@_0FK@NGFKCJOE@C?3?2Users?2KOCCA48?2Desktop?2PhysX?9@ 00000001801de090     GuExtendedBucketPruner.obj
 0002:00007110       ??_7CompanionPruner@Gu@physx@@6B@ 00000001801de110     GuSecondaryPruner.obj
 0002:00007190       ??_7CompanionPrunerBucket@@6B@ 00000001801de190     GuSecondaryPruner.obj
 0002:00007210       ??_7CompanionPrunerIncremental@@6B@ 00000001801de210     GuSecondaryPruner.obj
 0002:00007290       ??_7CompanionPrunerAABBTree@@6B@ 00000001801de290     GuSecondaryPruner.obj
 0002:00007310       ??_C@_0FF@CFPNBMMC@C?3?2Users?2KOCCA48?2Desktop?2PhysX?9@ 00000001801de310     GuSecondaryPruner.obj
 0002:00007390       ??_7AABBPruner@Gu@physx@@6B@ 00000001801de390     GuAABBPruner.obj
 0002:00007430       ??_C@_0LA@IHBEIKND@SceneQuery?5static?5AABB?5Tree?5reb@ 00000001801de430     GuAABBPruner.obj
 0002:000074e0       ??_C@_0FA@BMEGEMHG@C?3?2Users?2KOCCA48?2Desktop?2PhysX?9@ 00000001801de4e0     GuAABBPruner.obj
 0002:00007530       ??_C@_0FD@OJNMOPKP@C?3?2Users?2KOCCA48?2Desktop?2PhysX?9@ 00000001801de530     GuActorShapeMap.obj
 0002:000075b0       ??_C@_0BF@DNABLJAF@Invalid?5pruner?5index@ 00000001801de5b0     GuQuerySystem.obj
 0002:000075d0       ??_C@_0FB@GFDLFFMA@C?3?2Users?2KOCCA48?2Desktop?2PhysX?9@ 00000001801de5d0     GuQuerySystem.obj
 0002:00007680       ??_C@_0EN@CHFNECNO@C?3?2Users?2KOCCA48?2Desktop?2PhysX?9@ 00000001801de680     GuFactory.obj
 0002:000076d0       ?reductionFactors@SubSortQuick@physx@@2QBMB 00000001801de6d0     GuRTreeCooking.obj
 0002:000076e0       ?stopAtTrisPerLeaf1@SubSortQuick@physx@@2QBIB 00000001801de6e0     GuRTreeCooking.obj
 0002:000077b0       ??_C@_0FK@DAIOGDBB@C?3?2Users?2KOCCA48?2Desktop?2PhysX?9@ 00000001801de7b0     GuRTreeCooking.obj
 0002:0000780c       __real@41100000            00000001801de80c     GuRTreeCooking.obj
 0002:00007810       __real@41700000            00000001801de810     GuRTreeCooking.obj
 0002:00007814       __real@42200000            00000001801de814     GuRTreeCooking.obj
 0002:00007820       __xmm@00000004000000030000000200000001 00000001801de820     GuRTreeCooking.obj
 0002:00007850       ??_C@_0FI@BNLKCICH@C?3?2Users?2KOCCA48?2Desktop?2PhysX?9@ 00000001801de850     GuCookingBVH.obj
 0002:000078a8       ??_C@_0DL@JHPKHGFA@Cooking?3?3cookBVH?3?5user?9provided@ 00000001801de8a8     GuCookingBVH.obj
 0002:000078e8       ??_C@_0DN@PLNPGFEB@Cooking?3?3createBVH?3?5user?9provid@ 00000001801de8e8     GuCookingBVH.obj
 0002:00007930       ??_C@_0EL@JCJBAPHL@Cooking?3?3cookHeightField?3?5user?9@ 00000001801de930     GuCookingHF.obj
 0002:00007980       ??_C@_0FH@JLPHHANN@C?3?2Users?2KOCCA48?2Desktop?2PhysX?9@ 00000001801de980     GuCookingHF.obj
 0002:000079e0       ??_C@_0EN@FCEPCAFC@Cooking?3?3createHeightField?3?5use@ 00000001801de9e0     GuCookingHF.obj
 0002:00007a30       ??_C@_0EK@EKAIJEBL@Cooking?3?3cookConvexMesh?3?5user?9p@ 00000001801dea30     GuCookingConvexMesh.obj
 0002:00007a80       ??_C@_0FA@GFFGAPML@Cooking?3?3cookConvexMesh?3?5provid@ 00000001801dea80     GuCookingConvexMesh.obj
 0002:00007ad0       ??_C@_0EP@PKDCPNNO@Cooking?3?3cookConvexMesh?3?5provid@ 00000001801dead0     GuCookingConvexMesh.obj
 0002:00007b20       ??_C@_0EO@LKFMMDE@Cooking?3?3cookConvexMesh?3?5user?9p@ 00000001801deb20     GuCookingConvexMesh.obj
 0002:00007b70       ??_C@_0EL@KJEPJALG@Cooking?3?3cookConvexMesh?3?5user?9p@ 00000001801deb70     GuCookingConvexMesh.obj
 0002:00007bc0       ??_C@_0FM@LHMEBKMM@Cooking?3?3cookConvexMesh?3?5GPU?9co@ 00000001801debc0     GuCookingConvexMesh.obj
 0002:00007c20       ??_C@_0FJ@FHCFFABE@Cooking?3?3cookConvexMesh?3?5GPU?9co@ 00000001801dec20     GuCookingConvexMesh.obj
 0002:00007c80       ??_C@_0LM@CHONPBFM@Cooking?3?3cookConvexMesh?3?5GPU?9co@ 00000001801dec80     GuCookingConvexMesh.obj
 0002:00007d40       ??_C@_0FP@CFOKFLDK@C?3?2Users?2KOCCA48?2Desktop?2PhysX?9@ 00000001801ded40     GuCookingConvexMesh.obj
 0002:00007dc0       ??_7TriangleMeshBuilder@physx@@6B@ 00000001801dedc0     GuCookingTriangleMesh.obj
 0002:00007de8       ??_7RTreeTriangleMeshBuilder@physx@@6B@ 00000001801dede8     GuCookingTriangleMesh.obj
 0002:00007e10       ??_7BV4TriangleMeshBuilder@physx@@6B@ 00000001801dee10     GuCookingTriangleMesh.obj
 0002:00007e40       ??_C@_0GB@KMOFAAMJ@C?3?2Users?2KOCCA48?2Desktop?2PhysX?9@ 00000001801dee40     GuCookingTriangleMesh.obj
 0002:00007eb0       ??_C@_0EM@DBPINPE@TriangleMeshBuilder?3?3cleanMesh?3@ 00000001801deeb0     GuCookingTriangleMesh.obj
 0002:00007f00       ??_C@_0EF@MLNDPEDJ@TriangleMeshBuilder?3?3cleanMesh?3@ 00000001801def00     GuCookingTriangleMesh.obj
 0002:00007f50       ??_C@_0FJ@HHJLKGDF@TriangleMesh?3?5triangles?5are?5too@ 00000001801def50     GuCookingTriangleMesh.obj
 0002:00007fb0       ??_C@_0CN@KGPHHHLK@TriangleMesh?3?5mesh?5is?5too?5big?5f@ 00000001801defb0     GuCookingTriangleMesh.obj
 0002:00007fe0       ??_C@_0DD@CMJGDCNN@TriangleMesh?3?3loadFromDesc?3?5des@ 00000001801defe0     GuCookingTriangleMesh.obj
 0002:00008020       ??_C@_0ED@ILJJNHIP@TriangleMesh?3?3loadFromDesc?3?5mPa@ 00000001801df020     GuCookingTriangleMesh.obj
 0002:00008068       ??_C@_0BK@JIDHMMCE@BV4?5tree?5failed?5to?5build?4@ 00000001801df068     GuCookingTriangleMesh.obj
 0002:00008088       ??_C@_0BL@DHNECNBE@BV32?5tree?5failed?5to?5build?4@ 00000001801df088     GuCookingTriangleMesh.obj
 0002:000080a8       ??_7RTreeCookerRemap@@6B@  00000001801df0a8     GuCookingTriangleMesh.obj
 0002:000080c0       ??_C@_0FC@PJIHAFK@Cooking?3?3validateTriangleMesh?3?5@ 00000001801df0c0     GuCookingTriangleMesh.obj
 0002:000081a0       ??_7PxCollisionTetrahedronMeshData@physx@@6B@ 00000001801df1a0     GuCookingTetrahedronMesh.obj
 0002:000081d0       ??_7PxSimulationTetrahedronMeshData@physx@@6B@ 00000001801df1d0     GuCookingTetrahedronMesh.obj
 0002:000081f0       ??_7CollisionTetrahedronMeshData@Gu@physx@@6B@ 00000001801df1f0     GuCookingTetrahedronMesh.obj
 0002:00008220       ??_7SimulationTetrahedronMeshData@Gu@physx@@6B@ 00000001801df220     GuCookingTetrahedronMesh.obj
 0002:00008240       ??_C@_0GE@JAPFBOJK@C?3?2Users?2KOCCA48?2Desktop?2PhysX?9@ 00000001801df240     GuCookingTetrahedronMesh.obj
 0002:000082a8       ??_7?$LocalConvex@VTetrahedronV@Gu@physx@@@Gu@physx@@6B@ 00000001801df2a8     GuCookingTetrahedronMesh.obj
 0002:000082d8       ??_C@_0CD@OJGNHLOE@BV4_AABBTree?5tree?5failed?5to?5bui@ 00000001801df2d8     GuCookingTetrahedronMesh.obj
 0002:00008300       ??_C@_0DG@NCNIEEHB@TetrahedronMesh?3?3loadFromDesc?3?5@ 00000001801df300     GuCookingTetrahedronMesh.obj
 0002:00008340       ??_C@_0EG@CJIFGLMC@TetrahedronMesh?3?3loadFromDesc?3?5@ 00000001801df340     GuCookingTetrahedronMesh.obj
 0002:00008388       __real@be2aaaab            00000001801df388     GuCookingTetrahedronMesh.obj
 0002:00008390       __xmm@00000003000000030000000300000003 00000001801df390     GuCookingTetrahedronMesh.obj
 0002:000083c0       __real@3bc79ca10c924223    00000001801df3c0     GuCookingVolumeIntegration.obj
 0002:000083c8       __real@3f91111111111111    00000001801df3c8     GuCookingVolumeIntegration.obj
 0002:000083d0       __real@3fa5555555555555    00000001801df3d0     GuCookingVolumeIntegration.obj
 0002:000083d8       __real@3fa999999999999a    00000001801df3d8     GuCookingVolumeIntegration.obj
 0002:000083e0       __real@3fb5555555555555    00000001801df3e0     GuCookingVolumeIntegration.obj
 0002:000083e8       __real@3fc5555555555555    00000001801df3e8     GuCookingVolumeIntegration.obj
 0002:000083f0       __real@3fe0000000000000    00000001801df3f0     GuCookingVolumeIntegration.obj
 0002:000083f8       __real@3ff0000000000000    00000001801df3f8     GuCookingVolumeIntegration.obj
 0002:00008400       __real@4008000000000000    00000001801df400     GuCookingVolumeIntegration.obj
 0002:00008408       __real@4010000000000000    00000001801df408     GuCookingVolumeIntegration.obj
 0002:00008410       __real@bf91111111111111    00000001801df410     GuCookingVolumeIntegration.obj
 0002:00008418       __real@bfa999999999999a    00000001801df418     GuCookingVolumeIntegration.obj
 0002:00008420       __real@bfb5555555555555    00000001801df420     GuCookingVolumeIntegration.obj
 0002:00008428       __real@bfc5555555555555    00000001801df428     GuCookingVolumeIntegration.obj
 0002:00008430       __xmm@3c0888893c0888893c0888893c088889 00000001801df430     GuCookingVolumeIntegration.obj
 0002:00008440       __xmm@3c8888893c8888893c8888893c888889 00000001801df440     GuCookingVolumeIntegration.obj
 0002:00008450       __xmm@3d2aaaab3d2aaaab3d2aaaab3d2aaaab 00000001801df450     GuCookingVolumeIntegration.obj
 0002:00008460       __xmm@3e2aaaab3e2aaaab3e2aaaab3e2aaaab 00000001801df460     GuCookingVolumeIntegration.obj
 0002:00008470       __xmm@3f811111111111113f81111111111111 00000001801df470     GuCookingVolumeIntegration.obj
 0002:00008480       __xmm@3f811111111111113f91111111111111 00000001801df480     GuCookingVolumeIntegration.obj
 0002:00008490       __xmm@3f911111111111113f91111111111111 00000001801df490     GuCookingVolumeIntegration.obj
 0002:000084a0       __xmm@3fa55555555555553fa5555555555555 00000001801df4a0     GuCookingVolumeIntegration.obj
 0002:000084b0       __xmm@3fa55555555555553fc5555555555555 00000001801df4b0     GuCookingVolumeIntegration.obj
 0002:000084c0       __xmm@3fd55555555555553fd5555555555555 00000001801df4c0     GuCookingVolumeIntegration.obj
 0002:000084d0       __xmm@3fe00000000000003fe0000000000000 00000001801df4d0     GuCookingVolumeIntegration.obj
 0002:000084e0       __xmm@7fffffffffffffff7fffffffffffffff 00000001801df4e0     GuCookingVolumeIntegration.obj
 0002:000084f0       __xmm@80000000000000008000000000000000 00000001801df4f0     GuCookingVolumeIntegration.obj
 0002:00008500       ??_7ConvexHullLib@physx@@6B@ 00000001801df500     GuCookingQuickHullConvexHullLib.obj
 0002:00008520       ??_7QuickHullConvexHullLib@physx@@6B@ 00000001801df520     GuCookingQuickHullConvexHullLib.obj
 0002:00008540       ??_C@_0GL@HCPLJONM@C?3?2Users?2KOCCA48?2Desktop?2PhysX?9@ 00000001801df540     GuCookingQuickHullConvexHullLib.obj
 0002:000085b0       ??_C@_0GA@EPPAEJPM@QuickHullConvexHullLib?3?3findSim@ 00000001801df5b0     GuCookingQuickHullConvexHullLib.obj
 0002:00008610       ??_C@_0FB@NEBIJMML@QuickHullConvexHullLib?3?3findSim@ 00000001801df610     GuCookingQuickHullConvexHullLib.obj
 0002:00008670       ??_C@_0FB@CLLCBEMM@QuickHullConvexHullLib?3?3findSim@ 00000001801df670     GuCookingQuickHullConvexHullLib.obj
 0002:000086c4       __real@34c00000            00000001801df6c4     GuCookingQuickHullConvexHullLib.obj
 0002:000086c8       ??_C@_0DP@PJBJBEGF@Meshmerizer?3?3extractHullPolygon@ 00000001801df6c8     GuCookingConvexPolygonsBuilder.obj
 0002:00008710       ??_C@_0GK@HDOEHCAD@C?3?2Users?2KOCCA48?2Desktop?2PhysX?9@ 00000001801df710     GuCookingConvexPolygonsBuilder.obj
 0002:00008780       ??_C@_0DL@IAFKOCCK@ConvexHullBuilder?3?5convex?5hull?5@ 00000001801df780     GuCookingConvexPolygonsBuilder.obj
 0002:000087c0       ??_C@_0GF@OJLJHAMH@ConvexHullBuilder?3?3CreateTriang@ 00000001801df7c0     GuCookingConvexPolygonsBuilder.obj
 0002:00008850       ??_C@_0DF@LLFJIJGM@Gu?3?3ConvexMesh?3?3loadFromDesc?3?5d@ 00000001801df850     GuCookingConvexMeshBuilder.obj
 0002:00008890       ??_C@_0HK@JOGKIEAA@Gu?3?3ConvexMesh?3?5Mesh?5has?5a?5nega@ 00000001801df890     GuCookingConvexMeshBuilder.obj
 0002:00008910       ??_C@_0DH@NJPPHFFD@Gu?3?3ConvexMesh?3?5Error?5computing@ 00000001801df910     GuCookingConvexMeshBuilder.obj
 0002:00008948       ??_C@_0DJ@LJDLGLDJ@Gu?3?3ConvexMesh?3?3loadConvexHull?3@ 00000001801df948     GuCookingConvexMeshBuilder.obj
 0002:00008990       ??_C@_0HJ@KJANPPOE@ConvexMeshBuilder?3?3computeHullP@ 00000001801df990     GuCookingConvexMeshBuilder.obj
 0002:00008a10       ??_C@_0GG@ICOPAPPL@C?3?2Users?2KOCCA48?2Desktop?2PhysX?9@ 00000001801dfa10     GuCookingConvexMeshBuilder.obj
 0002:00008a78       ??_C@_0O@JMAGMMGG@PxHullPolygon@ 00000001801dfa78     GuCookingConvexMeshBuilder.obj
 0002:00008a88       __real@3f13cd3a            00000001801dfa88     GuCookingConvexMeshBuilder.obj
 0002:00008ab0       ??_C@_0GE@OBHCEOIB@C?3?2Users?2KOCCA48?2Desktop?2PhysX?9@ 00000001801dfab0     GuCookingConvexHullUtils.obj
 0002:00008b14       __real@3e20d97c            00000001801dfb14     GuCookingConvexHullUtils.obj
 0002:00008b20       ??_C@_0GC@CAKOLENB@C?3?2Users?2KOCCA48?2Desktop?2PhysX?9@ 00000001801dfb20     GuCookingConvexHullLib.obj
 0002:00008b90       ??_C@_0JE@PABBNGEL@ConvexHullLib?3?3cleanupVertices?3@ 00000001801dfb90     GuCookingConvexHullLib.obj
 0002:00008c50       ??_C@_0GG@EMELKPKO@C?3?2Users?2KOCCA48?2Desktop?2PhysX?9@ 00000001801dfc50     GuCookingConvexHullBuilder.obj
 0002:00008cc0       ??_C@_0EB@DCEIFDGC@ConvexHullBuilder?3?3init?3?5convex@ 00000001801dfcc0     GuCookingConvexHullBuilder.obj
 0002:00008d10       ??_C@_0FM@KICBLCBH@Gu?3?3ConvexMesh?3?3checkHullPolygo@ 00000001801dfd10     GuCookingConvexHullBuilder.obj
 0002:00008d70       ??_C@_0GO@HBFIOGLL@Gu?3?3ConvexMesh?3?3checkHullPolygo@ 00000001801dfd70     GuCookingConvexHullBuilder.obj
 0002:00008de0       ??_C@_0HF@OLJFBIEL@ConvexHullBuilder?3?5convex?5hull?5@ 00000001801dfde0     GuCookingConvexHullBuilder.obj
 0002:00008e60       ??_C@_0OG@JNHFOIL@ConvexHullBuilder?3?5convex?5hull?5@ 00000001801dfe60     GuCookingConvexHullBuilder.obj
 0002:00008f50       ??_C@_0EJ@NIOIBAKH@Cooking?3?3cookConvexMesh?3?5non?9ma@ 00000001801dff50     GuCookingConvexHullBuilder.obj
 0002:00008fc0       ??_C@_0GJ@CIJNBBJE@C?3?2Users?2KOCCA48?2Desktop?2PhysX?9@ 00000001801dffc0     GuCookingBigConvexDataBuilder.obj
 0002:00009030       __sz_PhysXFoundation_64_dll 00000001801e0030     PhysXFoundation_64:PhysXFoundation_64.dll
 0002:00009048       ??_C@_1BK@DBDEIDLH@?$AAK?$AAE?$AAR?$AAN?$AAE?$AAL?$AA3?$AA2?$AA?4?$AAD?$AAL?$AAL@ 00000001801e0048     Delayimp:delayhlp.obj
 0002:00009068       ??_C@_0BI@OMNLIJDB@AcquireSRWLockExclusive@ 00000001801e0068     Delayimp:delayhlp.obj
 0002:00009080       ??_C@_0BI@HMIEPCNJ@ReleaseSRWLockExclusive@ 00000001801e0080     Delayimp:delayhlp.obj
 0002:00009098       __pfnDliFailureHook2       00000001801e0098     Delayimp:delayhk1.obj
 0002:000090a8       ??_7type_info@@6B@         00000001801e00a8     LIBCMT:std_type_info_static.obj
 0002:00009110       _pDefaultRawDllMain        00000001801e0110     LIBCMT:dll_dllmain.obj
 0002:00009110       _pRawDllMain               00000001801e0110     LIBCMT:dll_dllmain.obj
 0002:00009120       _load_config_used          00000001801e0120     LIBCMT:loadcfg.obj
 0002:00009260       _pDestructExceptionObject  00000001801e0260     libvcruntime:ehhelpers.obj
 0002:00009980       ??_C@_08EHJDFFNH@__based?$CI@ 00000001801e0980     libvcruntime:undname.obj
 0002:00009990       ??_C@_07KOLFKCDI@__cdecl@  00000001801e0990     libvcruntime:undname.obj
 0002:00009998       ??_C@_08GHMPAG@__pascal@   00000001801e0998     libvcruntime:undname.obj
 0002:000099a8       ??_C@_09IFJBGAPI@__stdcall@ 00000001801e09a8     libvcruntime:undname.obj
 0002:000099b8       ??_C@_0L@NPHFGOKO@__thiscall@ 00000001801e09b8     libvcruntime:undname.obj
 0002:000099c8       ??_C@_0L@JMKHOMEK@__fastcall@ 00000001801e09c8     libvcruntime:undname.obj
 0002:000099d8       ??_C@_0N@BCKKPABJ@__vectorcall@ 00000001801e09d8     libvcruntime:undname.obj
 0002:000099e8       ??_C@_09HIJEGCPM@__clrcall@ 00000001801e09e8     libvcruntime:undname.obj
 0002:000099f4       ??_C@_06GHPCKEAG@__eabi@   00000001801e09f4     libvcruntime:undname.obj
 0002:00009a00       ??_C@_09IOPIDJLG@__swift_1@ 00000001801e0a00     libvcruntime:undname.obj
 0002:00009a10       ??_C@_09KFNFGKHF@__swift_2@ 00000001801e0a10     libvcruntime:undname.obj
 0002:00009a20       ??_C@_09LMMOFLDE@__swift_3@ 00000001801e0a20     libvcruntime:undname.obj
 0002:00009a30       ??_C@_07JOMMBBKO@__ptr64@  00000001801e0a30     libvcruntime:undname.obj
 0002:00009a38       ??_C@_0L@PILCLIHE@__restrict@ 00000001801e0a38     libvcruntime:undname.obj
 0002:00009a48       ??_C@_0M@GFIIJFMG@__unaligned@ 00000001801e0a48     libvcruntime:undname.obj
 0002:00009a58       ??_C@_09DHDLOLLB@restrict?$CI@ 00000001801e0a58     libvcruntime:undname.obj
 0002:00009a64       ??_C@_04NIHEBCM@?5new@     00000001801e0a64     libvcruntime:undname.obj
 0002:00009a70       ??_C@_07FPCDHGMM@?5delete@ 00000001801e0a70     libvcruntime:undname.obj
 0002:00009a78       ??_C@_01NEMOKFLO@?$DN@     00000001801e0a78     libvcruntime:undname.obj
 0002:00009a7c       ??_C@_02GPIOPFAK@?$DO?$DO@ 00000001801e0a7c     libvcruntime:undname.obj
 0002:00009a80       ??_C@_02FODMEDOG@?$DM?$DM@ 00000001801e0a80     libvcruntime:undname.obj
 0002:00009a84       ??_C@_01DCLJPIOD@?$CB@     00000001801e0a84     libvcruntime:undname.obj
 0002:00009a88       ??_C@_02EGOFBIJA@?$DN?$DN@ 00000001801e0a88     libvcruntime:undname.obj
 0002:00009a8c       ??_C@_02FDNJECIE@?$CB?$DN@ 00000001801e0a8c     libvcruntime:undname.obj
 0002:00009a90       ??_C@_02GPECMEKF@?$FL?$FN@ 00000001801e0a90     libvcruntime:undname.obj
 0002:00009a98       ??_C@_08LHJFAFGD@operator@ 00000001801e0a98     libvcruntime:undname.obj
 0002:00009aa4       ??_C@_02HBOOOICD@?9?$DO@   00000001801e0aa4     libvcruntime:undname.obj
 0002:00009aa8       ??_C@_01NBENCBCI@?$CK@     00000001801e0aa8     libvcruntime:undname.obj
 0002:00009aac       ??_C@_02ECNGHCIF@?$CL?$CL@ 00000001801e0aac     libvcruntime:undname.obj
 0002:00009ab0       ??_C@_02BAABKJLB@?9?9@     00000001801e0ab0     libvcruntime:undname.obj
 0002:00009ab4       ??_C@_01JOAMLHOP@?9@       00000001801e0ab4     libvcruntime:undname.obj
 0002:00009ab8       ??_C@_01MIFGBAGJ@?$CL@     00000001801e0ab8     libvcruntime:undname.obj
 0002:00009abc       ??_C@_01HNPIGOCE@?$CG@     00000001801e0abc     libvcruntime:undname.obj
 0002:00009ac0       ??_C@_03MNHNFDLC@?9?$DO?$CK@ 00000001801e0ac0     libvcruntime:undname.obj
 0002:00009ac4       ??_C@_01KMDKNFGN@?1@       00000001801e0ac4     libvcruntime:undname.obj
 0002:00009ac8       ??_C@_01FGNFDNOH@?$CF@     00000001801e0ac8     libvcruntime:undname.obj
 0002:00009acc       ??_C@_01MNNFJEPP@?$DM@     00000001801e0acc     libvcruntime:undname.obj
 0002:00009ad0       ??_C@_02EHCHHCKH@?$DM?$DN@ 00000001801e0ad0     libvcruntime:undname.obj
 0002:00009ad4       ??_C@_01PPODPGHN@?$DO@     00000001801e0ad4     libvcruntime:undname.obj
 0002:00009ad8       ??_C@_02EEKDKGMJ@?$DO?$DN@ 00000001801e0ad8     libvcruntime:undname.obj
 0002:00009adc       ??_C@_01IHBHIGKO@?0@       00000001801e0adc     libvcruntime:undname.obj
 0002:00009ae0       ??_C@_02HCKGKOFO@?$CI?$CJ@ 00000001801e0ae0     libvcruntime:undname.obj
 0002:00009ae4       ??_C@_01PJKLJHI@?$HO@      00000001801e0ae4     libvcruntime:undname.obj
 0002:00009ae8       ??_C@_01JKBOJNNK@?$FO@     00000001801e0ae8     libvcruntime:undname.obj
 0002:00009aec       ??_C@_01DNKMNLPK@?$HM@     00000001801e0aec     libvcruntime:undname.obj
 0002:00009af0       ??_C@_02PPKAJPJL@?$CG?$CG@ 00000001801e0af0     libvcruntime:undname.obj
 0002:00009af4       ??_C@_02NONPIBCD@?$HM?$HM@ 00000001801e0af4     libvcruntime:undname.obj
 0002:00009af8       ??_C@_02FPIMKNGF@?$CK?$DN@ 00000001801e0af8     libvcruntime:undname.obj
 0002:00009afc       ??_C@_02FOEOMHFC@?$CL?$DN@ 00000001801e0afc     libvcruntime:undname.obj
 0002:00009b00       ??_C@_02FKMDLLOA@?9?$DN@   00000001801e0b00     libvcruntime:undname.obj
 0002:00009b04       ??_C@_02FJEHGPIO@?1?$DN@   00000001801e0b04     libvcruntime:undname.obj
 0002:00009b08       ??_C@_02FENAOKFI@?$CF?$DN@ 00000001801e0b08     libvcruntime:undname.obj
 0002:00009b0c       ??_C@_03IKFCCPFF@?$DO?$DO?$DN@ 00000001801e0b0c     libvcruntime:undname.obj
 0002:00009b10       ??_C@_03CDNPDDLA@?$DM?$DM?$DN@ 00000001801e0b10     libvcruntime:undname.obj
 0002:00009b14       ??_C@_02FGJGFEAB@?$CG?$DN@ 00000001801e0b14     libvcruntime:undname.obj
 0002:00009b18       ??_C@_02DHLNPPGH@?$HM?$DN@ 00000001801e0b18     libvcruntime:undname.obj
 0002:00009b1c       ??_C@_02MHEGNOJ@?$FO?$DN@  00000001801e0b1c     libvcruntime:undname.obj
 0002:00009b20       ??_C@_09IFPLHPGF@?$GAvftable?8@ 00000001801e0b20     libvcruntime:undname.obj
 0002:00009b30       ??_C@_09BLBHBJP@?$GAvbtable?8@ 00000001801e0b30     libvcruntime:undname.obj
 0002:00009b40       ??_C@_07FEEIOKP@?$GAvcall?8@ 00000001801e0b40     libvcruntime:undname.obj
 0002:00009b48       ??_C@_08LLFFHHDJ@?$GAtypeof?8@ 00000001801e0b48     libvcruntime:undname.obj
 0002:00009b58       ??_C@_0BF@KDPPACIK@?$GAlocal?5static?5guard?8@ 00000001801e0b58     libvcruntime:undname.obj
 0002:00009b70       ??_C@_08OBABFOLI@?$GAstring?8@ 00000001801e0b70     libvcruntime:undname.obj
 0002:00009b80       ??_C@_0BD@JDLKDPAB@?$GAvbase?5destructor?8@ 00000001801e0b80     libvcruntime:undname.obj
 0002:00009b98       ??_C@_0BN@DEGPLNFK@?$GAvector?5deleting?5destructor?8@ 00000001801e0b98     libvcruntime:undname.obj
 0002:00009bb8       ??_C@_0BO@OBMKPJIG@?$GAdefault?5constructor?5closure?8@ 00000001801e0bb8     libvcruntime:undname.obj
 0002:00009bd8       ??_C@_0BN@IMDCHIKM@?$GAscalar?5deleting?5destructor?8@ 00000001801e0bd8     libvcruntime:undname.obj
 0002:00009bf8       ??_C@_0BO@PFGOCPJJ@?$GAvector?5constructor?5iterator?8@ 00000001801e0bf8     libvcruntime:undname.obj
 0002:00009c18       ??_C@_0BN@LFPFMEDL@?$GAvector?5destructor?5iterator?8@ 00000001801e0c18     libvcruntime:undname.obj
 0002:00009c38       ??_C@_0CE@IKBNEHA@?$GAvector?5vbase?5constructor?5itera@ 00000001801e0c38     libvcruntime:undname.obj
 0002:00009c60       ??_C@_0BL@NILFHHPC@?$GAvirtual?5displacement?5map?8@ 00000001801e0c60     libvcruntime:undname.obj
 0002:00009c80       ??_C@_0CB@JONCMFFK@?$GAeh?5vector?5constructor?5iterator@ 00000001801e0c80     libvcruntime:undname.obj
 0002:00009ca8       ??_C@_0CA@GCEOPDGL@?$GAeh?5vector?5destructor?5iterator?8@ 00000001801e0ca8     libvcruntime:undname.obj
 0002:00009cc8       ??_C@_0CH@OOJPLCPH@?$GAeh?5vector?5vbase?5constructor?5it@ 00000001801e0cc8     libvcruntime:undname.obj
 0002:00009cf0       ??_C@_0BL@LLKPOHJI@?$GAcopy?5constructor?5closure?8@ 00000001801e0cf0     libvcruntime:undname.obj
 0002:00009d10       ??_C@_0BA@KBCDOMBN@?$GAudt?5returning?8@ 00000001801e0d10     libvcruntime:undname.obj
 0002:00009d20       ??_C@_03KLGMFNMG@?$GAEH@   00000001801e0d20     libvcruntime:undname.obj
 0002:00009d24       ??_C@_05KHLCHHI@?$GARTTI@  00000001801e0d24     libvcruntime:undname.obj
 0002:00009d30       ??_C@_0BA@KKLDJDLB@?$GAlocal?5vftable?8@ 00000001801e0d30     libvcruntime:undname.obj
 0002:00009d40       ??_C@_0CE@IIHCMGGL@?$GAlocal?5vftable?5constructor?5clos@ 00000001801e0d40     libvcruntime:undname.obj
 0002:00009d64       ??_C@_06FHBGPFGH@?5new?$FL?$FN@ 00000001801e0d64     libvcruntime:undname.obj
 0002:00009d70       ??_C@_09LBNFPBCA@?5delete?$FL?$FN@ 00000001801e0d70     libvcruntime:undname.obj
 0002:00009d80       ??_C@_0P@HJKNJFNN@?$GAomni?5callsig?8@ 00000001801e0d80     libvcruntime:undname.obj
 0002:00009d90       ??_C@_0BL@CNOONJFP@?$GAplacement?5delete?5closure?8@ 00000001801e0d90     libvcruntime:undname.obj
 0002:00009db0       ??_C@_0BN@CKNJLHMB@?$GAplacement?5delete?$FL?$FN?5closure?8@ 00000001801e0db0     libvcruntime:undname.obj
 0002:00009dd0       ??_C@_0CG@CFDHKGGD@?$GAmanaged?5vector?5constructor?5ite@ 00000001801e0dd0     libvcruntime:undname.obj
 0002:00009df8       ??_C@_0CF@IMGKMJNO@?$GAmanaged?5vector?5destructor?5iter@ 00000001801e0df8     libvcruntime:undname.obj
 0002:00009e20       ??_C@_0CG@HLDDJMAG@?$GAeh?5vector?5copy?5constructor?5ite@ 00000001801e0e20     libvcruntime:undname.obj
 0002:00009e48       ??_C@_0CM@FCBBDIGB@?$GAeh?5vector?5vbase?5copy?5construct@ 00000001801e0e48     libvcruntime:undname.obj
 0002:00009e78       ??_C@_0BL@CLIPGLGB@?$GAdynamic?5initializer?5for?5?8@ 00000001801e0e78     libvcruntime:undname.obj
 0002:00009e98       ??_C@_0CB@PDBIFEP@?$GAdynamic?5atexit?5destructor?5for?5@ 00000001801e0e98     libvcruntime:undname.obj
 0002:00009ec0       ??_C@_0CD@CGAJBKEJ@?$GAvector?5copy?5constructor?5iterat@ 00000001801e0ec0     libvcruntime:undname.obj
 0002:00009ee8       ??_C@_0CJ@GJELGAMM@?$GAvector?5vbase?5copy?5constructor?5@ 00000001801e0ee8     libvcruntime:undname.obj
 0002:00009f18       ??_C@_0CL@FGIJHLCE@?$GAmanaged?5vector?5copy?5constructo@ 00000001801e0f18     libvcruntime:undname.obj
 0002:00009f48       ??_C@_0BM@PMGGMLDN@?$GAlocal?5static?5thread?5guard?8@ 00000001801e0f48     libvcruntime:undname.obj
 0002:00009f68       ??_C@_0N@BDNMDMOL@operator?5?$CC?$CC?5@ 00000001801e0f68     libvcruntime:undname.obj
 0002:00009f78       ??_C@_0BC@GGEBGALA@operator?5co_await@ 00000001801e0f78     libvcruntime:undname.obj
 0002:00009f90       ??_C@_0M@GAAIMMOH@operator?$DM?$DN?$DO@ 00000001801e0f90     libvcruntime:undname.obj
 0002:00009fa0       ??_C@_0BC@DAFEJGAK@?5Type?5Descriptor?8@ 00000001801e0fa0     libvcruntime:undname.obj
 0002:00009fb8       ??_C@_0BM@LDKODKLH@?5Base?5Class?5Descriptor?5at?5?$CI@ 00000001801e0fb8     libvcruntime:undname.obj
 0002:00009fd8       ??_C@_0BD@LGICGFMM@?5Base?5Class?5Array?8@ 00000001801e0fd8     libvcruntime:undname.obj
 0002:00009ff0       ??_C@_0BN@MECKDCOJ@?5Class?5Hierarchy?5Descriptor?8@ 00000001801e0ff0     libvcruntime:undname.obj
 0002:0000a010       ??_C@_0BK@CFCOFLF@?5Complete?5Object?5Locator?8@ 00000001801e1010     libvcruntime:undname.obj
 0002:0000a030       ??_C@_0BG@JNJLAMPM@?$GAanonymous?5namespace?8@ 00000001801e1030     libvcruntime:undname.obj
 0002:0000a048       ??_C@_04HEJADOOB@CV?3?5@   00000001801e1048     libvcruntime:undname.obj
 0002:0000a050       ??_C@_02MOLJINC@?3?3@      00000001801e1050     libvcruntime:undname.obj
 0002:0000a058       ??_C@_0BE@JAEOCHPE@template?9parameter?9@ 00000001801e1058     libvcruntime:undname.obj
 0002:0000a070       ??_C@_0BF@LNLGBBNL@?$GAtemplate?9parameter?9@ 00000001801e1070     libvcruntime:undname.obj
 0002:0000a088       ??_C@_0O@KHGCOMHP@generic?9type?9@ 00000001801e1088     libvcruntime:undname.obj
 0002:0000a098       ??_C@_0P@ODDENDLM@?$GAgeneric?9type?9@ 00000001801e1098     libvcruntime:undname.obj
 0002:0000a0a8       ??_C@_02OHHJMEON@?8?8@     00000001801e10a8     libvcruntime:undname.obj
 0002:0000a0b0       ??_C@_0BN@IBLMMFAP@?$GAnon?9type?9template?9parameter@ 00000001801e10b0     libvcruntime:undname.obj
 0002:0000a0d0       ??_C@_03DLDNIBIK@?$CFlf@   00000001801e10d0     libvcruntime:undname.obj
 0002:0000a0d4       ??_C@_04OFALKAJ@?$DP?$DP_C@ 00000001801e10d4     libvcruntime:undname.obj
 0002:0000a0dc       ??_C@_03KHICJKCI@?4?4?4@   00000001801e10dc     libvcruntime:undname.obj
 0002:0000a0e0       ??_C@_04HIBGFPH@NULL@      00000001801e10e0     libvcruntime:undname.obj
 0002:0000a0e8       ??_C@_02DPKJAMEF@?$CFd@    00000001801e10e8     libvcruntime:undname.obj
 0002:0000a0f0       ??_C@_0BK@IHCCFNEL@?$GAtemplate?9type?9parameter?9@ 00000001801e10f0     libvcruntime:undname.obj
 0002:0000a110       ??_C@_0BK@OFCNNNKO@?$GAgeneric?9class?9parameter?9@ 00000001801e1110     libvcruntime:undname.obj
 0002:0000a130       ??_C@_0BL@NGJBLFIL@?$GAgeneric?9method?9parameter?9@ 00000001801e1130     libvcruntime:undname.obj
 0002:0000a150       ??_C@_07OHNGEDJK@nullptr@  00000001801e1150     libvcruntime:undname.obj
 0002:0000a158       ??_C@_06COJIGPIB@lambda@   00000001801e1158     libvcruntime:undname.obj
 0002:0000a160       ??_C@_0BE@EODMJLIF@?$GAtemplate?9parameter@ 00000001801e1160     libvcruntime:undname.obj
 0002:0000a174       ??_C@_03OPGICMGF@?$HN?8?5@ 00000001801e1174     libvcruntime:undname.obj
 0002:0000a178       ??_C@_02IGFCGPIL@?$HN?8@   00000001801e1178     libvcruntime:undname.obj
 0002:0000a180       ??_C@_0N@CBHHHENL@?$GAvtordispex?$HL@ 00000001801e1180     libvcruntime:undname.obj
 0002:0000a190       ??_C@_0L@GHPFDFH@?$GAvtordisp?$HL@ 00000001801e1190     libvcruntime:undname.obj
 0002:0000a1a0       ??_C@_0L@HNGCOGAE@?$GAadjustor?$HL@ 00000001801e11a0     libvcruntime:undname.obj
 0002:0000a1b0       ??_C@_0CB@KJDOOODE@?$GAlocal?5static?5destructor?5helper@ 00000001801e11b0     libvcruntime:undname.obj
 0002:0000a1d8       ??_C@_0DB@ILEFOCIJ@?$GAtemplate?5static?5data?5member?5co@ 00000001801e11d8     libvcruntime:undname.obj
 0002:0000a210       ??_C@_0DA@HGFJFBBE@?$GAtemplate?5static?5data?5member?5de@ 00000001801e1210     libvcruntime:undname.obj
 0002:0000a240       ??_C@_07PGOEDBHP@static?5@ 00000001801e1240     libvcruntime:undname.obj
 0002:0000a248       ??_C@_08NIEOINHE@virtual?5@ 00000001801e1248     libvcruntime:undname.obj
 0002:0000a258       ??_C@_09LAPHOOG@private?3?5@ 00000001801e1258     libvcruntime:undname.obj
 0002:0000a268       ??_C@_0M@GAIFPFIP@protected?3?5@ 00000001801e1268     libvcruntime:undname.obj
 0002:0000a278       ??_C@_08GPDDCMKI@public?3?5@ 00000001801e1278     libvcruntime:undname.obj
 0002:0000a288       ??_C@_08KJLFOPNE@?$FLthunk?$FN?3@ 00000001801e1288     libvcruntime:undname.obj
 0002:0000a298       ??_C@_0M@DHNBOJMP@extern?5?$CCC?$CC?5@ 00000001801e1298     libvcruntime:undname.obj
 0002:0000a2a4       ??_C@_02KCKGHPCA@?$CJ?5@   00000001801e12a4     libvcruntime:undname.obj
 0002:0000a2a8       ??_C@_05CIHEBHNO@char?5@   00000001801e12a8     libvcruntime:undname.obj
 0002:0000a2b0       ??_C@_06EHJMALKF@short?5@  00000001801e12b0     libvcruntime:undname.obj
 0002:0000a2b8       ??_C@_04LAHKHJMA@int?5@    00000001801e12b8     libvcruntime:undname.obj
 0002:0000a2c0       ??_C@_05CJIMAING@long?5@   00000001801e12c0     libvcruntime:undname.obj
 0002:0000a2c8       ??_C@_09EBBEKKIH@unsigned?5@ 00000001801e12c8     libvcruntime:undname.obj
 0002:0000a2d4       ??_C@_05BEFAKPML@void?5@   00000001801e12d4     libvcruntime:undname.obj
 0002:0000a2e0       ??_C@_09GAIEOBLP@volatile?5@ 00000001801e12e0     libvcruntime:undname.obj
 0002:0000a2f0       ??_C@_08PABEKFH@volatile@  00000001801e12f0     libvcruntime:undname.obj
 0002:0000a300       ??_C@_0BA@LKIJLKPP@std?3?3nullptr_t?5@ 00000001801e1300     libvcruntime:undname.obj
 0002:0000a310       ??_C@_0P@GCOCNKDM@std?3?3nullptr_t@ 00000001801e1310     libvcruntime:undname.obj
 0002:0000a320       ??_C@_0L@EGPHHEKN@?$DMellipsis?$DO@ 00000001801e1320     libvcruntime:undname.obj
 0002:0000a32c       ??_C@_04EENFHACM@?0?4?4?4@ 00000001801e132c     libvcruntime:undname.obj
 0002:0000a338       ??_C@_0M@ELJOJFFH@?0?$DMellipsis?$DO@ 00000001801e1338     libvcruntime:undname.obj
 0002:0000a348       ??_C@_09DNHFEOJI@?5noexcept@ 00000001801e1348     libvcruntime:undname.obj
 0002:0000a354       ??_C@_03PBJBJNON@cpu@      00000001801e1354     libvcruntime:undname.obj
 0002:0000a358       ??_C@_03DCBBJBAA@amp@      00000001801e1358     libvcruntime:undname.obj
 0002:0000a35c       ??_C@_02KEGNLNML@?0?5@     00000001801e135c     libvcruntime:undname.obj
 0002:0000a360       ??_C@_04ENMBGAPA@char@     00000001801e1360     libvcruntime:undname.obj
 0002:0000a368       ??_C@_05BFKKPKCG@short@    00000001801e1368     libvcruntime:undname.obj
 0002:0000a370       ??_C@_03JBIPMCLC@int@      00000001801e1370     libvcruntime:undname.obj
 0002:0000a374       ??_C@_04GOKPGOLB@long@     00000001801e1374     libvcruntime:undname.obj
 0002:0000a37c       ??_C@_06BNJCAIGJ@double@   00000001801e137c     libvcruntime:undname.obj
 0002:0000a384       ??_C@_06EBGKOKIG@__int8@   00000001801e1384     libvcruntime:undname.obj
 0002:0000a390       ??_C@_07ICFHOGAF@__int16@  00000001801e1390     libvcruntime:undname.obj
 0002:0000a398       ??_C@_07OFLPPHGP@__int32@  00000001801e1398     libvcruntime:undname.obj
 0002:0000a3a0       ??_C@_07LFCOJCAC@__int64@  00000001801e13a0     libvcruntime:undname.obj
 0002:0000a3a8       ??_C@_08GAHOLHEO@__int128@ 00000001801e13a8     libvcruntime:undname.obj
 0002:0000a3b8       ??_C@_09EEKGDCPH@?$DMunknown?$DO@ 00000001801e13b8     libvcruntime:undname.obj
 0002:0000a3c8       ??_C@_07CFHGOPCN@char8_t@  00000001801e13c8     libvcruntime:undname.obj
 0002:0000a3d0       ??_C@_08HBIPOFJB@char16_t@ 00000001801e13d0     libvcruntime:undname.obj
 0002:0000a3e0       ??_C@_08IECNCBKG@char32_t@ 00000001801e13e0     libvcruntime:undname.obj
 0002:0000a3f0       ??_C@_07CLGGIAMF@wchar_t@  00000001801e13f0     libvcruntime:undname.obj
 0002:0000a3f8       ??_C@_04HAPDLBFF@auto@     00000001801e13f8     libvcruntime:undname.obj
 0002:0000a400       ??_C@_0P@LHCGKIGK@decltype?$CIauto?$CJ@ 00000001801e1400     libvcruntime:undname.obj
 0002:0000a410       ??_C@_05PCNBGHCF@this?5@   00000001801e1410     libvcruntime:undname.obj
 0002:0000a418       ??_C@_06GCICPBLB@__w64?5@  00000001801e1418     libvcruntime:undname.obj
 0002:0000a420       ??_C@_07NFANNNEC@UNKNOWN@  00000001801e1420     libvcruntime:undname.obj
 0002:0000a428       ??_C@_07EDHNAJHC@signed?5@ 00000001801e1428     libvcruntime:undname.obj
 0002:0000a430       ??_C@_05BNCCCJPP@const@    00000001801e1430     libvcruntime:undname.obj
 0002:0000a438       ??_C@_09EFNPDFFP@?5volatile@ 00000001801e1438     libvcruntime:undname.obj
 0002:0000a448       ??_C@_0P@GCIFDJCJ@?$GAunknown?5ecsu?8@ 00000001801e1448     libvcruntime:undname.obj
 0002:0000a458       ??_C@_06MOJHIBMG@union?5@  00000001801e1458     libvcruntime:undname.obj
 0002:0000a460       ??_C@_07DIBCDNGL@struct?5@ 00000001801e1460     libvcruntime:undname.obj
 0002:0000a468       ??_C@_06LJBABKPM@class?5@  00000001801e1468     libvcruntime:undname.obj
 0002:0000a470       ??_C@_08KOFANOFK@coclass?5@ 00000001801e1470     libvcruntime:undname.obj
 0002:0000a480       ??_C@_0N@DLIEFKNA@cointerface?5@ 00000001801e1480     libvcruntime:undname.obj
 0002:0000a490       ??_C@_05LJGMCFOG@enum?5@   00000001801e1490     libvcruntime:undname.obj
 0002:0000a498       ??_C@_06LIJLOJAG@const?5@  00000001801e1498     libvcruntime:undname.obj
 0002:0000a4a0       ??_C@_02KJPKDIBN@?$CG?5@   00000001801e14a0     libvcruntime:undname.obj
 0002:0000a4a4       ??_C@_03PCKGMOPB@?$CG?$CG?5@ 00000001801e14a4     libvcruntime:undname.obj
 0002:0000a4a8       ??_C@_0M@EALIELKG@cli?3?3array?$DM@ 00000001801e14a8     libvcruntime:undname.obj
 0002:0000a4b8       ??_C@_0O@GKABPPIF@cli?3?3pin_ptr?$DM@ 00000001801e14b8     libvcruntime:undname.obj
 0002:0000a4c8       ??_C@_02GOGNNPBN@?$CJ?$FL@ 00000001801e14c8     libvcruntime:undname.obj
 0002:0000a4cc       ??_C@_06EEGAIFAK@?$HLflat?$HN@ 00000001801e14cc     libvcruntime:undname.obj
 0002:0000a4d4       ??_C@_05JIBOFOHK@?$HLfor?5@ 00000001801e14d4     libvcruntime:undname.obj
 0002:0000a4dc       ??_C@_02MDINNEEG@s?5@      00000001801e14dc     libvcruntime:undname.obj
 0002:0000a4e8       ??_7charNode@@6B@          00000001801e14e8     libvcruntime:undname.obj
 0002:0000a510       ??_7pcharNode@@6B@         00000001801e1510     libvcruntime:undname.obj
 0002:0000a538       ??_7pDNameNode@@6B@        00000001801e1538     libvcruntime:undname.obj
 0002:0000a560       ??_7DNameStatusNode@@6B@   00000001801e1560     libvcruntime:undname.obj
 0002:0000a588       ??_7pairNode@@6B@          00000001801e1588     libvcruntime:undname.obj
 0002:0000a6b0       ??_C@_04OKOHEJBO@?5?$DP?$DP?5@ 00000001801e16b0     libvcruntime:undname.obj
 0002:0000a6c0       ?nodes@?1??make@DNameStatusNode@@SAPEBV2@W4DNameStatus@@@Z@4QBV2@B 00000001801e16c0     libvcruntime:undname.obj
 0002:0000a700       ?s_negLengthTab@FH4@@3QBCB 00000001801e1700     libvcruntime:risctrnsctrl.obj
 0002:0000a710       ?s_shiftTab@FH4@@3QBEB     00000001801e1710     libvcruntime:risctrnsctrl.obj
 0002:0000a870       ??_C@_1DM@KHCHBNEB@?$AAa?$AAp?$AAi?$AA?9?$AAm?$AAs?$AA?9?$AAw?$AAi?$AAn?$AA?9?$AAc?$AAo?$AAr?$AAe@ 00000001801e1870     libvcruntime:winapi_downlevel.obj
 0002:0000a8b0       ??_C@_1DK@LPPGFMPP@?$AAa?$AAp?$AAi?$AA?9?$AAm?$AAs?$AA?9?$AAw?$AAi?$AAn?$AA?9?$AAc?$AAo?$AAr?$AAe@ 00000001801e18b0     libvcruntime:winapi_downlevel.obj
 0002:0000a8f0       ??_C@_1BC@GDMECMAK@?$AAk?$AAe?$AAr?$AAn?$AAe?$AAl?$AA3?$AA2@ 00000001801e18f0     libvcruntime:winapi_downlevel.obj
 0002:0000a908       ??_C@_1BA@PFFKHIOG@?$AAa?$AAp?$AAi?$AA?9?$AAm?$AAs?$AA?9@ 00000001801e1908     libvcruntime:winapi_downlevel.obj
 0002:0000a920       ??_C@_08KNHFBNJ@FlsAlloc@  00000001801e1920     libvcruntime:winapi_downlevel.obj
 0002:0000a938       ??_C@_07PEJMOBNF@FlsFree@  00000001801e1938     libvcruntime:winapi_downlevel.obj
 0002:0000a948       ??_C@_0M@GDNOONDI@FlsGetValue@ 00000001801e1948     libvcruntime:winapi_downlevel.obj
 0002:0000a960       ??_C@_0M@JCPCPOEF@FlsSetValue@ 00000001801e1960     libvcruntime:winapi_downlevel.obj
 0002:0000a978       ??_C@_0BM@HCFOFFN@InitializeCriticalSectionEx@ 00000001801e1978     libvcruntime:winapi_downlevel.obj
 0002:0000a9a0       ??_7exception@std@@6B@     00000001801e19a0     libvcruntime:frame.obj
 0002:0000a9b0       ??_C@_0BC@EOODALEL@Unknown?5exception@ 00000001801e19b0     libvcruntime:frame.obj
 0002:0000a9d0       ??_7bad_exception@std@@6B@ 00000001801e19d0     libvcruntime:frame.obj
 0002:0000a9e0       ??_C@_0O@DPKOEFFH@bad?5exception@ 00000001801e19e0     libvcruntime:frame.obj
 0002:0000ad30       ?standard_lookup_table_spectre@__crt_stdio_output@@3V?$spectre_mitigated_lookup_table@Ustate_transition_pair@__crt_stdio_output@@$0IA@@1@B 00000001801e1d30     libucrt:output.obj
 0002:0000ae30       ?format_validation_lookup_table_spectre@__crt_stdio_output@@3V?$spectre_mitigated_lookup_table@Ustate_transition_pair@__crt_stdio_output@@$0IA@@1@B 00000001801e1e30     libucrt:output.obj
 0002:0000af30       ??_C@_1O@CEDCILHN@?$AA?$CI?$AAn?$AAu?$AAl?$AAl?$AA?$CJ@ 00000001801e1f30     libucrt:output.obj
 0002:0000af40       ??_C@_06OJHGLDPL@?$CInull?$CJ@ 00000001801e1f40     libucrt:output.obj
 0002:0000bfd8       __real@3f1a36e2eb1c432d    00000001801e2fd8     libucrt:atan2f.obj
 0002:0000bfe0       __real@3fb0000000000000    00000001801e2fe0     libucrt:atan2f.obj
 0002:0000bfe8       __real@3fc2492482bd6be1    00000001801e2fe8     libucrt:atan2f.obj
 0002:0000bff0       __real@3fc99999999643a3    00000001801e2ff0     libucrt:atan2f.obj
 0002:0000bff8       __real@3fd5555555550877    00000001801e2ff8     libucrt:atan2f.obj
 0002:0000c000       __real@3fd5555555555538    00000001801e3000     libucrt:atan2f.obj
 0002:0000c008       __real@3ff921fb54442d18    00000001801e3008     libucrt:atan2f.obj
 0002:0000c010       __real@400921fb54442d18    00000001801e3010     libucrt:atan2f.obj
 0002:0000c018       __real@40490fdb            00000001801e3018     libucrt:atan2f.obj
 0002:0000c020       __real@4070000000000000    00000001801e3020     libucrt:atan2f.obj
 0002:0000c028       __real@bf490fdb            00000001801e3028     libucrt:atan2f.obj
 0002:0000c02c       __real@bfc90fdb            00000001801e302c     libucrt:atan2f.obj
 0002:0000c030       __real@c016cbe4            00000001801e3030     libucrt:atan2f.obj
 0002:0000c034       __real@c0490fdb            00000001801e3034     libucrt:atan2f.obj
 0002:0000c038       ??_C@_05FFFCHCED@acosf@    00000001801e3038     libucrt:acosf.obj
 0002:0000c040       __real@3b81ce6b            00000001801e3040     libucrt:acosf.obj
 0002:0000c048       __real@3c91a62633145c07    00000001801e3048     libucrt:acosf.obj
 0002:0000c050       __real@3d678bdd            00000001801e3050     libucrt:acosf.obj
 0002:0000c054       __real@3e3c94dc            00000001801e3054     libucrt:acosf.obj
 0002:0000c058       __real@3f561f0d            00000001801e3058     libucrt:acosf.obj
 0002:0000c05c       __real@3f8d6fa5            00000001801e305c     libucrt:acosf.obj
 0002:0000c060       __real@bc5b3fe1            00000001801e3060     libucrt:acosf.obj
 0002:0000c070       __acrt_exception_action_table 00000001801e3070     libucrt:exception_filter.obj
 0002:0000c130       __acrt_signal_action_table_count 00000001801e3130     libucrt:exception_filter.obj
 0002:0000c138       __acrt_signal_action_first_fpe_index 00000001801e3138     libucrt:exception_filter.obj
 0002:0000c140       __acrt_signal_action_fpe_count 00000001801e3140     libucrt:exception_filter.obj
 0002:0000c198       ??_C@_1BI@BGOHAHKC@?$AAm?$AAs?$AAc?$AAo?$AAr?$AAe?$AAe?$AA?4?$AAd?$AAl?$AAl@ 00000001801e3198     libucrt:exit.obj
 0002:0000c1b0       ??_C@_0P@MIGLKIOC@CorExitProcess@ 00000001801e31b0     libucrt:exit.obj
 0002:0000c480       ??_C@_04LAGPAAHP@sinf@     00000001801e3480     libucrt:sincos_special.obj
 0002:0000c488       ??_C@_04OBBKPIAC@cosf@     00000001801e3488     libucrt:sincos_special.obj
 0002:0000c490       ??_C@_04MHPLPEIA@tanf@     00000001801e3490     libucrt:sincos_special.obj
 0002:0000c4a0       __Lcosfarray               00000001801e34a0     libucrt:lsincosf_array.obj
 0002:0000c4d0       __Lsinfarray               00000001801e34d0     libucrt:lsincosf_array.obj
 0002:0000c4f0       __L_2_by_pi_bits           00000001801e34f0     libucrt:l2_by_pi_bits.obj
 0002:0000c850       ??_C@_1EA@JGEFHKEI@?$AAa?$AAp?$AAi?$AA?9?$AAm?$AAs?$AA?9?$AAw?$AAi?$AAn?$AA?9?$AAc?$AAo?$AAr?$AAe@ 00000001801e3850     libucrt:winapi_thunks.obj
 0002:0000c890       ??_C@_1DI@IJCEHOCB@?$AAa?$AAp?$AAi?$AA?9?$AAm?$AAs?$AA?9?$AAw?$AAi?$AAn?$AA?9?$AAc?$AAo?$AAr?$AAe@ 00000001801e3890     libucrt:winapi_thunks.obj
 0002:0000c8d0       ??_C@_1EI@MPIAOHOC@?$AAa?$AAp?$AAi?$AA?9?$AAm?$AAs?$AA?9?$AAw?$AAi?$AAn?$AA?9?$AAc?$AAo?$AAr?$AAe@ 00000001801e38d0     libucrt:winapi_thunks.obj
 0002:0000c920       ??_C@_1FK@FPHCKFIE@?$AAa?$AAp?$AAi?$AA?9?$AAm?$AAs?$AA?9?$AAw?$AAi?$AAn?$AA?9?$AAc?$AAo?$AAr?$AAe@ 00000001801e3920     libucrt:winapi_thunks.obj
 0002:0000c980       ??_C@_1EM@DILCGIIO@?$AAa?$AAp?$AAi?$AA?9?$AAm?$AAs?$AA?9?$AAw?$AAi?$AAn?$AA?9?$AAc?$AAo?$AAr?$AAe@ 00000001801e3980     libucrt:winapi_thunks.obj
 0002:0000c9d0       ??_C@_1DM@LNCGDDPN@?$AAa?$AAp?$AAi?$AA?9?$AAm?$AAs?$AA?9?$AAw?$AAi?$AAn?$AA?9?$AAc?$AAo?$AAr?$AAe@ 00000001801e39d0     libucrt:winapi_thunks.obj
 0002:0000ca10       ??_C@_1DO@FPAPJEMD@?$AAa?$AAp?$AAi?$AA?9?$AAm?$AAs?$AA?9?$AAw?$AAi?$AAn?$AA?9?$AAc?$AAo?$AAr?$AAe@ 00000001801e3a10     libucrt:winapi_thunks.obj
 0002:0000ca50       ??_C@_1DK@NDHNAHIO@?$AAa?$AAp?$AAi?$AA?9?$AAm?$AAs?$AA?9?$AAw?$AAi?$AAn?$AA?9?$AAc?$AAo?$AAr?$AAe@ 00000001801e3a50     libucrt:winapi_thunks.obj
 0002:0000ca90       ??_C@_1DM@KGHDGBCM@?$AAa?$AAp?$AAi?$AA?9?$AAm?$AAs?$AA?9?$AAw?$AAi?$AAn?$AA?9?$AAc?$AAo?$AAr?$AAe@ 00000001801e3a90     libucrt:winapi_thunks.obj
 0002:0000cad0       ??_C@_1EO@IJIOEFOH@?$AAa?$AAp?$AAi?$AA?9?$AAm?$AAs?$AA?9?$AAw?$AAi?$AAn?$AA?9?$AAr?$AAt?$AAc?$AAo@ 00000001801e3ad0     libucrt:winapi_thunks.obj
